
build/release/SensorHall.elf:     file format elf32-littlearm

Sections:
Idx Name          Size      VMA       LMA       File off  Algn
  0 .isr_vector   000000c0  08000000  08000000  00001000  2**0
                  CONTENTS, ALLOC, LOAD, READONLY, DATA
  1 .text         00003cd4  080000c0  080000c0  000010c0  2**2
                  CONTENTS, ALLOC, LOAD, READONLY, CODE
  2 .rodata       00000248  08003d94  08003d94  00004d94  2**2
                  CONTENTS, ALLOC, LOAD, READONLY, DATA
  3 .ARM.extab    00000000  08003fdc  08003fdc  00005068  2**0
                  CONTENTS, READONLY
  4 .ARM          00000008  08003fdc  08003fdc  00004fdc  2**2
                  CONTENTS, ALLOC, LOAD, READONLY, DATA
  5 .preinit_array 00000000  08003fe4  08003fe4  00005068  2**0
                  CONTENTS, ALLOC, LOAD, DATA
  6 .init_array   00000004  08003fe4  08003fe4  00004fe4  2**2
                  CONTENTS, ALLOC, LOAD, READONLY, DATA
  7 .fini_array   00000004  08003fe8  08003fe8  00004fe8  2**2
                  CONTENTS, ALLOC, LOAD, READONLY, DATA
  8 .data         00000068  20000000  08003fec  00005000  2**2
                  CONTENTS, ALLOC, LOAD, DATA
  9 .bss          00000538  20000068  08004054  00005068  2**3
                  ALLOC
 10 ._user_heap_stack 00000600  200005a0  08004054  000055a0  2**0
                  ALLOC
 11 .ARM.attributes 00000028  00000000  00000000  00005068  2**0
                  CONTENTS, READONLY
 12 .comment      00000039  00000000  00000000  00005090  2**0
                  CONTENTS, READONLY
 13 .debug_line   000005c3  00000000  00000000  000050c9  2**0
                  CONTENTS, READONLY, DEBUGGING, OCTETS
 14 .debug_line_str 00000138  00000000  00000000  0000568c  2**0
                  CONTENTS, READONLY, DEBUGGING, OCTETS
 15 .debug_info   0000094e  00000000  00000000  000057c4  2**0
                  CONTENTS, READONLY, DEBUGGING, OCTETS
 16 .debug_abbrev 00000374  00000000  00000000  00006112  2**0
                  CONTENTS, READONLY, DEBUGGING, OCTETS
 17 .debug_aranges 00000120  00000000  00000000  00006488  2**3
                  CONTENTS, READONLY, DEBUGGING, OCTETS
 18 .debug_str    00000950  00000000  00000000  000065a8  2**0
                  CONTENTS, READONLY, DEBUGGING, OCTETS
 19 .debug_frame  000000b0  00000000  00000000  00006ef8  2**2
                  CONTENTS, READONLY, DEBUGGING, OCTETS
 20 .debug_loclists 00000445  00000000  00000000  00006fa8  2**0
                  CONTENTS, READONLY, DEBUGGING, OCTETS
 21 .debug_rnglists 00000042  00000000  00000000  000073ed  2**0
                  CONTENTS, READONLY, DEBUGGING, OCTETS

Disassembly of section .text:

080000c0 <strlen>:
 80000c0:	2300      	movs	r3, #0
 80000c2:	5cc2      	ldrb	r2, [r0, r3]
 80000c4:	3301      	adds	r3, #1
 80000c6:	2a00      	cmp	r2, #0
 80000c8:	d1fb      	bne.n	80000c2 <strlen+0x2>
 80000ca:	1e58      	subs	r0, r3, #1
 80000cc:	4770      	bx	lr
	...

080000d0 <__gnu_thumb1_case_shi>:
 80000d0:	b403      	push	{r0, r1}
 80000d2:	4671      	mov	r1, lr
 80000d4:	0849      	lsrs	r1, r1, #1
 80000d6:	0040      	lsls	r0, r0, #1
 80000d8:	0049      	lsls	r1, r1, #1
 80000da:	5e09      	ldrsh	r1, [r1, r0]
 80000dc:	0049      	lsls	r1, r1, #1
 80000de:	448e      	add	lr, r1
 80000e0:	bc03      	pop	{r0, r1}
 80000e2:	4770      	bx	lr

080000e4 <__udivsi3>:
 80000e4:	2200      	movs	r2, #0
 80000e6:	0843      	lsrs	r3, r0, #1
 80000e8:	428b      	cmp	r3, r1
 80000ea:	d374      	bcc.n	80001d6 <__udivsi3+0xf2>
 80000ec:	0903      	lsrs	r3, r0, #4
 80000ee:	428b      	cmp	r3, r1
 80000f0:	d35f      	bcc.n	80001b2 <__udivsi3+0xce>
 80000f2:	0a03      	lsrs	r3, r0, #8
 80000f4:	428b      	cmp	r3, r1
 80000f6:	d344      	bcc.n	8000182 <__udivsi3+0x9e>
 80000f8:	0b03      	lsrs	r3, r0, #12
 80000fa:	428b      	cmp	r3, r1
 80000fc:	d328      	bcc.n	8000150 <__udivsi3+0x6c>
 80000fe:	0c03      	lsrs	r3, r0, #16
 8000100:	428b      	cmp	r3, r1
 8000102:	d30d      	bcc.n	8000120 <__udivsi3+0x3c>
 8000104:	22ff      	movs	r2, #255	@ 0xff
 8000106:	0209      	lsls	r1, r1, #8
 8000108:	ba12      	rev	r2, r2
 800010a:	0c03      	lsrs	r3, r0, #16
 800010c:	428b      	cmp	r3, r1
 800010e:	d302      	bcc.n	8000116 <__udivsi3+0x32>
 8000110:	1212      	asrs	r2, r2, #8
 8000112:	0209      	lsls	r1, r1, #8
 8000114:	d065      	beq.n	80001e2 <__udivsi3+0xfe>
 8000116:	0b03      	lsrs	r3, r0, #12
 8000118:	428b      	cmp	r3, r1
 800011a:	d319      	bcc.n	8000150 <__udivsi3+0x6c>
 800011c:	e000      	b.n	8000120 <__udivsi3+0x3c>
 800011e:	0a09      	lsrs	r1, r1, #8
 8000120:	0bc3      	lsrs	r3, r0, #15
 8000122:	428b      	cmp	r3, r1
 8000124:	d301      	bcc.n	800012a <__udivsi3+0x46>
 8000126:	03cb      	lsls	r3, r1, #15
 8000128:	1ac0      	subs	r0, r0, r3
 800012a:	4152      	adcs	r2, r2
 800012c:	0b83      	lsrs	r3, r0, #14
 800012e:	428b      	cmp	r3, r1
 8000130:	d301      	bcc.n	8000136 <__udivsi3+0x52>
 8000132:	038b      	lsls	r3, r1, #14
 8000134:	1ac0      	subs	r0, r0, r3
 8000136:	4152      	adcs	r2, r2
 8000138:	0b43      	lsrs	r3, r0, #13
 800013a:	428b      	cmp	r3, r1
 800013c:	d301      	bcc.n	8000142 <__udivsi3+0x5e>
 800013e:	034b      	lsls	r3, r1, #13
 8000140:	1ac0      	subs	r0, r0, r3
 8000142:	4152      	adcs	r2, r2
 8000144:	0b03      	lsrs	r3, r0, #12
 8000146:	428b      	cmp	r3, r1
 8000148:	d301      	bcc.n	800014e <__udivsi3+0x6a>
 800014a:	030b      	lsls	r3, r1, #12
 800014c:	1ac0      	subs	r0, r0, r3
 800014e:	4152      	adcs	r2, r2
 8000150:	0ac3      	lsrs	r3, r0, #11
 8000152:	428b      	cmp	r3, r1
 8000154:	d301      	bcc.n	800015a <__udivsi3+0x76>
 8000156:	02cb      	lsls	r3, r1, #11
 8000158:	1ac0      	subs	r0, r0, r3
 800015a:	4152      	adcs	r2, r2
 800015c:	0a83      	lsrs	r3, r0, #10
 800015e:	428b      	cmp	r3, r1
 8000160:	d301      	bcc.n	8000166 <__udivsi3+0x82>
 8000162:	028b      	lsls	r3, r1, #10
 8000164:	1ac0      	subs	r0, r0, r3
 8000166:	4152      	adcs	r2, r2
 8000168:	0a43      	lsrs	r3, r0, #9
 800016a:	428b      	cmp	r3, r1
 800016c:	d301      	bcc.n	8000172 <__udivsi3+0x8e>
 800016e:	024b      	lsls	r3, r1, #9
 8000170:	1ac0      	subs	r0, r0, r3
 8000172:	4152      	adcs	r2, r2
 8000174:	0a03      	lsrs	r3, r0, #8
 8000176:	428b      	cmp	r3, r1
 8000178:	d301      	bcc.n	800017e <__udivsi3+0x9a>
 800017a:	020b      	lsls	r3, r1, #8
 800017c:	1ac0      	subs	r0, r0, r3
 800017e:	4152      	adcs	r2, r2
 8000180:	d2cd      	bcs.n	800011e <__udivsi3+0x3a>
 8000182:	09c3      	lsrs	r3, r0, #7
 8000184:	428b      	cmp	r3, r1
 8000186:	d301      	bcc.n	800018c <__udivsi3+0xa8>
 8000188:	01cb      	lsls	r3, r1, #7
 800018a:	1ac0      	subs	r0, r0, r3
 800018c:	4152      	adcs	r2, r2
 800018e:	0983      	lsrs	r3, r0, #6
 8000190:	428b      	cmp	r3, r1
 8000192:	d301      	bcc.n	8000198 <__udivsi3+0xb4>
 8000194:	018b      	lsls	r3, r1, #6
 8000196:	1ac0      	subs	r0, r0, r3
 8000198:	4152      	adcs	r2, r2
 800019a:	0943      	lsrs	r3, r0, #5
 800019c:	428b      	cmp	r3, r1
 800019e:	d301      	bcc.n	80001a4 <__udivsi3+0xc0>
 80001a0:	014b      	lsls	r3, r1, #5
 80001a2:	1ac0      	subs	r0, r0, r3
 80001a4:	4152      	adcs	r2, r2
 80001a6:	0903      	lsrs	r3, r0, #4
 80001a8:	428b      	cmp	r3, r1
 80001aa:	d301      	bcc.n	80001b0 <__udivsi3+0xcc>
 80001ac:	010b      	lsls	r3, r1, #4
 80001ae:	1ac0      	subs	r0, r0, r3
 80001b0:	4152      	adcs	r2, r2
 80001b2:	08c3      	lsrs	r3, r0, #3
 80001b4:	428b      	cmp	r3, r1
 80001b6:	d301      	bcc.n	80001bc <__udivsi3+0xd8>
 80001b8:	00cb      	lsls	r3, r1, #3
 80001ba:	1ac0      	subs	r0, r0, r3
 80001bc:	4152      	adcs	r2, r2
 80001be:	0883      	lsrs	r3, r0, #2
 80001c0:	428b      	cmp	r3, r1
 80001c2:	d301      	bcc.n	80001c8 <__udivsi3+0xe4>
 80001c4:	008b      	lsls	r3, r1, #2
 80001c6:	1ac0      	subs	r0, r0, r3
 80001c8:	4152      	adcs	r2, r2
 80001ca:	0843      	lsrs	r3, r0, #1
 80001cc:	428b      	cmp	r3, r1
 80001ce:	d301      	bcc.n	80001d4 <__udivsi3+0xf0>
 80001d0:	004b      	lsls	r3, r1, #1
 80001d2:	1ac0      	subs	r0, r0, r3
 80001d4:	4152      	adcs	r2, r2
 80001d6:	1a41      	subs	r1, r0, r1
 80001d8:	d200      	bcs.n	80001dc <__udivsi3+0xf8>
 80001da:	4601      	mov	r1, r0
 80001dc:	4152      	adcs	r2, r2
 80001de:	4610      	mov	r0, r2
 80001e0:	4770      	bx	lr
 80001e2:	e7ff      	b.n	80001e4 <__udivsi3+0x100>
 80001e4:	b501      	push	{r0, lr}
 80001e6:	2000      	movs	r0, #0
 80001e8:	f000 f8f0 	bl	80003cc <__aeabi_idiv0>
 80001ec:	bd02      	pop	{r1, pc}
 80001ee:	46c0      	nop			@ (mov r8, r8)

080001f0 <__aeabi_uidivmod>:
 80001f0:	2900      	cmp	r1, #0
 80001f2:	d0f7      	beq.n	80001e4 <__udivsi3+0x100>
 80001f4:	e776      	b.n	80000e4 <__udivsi3>
 80001f6:	4770      	bx	lr

080001f8 <__divsi3>:
 80001f8:	4603      	mov	r3, r0
 80001fa:	430b      	orrs	r3, r1
 80001fc:	d47f      	bmi.n	80002fe <__divsi3+0x106>
 80001fe:	2200      	movs	r2, #0
 8000200:	0843      	lsrs	r3, r0, #1
 8000202:	428b      	cmp	r3, r1
 8000204:	d374      	bcc.n	80002f0 <__divsi3+0xf8>
 8000206:	0903      	lsrs	r3, r0, #4
 8000208:	428b      	cmp	r3, r1
 800020a:	d35f      	bcc.n	80002cc <__divsi3+0xd4>
 800020c:	0a03      	lsrs	r3, r0, #8
 800020e:	428b      	cmp	r3, r1
 8000210:	d344      	bcc.n	800029c <__divsi3+0xa4>
 8000212:	0b03      	lsrs	r3, r0, #12
 8000214:	428b      	cmp	r3, r1
 8000216:	d328      	bcc.n	800026a <__divsi3+0x72>
 8000218:	0c03      	lsrs	r3, r0, #16
 800021a:	428b      	cmp	r3, r1
 800021c:	d30d      	bcc.n	800023a <__divsi3+0x42>
 800021e:	22ff      	movs	r2, #255	@ 0xff
 8000220:	0209      	lsls	r1, r1, #8
 8000222:	ba12      	rev	r2, r2
 8000224:	0c03      	lsrs	r3, r0, #16
 8000226:	428b      	cmp	r3, r1
 8000228:	d302      	bcc.n	8000230 <__divsi3+0x38>
 800022a:	1212      	asrs	r2, r2, #8
 800022c:	0209      	lsls	r1, r1, #8
 800022e:	d065      	beq.n	80002fc <__divsi3+0x104>
 8000230:	0b03      	lsrs	r3, r0, #12
 8000232:	428b      	cmp	r3, r1
 8000234:	d319      	bcc.n	800026a <__divsi3+0x72>
 8000236:	e000      	b.n	800023a <__divsi3+0x42>
 8000238:	0a09      	lsrs	r1, r1, #8
 800023a:	0bc3      	lsrs	r3, r0, #15
 800023c:	428b      	cmp	r3, r1
 800023e:	d301      	bcc.n	8000244 <__divsi3+0x4c>
 8000240:	03cb      	lsls	r3, r1, #15
 8000242:	1ac0      	subs	r0, r0, r3
 8000244:	4152      	adcs	r2, r2
 8000246:	0b83      	lsrs	r3, r0, #14
 8000248:	428b      	cmp	r3, r1
 800024a:	d301      	bcc.n	8000250 <__divsi3+0x58>
 800024c:	038b      	lsls	r3, r1, #14
 800024e:	1ac0      	subs	r0, r0, r3
 8000250:	4152      	adcs	r2, r2
 8000252:	0b43      	lsrs	r3, r0, #13
 8000254:	428b      	cmp	r3, r1
 8000256:	d301      	bcc.n	800025c <__divsi3+0x64>
 8000258:	034b      	lsls	r3, r1, #13
 800025a:	1ac0      	subs	r0, r0, r3
 800025c:	4152      	adcs	r2, r2
 800025e:	0b03      	lsrs	r3, r0, #12
 8000260:	428b      	cmp	r3, r1
 8000262:	d301      	bcc.n	8000268 <__divsi3+0x70>
 8000264:	030b      	lsls	r3, r1, #12
 8000266:	1ac0      	subs	r0, r0, r3
 8000268:	4152      	adcs	r2, r2
 800026a:	0ac3      	lsrs	r3, r0, #11
 800026c:	428b      	cmp	r3, r1
 800026e:	d301      	bcc.n	8000274 <__divsi3+0x7c>
 8000270:	02cb      	lsls	r3, r1, #11
 8000272:	1ac0      	subs	r0, r0, r3
 8000274:	4152      	adcs	r2, r2
 8000276:	0a83      	lsrs	r3, r0, #10
 8000278:	428b      	cmp	r3, r1
 800027a:	d301      	bcc.n	8000280 <__divsi3+0x88>
 800027c:	028b      	lsls	r3, r1, #10
 800027e:	1ac0      	subs	r0, r0, r3
 8000280:	4152      	adcs	r2, r2
 8000282:	0a43      	lsrs	r3, r0, #9
 8000284:	428b      	cmp	r3, r1
 8000286:	d301      	bcc.n	800028c <__divsi3+0x94>
 8000288:	024b      	lsls	r3, r1, #9
 800028a:	1ac0      	subs	r0, r0, r3
 800028c:	4152      	adcs	r2, r2
 800028e:	0a03      	lsrs	r3, r0, #8
 8000290:	428b      	cmp	r3, r1
 8000292:	d301      	bcc.n	8000298 <__divsi3+0xa0>
 8000294:	020b      	lsls	r3, r1, #8
 8000296:	1ac0      	subs	r0, r0, r3
 8000298:	4152      	adcs	r2, r2
 800029a:	d2cd      	bcs.n	8000238 <__divsi3+0x40>
 800029c:	09c3      	lsrs	r3, r0, #7
 800029e:	428b      	cmp	r3, r1
 80002a0:	d301      	bcc.n	80002a6 <__divsi3+0xae>
 80002a2:	01cb      	lsls	r3, r1, #7
 80002a4:	1ac0      	subs	r0, r0, r3
 80002a6:	4152      	adcs	r2, r2
 80002a8:	0983      	lsrs	r3, r0, #6
 80002aa:	428b      	cmp	r3, r1
 80002ac:	d301      	bcc.n	80002b2 <__divsi3+0xba>
 80002ae:	018b      	lsls	r3, r1, #6
 80002b0:	1ac0      	subs	r0, r0, r3
 80002b2:	4152      	adcs	r2, r2
 80002b4:	0943      	lsrs	r3, r0, #5
 80002b6:	428b      	cmp	r3, r1
 80002b8:	d301      	bcc.n	80002be <__divsi3+0xc6>
 80002ba:	014b      	lsls	r3, r1, #5
 80002bc:	1ac0      	subs	r0, r0, r3
 80002be:	4152      	adcs	r2, r2
 80002c0:	0903      	lsrs	r3, r0, #4
 80002c2:	428b      	cmp	r3, r1
 80002c4:	d301      	bcc.n	80002ca <__divsi3+0xd2>
 80002c6:	010b      	lsls	r3, r1, #4
 80002c8:	1ac0      	subs	r0, r0, r3
 80002ca:	4152      	adcs	r2, r2
 80002cc:	08c3      	lsrs	r3, r0, #3
 80002ce:	428b      	cmp	r3, r1
 80002d0:	d301      	bcc.n	80002d6 <__divsi3+0xde>
 80002d2:	00cb      	lsls	r3, r1, #3
 80002d4:	1ac0      	subs	r0, r0, r3
 80002d6:	4152      	adcs	r2, r2
 80002d8:	0883      	lsrs	r3, r0, #2
 80002da:	428b      	cmp	r3, r1
 80002dc:	d301      	bcc.n	80002e2 <__divsi3+0xea>
 80002de:	008b      	lsls	r3, r1, #2
 80002e0:	1ac0      	subs	r0, r0, r3
 80002e2:	4152      	adcs	r2, r2
 80002e4:	0843      	lsrs	r3, r0, #1
 80002e6:	428b      	cmp	r3, r1
 80002e8:	d301      	bcc.n	80002ee <__divsi3+0xf6>
 80002ea:	004b      	lsls	r3, r1, #1
 80002ec:	1ac0      	subs	r0, r0, r3
 80002ee:	4152      	adcs	r2, r2
 80002f0:	1a41      	subs	r1, r0, r1
 80002f2:	d200      	bcs.n	80002f6 <__divsi3+0xfe>
 80002f4:	4601      	mov	r1, r0
 80002f6:	4152      	adcs	r2, r2
 80002f8:	4610      	mov	r0, r2
 80002fa:	4770      	bx	lr
 80002fc:	e05d      	b.n	80003ba <__divsi3+0x1c2>
 80002fe:	0fca      	lsrs	r2, r1, #31
 8000300:	d000      	beq.n	8000304 <__divsi3+0x10c>
 8000302:	4249      	negs	r1, r1
 8000304:	1003      	asrs	r3, r0, #32
 8000306:	d300      	bcc.n	800030a <__divsi3+0x112>
 8000308:	4240      	negs	r0, r0
 800030a:	4053      	eors	r3, r2
 800030c:	2200      	movs	r2, #0
 800030e:	469c      	mov	ip, r3
 8000310:	0903      	lsrs	r3, r0, #4
 8000312:	428b      	cmp	r3, r1
 8000314:	d32d      	bcc.n	8000372 <__divsi3+0x17a>
 8000316:	0a03      	lsrs	r3, r0, #8
 8000318:	428b      	cmp	r3, r1
 800031a:	d312      	bcc.n	8000342 <__divsi3+0x14a>
 800031c:	22fc      	movs	r2, #252	@ 0xfc
 800031e:	0189      	lsls	r1, r1, #6
 8000320:	ba12      	rev	r2, r2
 8000322:	0a03      	lsrs	r3, r0, #8
 8000324:	428b      	cmp	r3, r1
 8000326:	d30c      	bcc.n	8000342 <__divsi3+0x14a>
 8000328:	0189      	lsls	r1, r1, #6
 800032a:	1192      	asrs	r2, r2, #6
 800032c:	428b      	cmp	r3, r1
 800032e:	d308      	bcc.n	8000342 <__divsi3+0x14a>
 8000330:	0189      	lsls	r1, r1, #6
 8000332:	1192      	asrs	r2, r2, #6
 8000334:	428b      	cmp	r3, r1
 8000336:	d304      	bcc.n	8000342 <__divsi3+0x14a>
 8000338:	0189      	lsls	r1, r1, #6
 800033a:	d03a      	beq.n	80003b2 <__divsi3+0x1ba>
 800033c:	1192      	asrs	r2, r2, #6
 800033e:	e000      	b.n	8000342 <__divsi3+0x14a>
 8000340:	0989      	lsrs	r1, r1, #6
 8000342:	09c3      	lsrs	r3, r0, #7
 8000344:	428b      	cmp	r3, r1
 8000346:	d301      	bcc.n	800034c <__divsi3+0x154>
 8000348:	01cb      	lsls	r3, r1, #7
 800034a:	1ac0      	subs	r0, r0, r3
 800034c:	4152      	adcs	r2, r2
 800034e:	0983      	lsrs	r3, r0, #6
 8000350:	428b      	cmp	r3, r1
 8000352:	d301      	bcc.n	8000358 <__divsi3+0x160>
 8000354:	018b      	lsls	r3, r1, #6
 8000356:	1ac0      	subs	r0, r0, r3
 8000358:	4152      	adcs	r2, r2
 800035a:	0943      	lsrs	r3, r0, #5
 800035c:	428b      	cmp	r3, r1
 800035e:	d301      	bcc.n	8000364 <__divsi3+0x16c>
 8000360:	014b      	lsls	r3, r1, #5
 8000362:	1ac0      	subs	r0, r0, r3
 8000364:	4152      	adcs	r2, r2
 8000366:	0903      	lsrs	r3, r0, #4
 8000368:	428b      	cmp	r3, r1
 800036a:	d301      	bcc.n	8000370 <__divsi3+0x178>
 800036c:	010b      	lsls	r3, r1, #4
 800036e:	1ac0      	subs	r0, r0, r3
 8000370:	4152      	adcs	r2, r2
 8000372:	08c3      	lsrs	r3, r0, #3
 8000374:	428b      	cmp	r3, r1
 8000376:	d301      	bcc.n	800037c <__divsi3+0x184>
 8000378:	00cb      	lsls	r3, r1, #3
 800037a:	1ac0      	subs	r0, r0, r3
 800037c:	4152      	adcs	r2, r2
 800037e:	0883      	lsrs	r3, r0, #2
 8000380:	428b      	cmp	r3, r1
 8000382:	d301      	bcc.n	8000388 <__divsi3+0x190>
 8000384:	008b      	lsls	r3, r1, #2
 8000386:	1ac0      	subs	r0, r0, r3
 8000388:	4152      	adcs	r2, r2
 800038a:	d2d9      	bcs.n	8000340 <__divsi3+0x148>
 800038c:	0843      	lsrs	r3, r0, #1
 800038e:	428b      	cmp	r3, r1
 8000390:	d301      	bcc.n	8000396 <__divsi3+0x19e>
 8000392:	004b      	lsls	r3, r1, #1
 8000394:	1ac0      	subs	r0, r0, r3
 8000396:	4152      	adcs	r2, r2
 8000398:	1a41      	subs	r1, r0, r1
 800039a:	d200      	bcs.n	800039e <__divsi3+0x1a6>
 800039c:	4601      	mov	r1, r0
 800039e:	4663      	mov	r3, ip
 80003a0:	4152      	adcs	r2, r2
 80003a2:	105b      	asrs	r3, r3, #1
 80003a4:	4610      	mov	r0, r2
 80003a6:	d301      	bcc.n	80003ac <__divsi3+0x1b4>
 80003a8:	4240      	negs	r0, r0
 80003aa:	2b00      	cmp	r3, #0
 80003ac:	d500      	bpl.n	80003b0 <__divsi3+0x1b8>
 80003ae:	4249      	negs	r1, r1
 80003b0:	4770      	bx	lr
 80003b2:	4663      	mov	r3, ip
 80003b4:	105b      	asrs	r3, r3, #1
 80003b6:	d300      	bcc.n	80003ba <__divsi3+0x1c2>
 80003b8:	4240      	negs	r0, r0
 80003ba:	b501      	push	{r0, lr}
 80003bc:	2000      	movs	r0, #0
 80003be:	f000 f805 	bl	80003cc <__aeabi_idiv0>
 80003c2:	bd02      	pop	{r1, pc}

080003c4 <__aeabi_idivmod>:
 80003c4:	2900      	cmp	r1, #0
 80003c6:	d0f8      	beq.n	80003ba <__divsi3+0x1c2>
 80003c8:	e716      	b.n	80001f8 <__divsi3>
 80003ca:	4770      	bx	lr

080003cc <__aeabi_idiv0>:
 80003cc:	4770      	bx	lr
 80003ce:	46c0      	nop			@ (mov r8, r8)

080003d0 <__aeabi_uldivmod>:
 80003d0:	2b00      	cmp	r3, #0
 80003d2:	d111      	bne.n	80003f8 <__aeabi_uldivmod+0x28>
 80003d4:	2a00      	cmp	r2, #0
 80003d6:	d10f      	bne.n	80003f8 <__aeabi_uldivmod+0x28>
 80003d8:	2900      	cmp	r1, #0
 80003da:	d100      	bne.n	80003de <__aeabi_uldivmod+0xe>
 80003dc:	2800      	cmp	r0, #0
 80003de:	d002      	beq.n	80003e6 <__aeabi_uldivmod+0x16>
 80003e0:	2100      	movs	r1, #0
 80003e2:	43c9      	mvns	r1, r1
 80003e4:	0008      	movs	r0, r1
 80003e6:	b407      	push	{r0, r1, r2}
 80003e8:	4802      	ldr	r0, [pc, #8]	@ (80003f4 <__aeabi_uldivmod+0x24>)
 80003ea:	a102      	add	r1, pc, #8	@ (adr r1, 80003f4 <__aeabi_uldivmod+0x24>)
 80003ec:	1840      	adds	r0, r0, r1
 80003ee:	9002      	str	r0, [sp, #8]
 80003f0:	bd03      	pop	{r0, r1, pc}
 80003f2:	46c0      	nop			@ (mov r8, r8)
 80003f4:	ffffffd9 	.word	0xffffffd9
 80003f8:	b403      	push	{r0, r1}
 80003fa:	4668      	mov	r0, sp
 80003fc:	b501      	push	{r0, lr}
 80003fe:	9802      	ldr	r0, [sp, #8]
 8000400:	f003 fbf0 	bl	8003be4 <__udivmoddi4>
 8000404:	9b01      	ldr	r3, [sp, #4]
 8000406:	469e      	mov	lr, r3
 8000408:	b002      	add	sp, #8
 800040a:	bc0c      	pop	{r2, r3}
 800040c:	4770      	bx	lr
 800040e:	46c0      	nop			@ (mov r8, r8)

08000410 <__clzdi2>:
 8000410:	b510      	push	{r4, lr}
 8000412:	2900      	cmp	r1, #0
 8000414:	d103      	bne.n	800041e <__clzdi2+0xe>
 8000416:	f000 f807 	bl	8000428 <__clzsi2>
 800041a:	3020      	adds	r0, #32
 800041c:	e002      	b.n	8000424 <__clzdi2+0x14>
 800041e:	0008      	movs	r0, r1
 8000420:	f000 f802 	bl	8000428 <__clzsi2>
 8000424:	bd10      	pop	{r4, pc}
 8000426:	46c0      	nop			@ (mov r8, r8)

08000428 <__clzsi2>:
 8000428:	211c      	movs	r1, #28
 800042a:	2301      	movs	r3, #1
 800042c:	041b      	lsls	r3, r3, #16
 800042e:	4298      	cmp	r0, r3
 8000430:	d301      	bcc.n	8000436 <__clzsi2+0xe>
 8000432:	0c00      	lsrs	r0, r0, #16
 8000434:	3910      	subs	r1, #16
 8000436:	0a1b      	lsrs	r3, r3, #8
 8000438:	4298      	cmp	r0, r3
 800043a:	d301      	bcc.n	8000440 <__clzsi2+0x18>
 800043c:	0a00      	lsrs	r0, r0, #8
 800043e:	3908      	subs	r1, #8
 8000440:	091b      	lsrs	r3, r3, #4
 8000442:	4298      	cmp	r0, r3
 8000444:	d301      	bcc.n	800044a <__clzsi2+0x22>
 8000446:	0900      	lsrs	r0, r0, #4
 8000448:	3904      	subs	r1, #4
 800044a:	a202      	add	r2, pc, #8	@ (adr r2, 8000454 <__clzsi2+0x2c>)
 800044c:	5c10      	ldrb	r0, [r2, r0]
 800044e:	1840      	adds	r0, r0, r1
 8000450:	4770      	bx	lr
 8000452:	46c0      	nop			@ (mov r8, r8)
 8000454:	02020304 	.word	0x02020304
 8000458:	01010101 	.word	0x01010101
	...

08000464 <__do_global_dtors_aux>:
 8000464:	b510      	push	{r4, lr}
 8000466:	4c06      	ldr	r4, [pc, #24]	@ (8000480 <__do_global_dtors_aux+0x1c>)
 8000468:	7823      	ldrb	r3, [r4, #0]
 800046a:	2b00      	cmp	r3, #0
 800046c:	d107      	bne.n	800047e <__do_global_dtors_aux+0x1a>
 800046e:	4b05      	ldr	r3, [pc, #20]	@ (8000484 <__do_global_dtors_aux+0x20>)
 8000470:	2b00      	cmp	r3, #0
 8000472:	d002      	beq.n	800047a <__do_global_dtors_aux+0x16>
 8000474:	4804      	ldr	r0, [pc, #16]	@ (8000488 <__do_global_dtors_aux+0x24>)
 8000476:	e000      	b.n	800047a <__do_global_dtors_aux+0x16>
 8000478:	bf00      	nop
 800047a:	2301      	movs	r3, #1
 800047c:	7023      	strb	r3, [r4, #0]
 800047e:	bd10      	pop	{r4, pc}
 8000480:	20000068 	.word	0x20000068
 8000484:	00000000 	.word	0x00000000
 8000488:	08003d7c 	.word	0x08003d7c

0800048c <frame_dummy>:
 800048c:	4b04      	ldr	r3, [pc, #16]	@ (80004a0 <frame_dummy+0x14>)
 800048e:	b510      	push	{r4, lr}
 8000490:	2b00      	cmp	r3, #0
 8000492:	d003      	beq.n	800049c <frame_dummy+0x10>
 8000494:	4903      	ldr	r1, [pc, #12]	@ (80004a4 <frame_dummy+0x18>)
 8000496:	4804      	ldr	r0, [pc, #16]	@ (80004a8 <frame_dummy+0x1c>)
 8000498:	e000      	b.n	800049c <frame_dummy+0x10>
 800049a:	bf00      	nop
 800049c:	bd10      	pop	{r4, pc}
 800049e:	46c0      	nop			@ (mov r8, r8)
 80004a0:	00000000 	.word	0x00000000
 80004a4:	2000006c 	.word	0x2000006c
 80004a8:	08003d7c 	.word	0x08003d7c

080004ac <__NVIC_SystemReset>:
 80004ac:	f3bf 8f4f 	dsb	sy
 80004b0:	4b03      	ldr	r3, [pc, #12]	@ (80004c0 <__NVIC_SystemReset+0x14>)
 80004b2:	4a04      	ldr	r2, [pc, #16]	@ (80004c4 <__NVIC_SystemReset+0x18>)
 80004b4:	60da      	str	r2, [r3, #12]
 80004b6:	f3bf 8f4f 	dsb	sy
 80004ba:	46c0      	nop			@ (mov r8, r8)
 80004bc:	e7fd      	b.n	80004ba <__NVIC_SystemReset+0xe>
 80004be:	46c0      	nop			@ (mov r8, r8)
 80004c0:	e000ed00 	.word	0xe000ed00
 80004c4:	05fa0004 	.word	0x05fa0004

080004c8 <MX_GPIO_Init>:
 80004c8:	b510      	push	{r4, lr}
 80004ca:	b088      	sub	sp, #32
 80004cc:	ac03      	add	r4, sp, #12
 80004ce:	2214      	movs	r2, #20
 80004d0:	2100      	movs	r1, #0
 80004d2:	0020      	movs	r0, r4
 80004d4:	f002 fada 	bl	8002a8c <memset>
 80004d8:	4b11      	ldr	r3, [pc, #68]	@ (8000520 <MX_GPIO_Init+0x58>)
 80004da:	6b59      	ldr	r1, [r3, #52]	@ 0x34
 80004dc:	2204      	movs	r2, #4
 80004de:	4311      	orrs	r1, r2
 80004e0:	6359      	str	r1, [r3, #52]	@ 0x34
 80004e2:	6b59      	ldr	r1, [r3, #52]	@ 0x34
 80004e4:	400a      	ands	r2, r1
 80004e6:	9200      	str	r2, [sp, #0]
 80004e8:	9a00      	ldr	r2, [sp, #0]
 80004ea:	6b59      	ldr	r1, [r3, #52]	@ 0x34
 80004ec:	2220      	movs	r2, #32
 80004ee:	4311      	orrs	r1, r2
 80004f0:	6359      	str	r1, [r3, #52]	@ 0x34
 80004f2:	6b59      	ldr	r1, [r3, #52]	@ 0x34
 80004f4:	400a      	ands	r2, r1
 80004f6:	9201      	str	r2, [sp, #4]
 80004f8:	9a01      	ldr	r2, [sp, #4]
 80004fa:	6b59      	ldr	r1, [r3, #52]	@ 0x34
 80004fc:	2201      	movs	r2, #1
 80004fe:	4311      	orrs	r1, r2
 8000500:	6359      	str	r1, [r3, #52]	@ 0x34
 8000502:	6b5b      	ldr	r3, [r3, #52]	@ 0x34
 8000504:	4013      	ands	r3, r2
 8000506:	9302      	str	r3, [sp, #8]
 8000508:	9b02      	ldr	r3, [sp, #8]
 800050a:	2302      	movs	r3, #2
 800050c:	9303      	str	r3, [sp, #12]
 800050e:	9205      	str	r2, [sp, #20]
 8000510:	20a0      	movs	r0, #160	@ 0xa0
 8000512:	0021      	movs	r1, r4
 8000514:	05c0      	lsls	r0, r0, #23
 8000516:	f001 f80f 	bl	8001538 <HAL_GPIO_Init>
 800051a:	b008      	add	sp, #32
 800051c:	bd10      	pop	{r4, pc}
 800051e:	46c0      	nop			@ (mov r8, r8)
 8000520:	40021000 	.word	0x40021000

08000524 <MX_DMA_Init>:
 8000524:	b500      	push	{lr}
 8000526:	b083      	sub	sp, #12
 8000528:	4a09      	ldr	r2, [pc, #36]	@ (8000550 <MX_DMA_Init+0x2c>)
 800052a:	6b91      	ldr	r1, [r2, #56]	@ 0x38
 800052c:	2301      	movs	r3, #1
 800052e:	4319      	orrs	r1, r3
 8000530:	6391      	str	r1, [r2, #56]	@ 0x38
 8000532:	6b92      	ldr	r2, [r2, #56]	@ 0x38
 8000534:	4013      	ands	r3, r2
 8000536:	9301      	str	r3, [sp, #4]
 8000538:	9b01      	ldr	r3, [sp, #4]
 800053a:	2200      	movs	r2, #0
 800053c:	2100      	movs	r1, #0
 800053e:	2009      	movs	r0, #9
 8000540:	f000 feba 	bl	80012b8 <HAL_NVIC_SetPriority>
 8000544:	2009      	movs	r0, #9
 8000546:	f000 febb 	bl	80012c0 <HAL_NVIC_EnableIRQ>
 800054a:	b003      	add	sp, #12
 800054c:	bd00      	pop	{pc}
 800054e:	46c0      	nop			@ (mov r8, r8)
 8000550:	40021000 	.word	0x40021000

08000554 <computeMovingAverage>:
 8000554:	b5f0      	push	{r4, r5, r6, r7, lr}
 8000556:	46c6      	mov	lr, r8
 8000558:	b500      	push	{lr}
 800055a:	b082      	sub	sp, #8
 800055c:	9001      	str	r0, [sp, #4]
 800055e:	4f13      	ldr	r7, [pc, #76]	@ (80005ac <computeMovingAverage+0x58>)
 8000560:	8838      	ldrh	r0, [r7, #0]
 8000562:	4e13      	ldr	r6, [pc, #76]	@ (80005b0 <computeMovingAverage+0x5c>)
 8000564:	0082      	lsls	r2, r0, #2
 8000566:	4690      	mov	r8, r2
 8000568:	58b2      	ldr	r2, [r6, r2]
 800056a:	2300      	movs	r3, #0
 800056c:	4911      	ldr	r1, [pc, #68]	@ (80005b4 <computeMovingAverage+0x60>)
 800056e:	680c      	ldr	r4, [r1, #0]
 8000570:	684d      	ldr	r5, [r1, #4]
 8000572:	1aa4      	subs	r4, r4, r2
 8000574:	419d      	sbcs	r5, r3
 8000576:	600c      	str	r4, [r1, #0]
 8000578:	604d      	str	r5, [r1, #4]
 800057a:	4642      	mov	r2, r8
 800057c:	9b01      	ldr	r3, [sp, #4]
 800057e:	5193      	str	r3, [r2, r6]
 8000580:	9a01      	ldr	r2, [sp, #4]
 8000582:	2300      	movs	r3, #0
 8000584:	18a4      	adds	r4, r4, r2
 8000586:	415d      	adcs	r5, r3
 8000588:	600c      	str	r4, [r1, #0]
 800058a:	604d      	str	r5, [r1, #4]
 800058c:	3001      	adds	r0, #1
 800058e:	2196      	movs	r1, #150	@ 0x96
 8000590:	f7ff ff18 	bl	80003c4 <__aeabi_idivmod>
 8000594:	8039      	strh	r1, [r7, #0]
 8000596:	2296      	movs	r2, #150	@ 0x96
 8000598:	2300      	movs	r3, #0
 800059a:	0020      	movs	r0, r4
 800059c:	0029      	movs	r1, r5
 800059e:	f7ff ff17 	bl	80003d0 <__aeabi_uldivmod>
 80005a2:	b002      	add	sp, #8
 80005a4:	bc80      	pop	{r7}
 80005a6:	46b8      	mov	r8, r7
 80005a8:	bdf0      	pop	{r4, r5, r6, r7, pc}
 80005aa:	46c0      	nop			@ (mov r8, r8)
 80005ac:	20000092 	.word	0x20000092
 80005b0:	20000094 	.word	0x20000094
 80005b4:	20000088 	.word	0x20000088

080005b8 <addRandomNoise>:
 80005b8:	b510      	push	{r4, lr}
 80005ba:	0004      	movs	r4, r0
 80005bc:	f002 f8f6 	bl	80027ac <rand>
 80005c0:	2128      	movs	r1, #40	@ 0x28
 80005c2:	f7ff feff 	bl	80003c4 <__aeabi_idivmod>
 80005c6:	31fa      	adds	r1, #250	@ 0xfa
 80005c8:	1860      	adds	r0, r4, r1
 80005ca:	d405      	bmi.n	80005d8 <addRandomNoise+0x20>
 80005cc:	2380      	movs	r3, #128	@ 0x80
 80005ce:	015b      	lsls	r3, r3, #5
 80005d0:	4298      	cmp	r0, r3
 80005d2:	db02      	blt.n	80005da <addRandomNoise+0x22>
 80005d4:	4801      	ldr	r0, [pc, #4]	@ (80005dc <addRandomNoise+0x24>)
 80005d6:	e000      	b.n	80005da <addRandomNoise+0x22>
 80005d8:	2000      	movs	r0, #0
 80005da:	bd10      	pop	{r4, pc}
 80005dc:	00000fff 	.word	0x00000fff

080005e0 <Error_Handler>:
 80005e0:	b672      	cpsid	i
 80005e2:	e7fe      	b.n	80005e2 <Error_Handler+0x2>

080005e4 <MX_ADC1_Init>:
 80005e4:	b500      	push	{lr}
 80005e6:	b085      	sub	sp, #20
 80005e8:	220c      	movs	r2, #12
 80005ea:	2100      	movs	r1, #0
 80005ec:	a801      	add	r0, sp, #4
 80005ee:	f002 fa4d 	bl	8002a8c <memset>
 80005f2:	4819      	ldr	r0, [pc, #100]	@ (8000658 <MX_ADC1_Init+0x74>)
 80005f4:	4b19      	ldr	r3, [pc, #100]	@ (800065c <MX_ADC1_Init+0x78>)
 80005f6:	6003      	str	r3, [r0, #0]
 80005f8:	2380      	movs	r3, #128	@ 0x80
 80005fa:	05db      	lsls	r3, r3, #23
 80005fc:	6043      	str	r3, [r0, #4]
 80005fe:	2300      	movs	r3, #0
 8000600:	6083      	str	r3, [r0, #8]
 8000602:	60c3      	str	r3, [r0, #12]
 8000604:	2280      	movs	r2, #128	@ 0x80
 8000606:	0612      	lsls	r2, r2, #24
 8000608:	6102      	str	r2, [r0, #16]
 800060a:	2204      	movs	r2, #4
 800060c:	6142      	str	r2, [r0, #20]
 800060e:	7603      	strb	r3, [r0, #24]
 8000610:	7643      	strb	r3, [r0, #25]
 8000612:	7683      	strb	r3, [r0, #26]
 8000614:	3a03      	subs	r2, #3
 8000616:	61c2      	str	r2, [r0, #28]
 8000618:	321f      	adds	r2, #31
 800061a:	5483      	strb	r3, [r0, r2]
 800061c:	6243      	str	r3, [r0, #36]	@ 0x24
 800061e:	6283      	str	r3, [r0, #40]	@ 0x28
 8000620:	320c      	adds	r2, #12
 8000622:	5483      	strb	r3, [r0, r2]
 8000624:	6303      	str	r3, [r0, #48]	@ 0x30
 8000626:	6343      	str	r3, [r0, #52]	@ 0x34
 8000628:	3210      	adds	r2, #16
 800062a:	5483      	strb	r3, [r0, r2]
 800062c:	64c3      	str	r3, [r0, #76]	@ 0x4c
 800062e:	f000 fa0b 	bl	8000a48 <HAL_ADC_Init>
 8000632:	2800      	cmp	r0, #0
 8000634:	d10b      	bne.n	800064e <MX_ADC1_Init+0x6a>
 8000636:	a901      	add	r1, sp, #4
 8000638:	4b09      	ldr	r3, [pc, #36]	@ (8000660 <MX_ADC1_Init+0x7c>)
 800063a:	9301      	str	r3, [sp, #4]
 800063c:	2301      	movs	r3, #1
 800063e:	604b      	str	r3, [r1, #4]
 8000640:	4805      	ldr	r0, [pc, #20]	@ (8000658 <MX_ADC1_Init+0x74>)
 8000642:	f000 fb81 	bl	8000d48 <HAL_ADC_ConfigChannel>
 8000646:	2800      	cmp	r0, #0
 8000648:	d103      	bne.n	8000652 <MX_ADC1_Init+0x6e>
 800064a:	b005      	add	sp, #20
 800064c:	bd00      	pop	{pc}
 800064e:	f7ff ffc7 	bl	80005e0 <Error_Handler>
 8000652:	f7ff ffc5 	bl	80005e0 <Error_Handler>
 8000656:	46c0      	nop			@ (mov r8, r8)
 8000658:	200003dc 	.word	0x200003dc
 800065c:	40012400 	.word	0x40012400
 8000660:	10000010 	.word	0x10000010

08000664 <MX_USART2_UART_Init>:
 8000664:	b510      	push	{r4, lr}
 8000666:	480c      	ldr	r0, [pc, #48]	@ (8000698 <MX_USART2_UART_Init+0x34>)
 8000668:	4b0c      	ldr	r3, [pc, #48]	@ (800069c <MX_USART2_UART_Init+0x38>)
 800066a:	6003      	str	r3, [r0, #0]
 800066c:	23e1      	movs	r3, #225	@ 0xe1
 800066e:	025b      	lsls	r3, r3, #9
 8000670:	6043      	str	r3, [r0, #4]
 8000672:	2300      	movs	r3, #0
 8000674:	6083      	str	r3, [r0, #8]
 8000676:	60c3      	str	r3, [r0, #12]
 8000678:	6103      	str	r3, [r0, #16]
 800067a:	220c      	movs	r2, #12
 800067c:	6142      	str	r2, [r0, #20]
 800067e:	6183      	str	r3, [r0, #24]
 8000680:	61c3      	str	r3, [r0, #28]
 8000682:	6203      	str	r3, [r0, #32]
 8000684:	6243      	str	r3, [r0, #36]	@ 0x24
 8000686:	6283      	str	r3, [r0, #40]	@ 0x28
 8000688:	f001 fec0 	bl	800240c <HAL_UART_Init>
 800068c:	2800      	cmp	r0, #0
 800068e:	d100      	bne.n	8000692 <MX_USART2_UART_Init+0x2e>
 8000690:	bd10      	pop	{r4, pc}
 8000692:	f7ff ffa5 	bl	80005e0 <Error_Handler>
 8000696:	46c0      	nop			@ (mov r8, r8)
 8000698:	200002ec 	.word	0x200002ec
 800069c:	40004400 	.word	0x40004400

080006a0 <SystemClock_Config>:
 80006a0:	b510      	push	{r4, lr}
 80006a2:	b08c      	sub	sp, #48	@ 0x30
 80006a4:	ac05      	add	r4, sp, #20
 80006a6:	221c      	movs	r2, #28
 80006a8:	2100      	movs	r1, #0
 80006aa:	0020      	movs	r0, r4
 80006ac:	f002 f9ee 	bl	8002a8c <memset>
 80006b0:	2214      	movs	r2, #20
 80006b2:	2100      	movs	r1, #0
 80006b4:	4668      	mov	r0, sp
 80006b6:	f002 f9e9 	bl	8002a8c <memset>
 80006ba:	4912      	ldr	r1, [pc, #72]	@ (8000704 <SystemClock_Config+0x64>)
 80006bc:	680b      	ldr	r3, [r1, #0]
 80006be:	2207      	movs	r2, #7
 80006c0:	4393      	bics	r3, r2
 80006c2:	3a06      	subs	r2, #6
 80006c4:	4313      	orrs	r3, r2
 80006c6:	600b      	str	r3, [r1, #0]
 80006c8:	9205      	str	r2, [sp, #20]
 80006ca:	2380      	movs	r3, #128	@ 0x80
 80006cc:	025b      	lsls	r3, r3, #9
 80006ce:	9306      	str	r3, [sp, #24]
 80006d0:	0020      	movs	r0, r4
 80006d2:	f001 f8cd 	bl	8001870 <HAL_RCC_OscConfig>
 80006d6:	2800      	cmp	r0, #0
 80006d8:	d10f      	bne.n	80006fa <SystemClock_Config+0x5a>
 80006da:	4668      	mov	r0, sp
 80006dc:	2307      	movs	r3, #7
 80006de:	9300      	str	r3, [sp, #0]
 80006e0:	3b06      	subs	r3, #6
 80006e2:	9301      	str	r3, [sp, #4]
 80006e4:	2300      	movs	r3, #0
 80006e6:	9302      	str	r3, [sp, #8]
 80006e8:	9303      	str	r3, [sp, #12]
 80006ea:	9304      	str	r3, [sp, #16]
 80006ec:	2101      	movs	r1, #1
 80006ee:	f001 fa4b 	bl	8001b88 <HAL_RCC_ClockConfig>
 80006f2:	2800      	cmp	r0, #0
 80006f4:	d103      	bne.n	80006fe <SystemClock_Config+0x5e>
 80006f6:	b00c      	add	sp, #48	@ 0x30
 80006f8:	bd10      	pop	{r4, pc}
 80006fa:	f7ff ff71 	bl	80005e0 <Error_Handler>
 80006fe:	f7ff ff6f 	bl	80005e0 <Error_Handler>
 8000702:	46c0      	nop			@ (mov r8, r8)
 8000704:	40022000 	.word	0x40022000

08000708 <main>:
 8000708:	b5f0      	push	{r4, r5, r6, r7, lr}
 800070a:	46de      	mov	lr, fp
 800070c:	4657      	mov	r7, sl
 800070e:	464e      	mov	r6, r9
 8000710:	4645      	mov	r5, r8
 8000712:	b5e0      	push	{r5, r6, r7, lr}
 8000714:	b09b      	sub	sp, #108	@ 0x6c
 8000716:	f000 f967 	bl	80009e8 <HAL_Init>
 800071a:	f7ff ffc1 	bl	80006a0 <SystemClock_Config>
 800071e:	f7ff fed3 	bl	80004c8 <MX_GPIO_Init>
 8000722:	f7ff feff 	bl	8000524 <MX_DMA_Init>
 8000726:	f7ff ff5d 	bl	80005e4 <MX_ADC1_Init>
 800072a:	f7ff ff9b 	bl	8000664 <MX_USART2_UART_Init>
 800072e:	2000      	movs	r0, #0
 8000730:	f001 feba 	bl	80024a8 <BSP_LED_Init>
 8000734:	2000      	movs	r0, #0
 8000736:	f001 feb7 	bl	80024a8 <BSP_LED_Init>
 800073a:	2101      	movs	r1, #1
 800073c:	2000      	movs	r0, #0
 800073e:	f001 ff4d 	bl	80025dc <BSP_PB_Init>
 8000742:	e035      	b.n	80007b0 <main+0xa8>
 8000744:	ac01      	add	r4, sp, #4
 8000746:	4b7f      	ldr	r3, [pc, #508]	@ (8000944 <main+0x23c>)
 8000748:	0022      	movs	r2, r4
 800074a:	cb23      	ldmia	r3!, {r0, r1, r5}
 800074c:	c223      	stmia	r2!, {r0, r1, r5}
 800074e:	6819      	ldr	r1, [r3, #0]
 8000750:	6011      	str	r1, [r2, #0]
 8000752:	889b      	ldrh	r3, [r3, #4]
 8000754:	8093      	strh	r3, [r2, #4]
 8000756:	0020      	movs	r0, r4
 8000758:	f7ff fcb2 	bl	80000c0 <strlen>
 800075c:	2301      	movs	r3, #1
 800075e:	b282      	uxth	r2, r0
 8000760:	4879      	ldr	r0, [pc, #484]	@ (8000948 <main+0x240>)
 8000762:	425b      	negs	r3, r3
 8000764:	0021      	movs	r1, r4
 8000766:	f001 fd6a 	bl	800223e <HAL_UART_Transmit>
 800076a:	4b78      	ldr	r3, [pc, #480]	@ (800094c <main+0x244>)
 800076c:	2200      	movs	r2, #0
 800076e:	701a      	strb	r2, [r3, #0]
 8000770:	e022      	b.n	80007b8 <main+0xb0>
 8000772:	2800      	cmp	r0, #0
 8000774:	d129      	bne.n	80007ca <main+0xc2>
 8000776:	4b76      	ldr	r3, [pc, #472]	@ (8000950 <main+0x248>)
 8000778:	781b      	ldrb	r3, [r3, #0]
 800077a:	2b05      	cmp	r3, #5
 800077c:	d825      	bhi.n	80007ca <main+0xc2>
 800077e:	009b      	lsls	r3, r3, #2
 8000780:	4a74      	ldr	r2, [pc, #464]	@ (8000954 <main+0x24c>)
 8000782:	58d3      	ldr	r3, [r2, r3]
 8000784:	469f      	mov	pc, r3
 8000786:	4b72      	ldr	r3, [pc, #456]	@ (8000950 <main+0x248>)
 8000788:	2202      	movs	r2, #2
 800078a:	701a      	strb	r2, [r3, #0]
 800078c:	e01d      	b.n	80007ca <main+0xc2>
 800078e:	4b70      	ldr	r3, [pc, #448]	@ (8000950 <main+0x248>)
 8000790:	2203      	movs	r2, #3
 8000792:	701a      	strb	r2, [r3, #0]
 8000794:	e019      	b.n	80007ca <main+0xc2>
 8000796:	4b6e      	ldr	r3, [pc, #440]	@ (8000950 <main+0x248>)
 8000798:	2202      	movs	r2, #2
 800079a:	701a      	strb	r2, [r3, #0]
 800079c:	e015      	b.n	80007ca <main+0xc2>
 800079e:	4b6c      	ldr	r3, [pc, #432]	@ (8000950 <main+0x248>)
 80007a0:	2201      	movs	r2, #1
 80007a2:	701a      	strb	r2, [r3, #0]
 80007a4:	e011      	b.n	80007ca <main+0xc2>
 80007a6:	f7ff fe81 	bl	80004ac <__NVIC_SystemReset>
 80007aa:	4b69      	ldr	r3, [pc, #420]	@ (8000950 <main+0x248>)
 80007ac:	2201      	movs	r2, #1
 80007ae:	701a      	strb	r2, [r3, #0]
 80007b0:	4b66      	ldr	r3, [pc, #408]	@ (800094c <main+0x244>)
 80007b2:	781b      	ldrb	r3, [r3, #0]
 80007b4:	2b00      	cmp	r3, #0
 80007b6:	d1c5      	bne.n	8000744 <main+0x3c>
 80007b8:	2180      	movs	r1, #128	@ 0x80
 80007ba:	0189      	lsls	r1, r1, #6
 80007bc:	4866      	ldr	r0, [pc, #408]	@ (8000958 <main+0x250>)
 80007be:	f000 ff99 	bl	80016f4 <HAL_GPIO_ReadPin>
 80007c2:	4b66      	ldr	r3, [pc, #408]	@ (800095c <main+0x254>)
 80007c4:	781b      	ldrb	r3, [r3, #0]
 80007c6:	2b01      	cmp	r3, #1
 80007c8:	d0d3      	beq.n	8000772 <main+0x6a>
 80007ca:	4b64      	ldr	r3, [pc, #400]	@ (800095c <main+0x254>)
 80007cc:	7018      	strb	r0, [r3, #0]
 80007ce:	4b60      	ldr	r3, [pc, #384]	@ (8000950 <main+0x248>)
 80007d0:	781a      	ldrb	r2, [r3, #0]
 80007d2:	2a05      	cmp	r2, #5
 80007d4:	d8ec      	bhi.n	80007b0 <main+0xa8>
 80007d6:	0093      	lsls	r3, r2, #2
 80007d8:	4a61      	ldr	r2, [pc, #388]	@ (8000960 <main+0x258>)
 80007da:	58d3      	ldr	r3, [r2, r3]
 80007dc:	469f      	mov	pc, r3
 80007de:	2000      	movs	r0, #0
 80007e0:	f001 fec6 	bl	8002570 <BSP_LED_Off>
 80007e4:	2064      	movs	r0, #100	@ 0x64
 80007e6:	f000 f91d 	bl	8000a24 <HAL_Delay>
 80007ea:	e7e1      	b.n	80007b0 <main+0xa8>
 80007ec:	2000      	movs	r0, #0
 80007ee:	f001 fe9d 	bl	800252c <BSP_LED_On>
 80007f2:	4c5c      	ldr	r4, [pc, #368]	@ (8000964 <main+0x25c>)
 80007f4:	0020      	movs	r0, r4
 80007f6:	f000 fc77 	bl	80010e8 <HAL_ADC_Start>
 80007fa:	2701      	movs	r7, #1
 80007fc:	427f      	negs	r7, r7
 80007fe:	0039      	movs	r1, r7
 8000800:	0020      	movs	r0, r4
 8000802:	f000 fa41 	bl	8000c88 <HAL_ADC_PollForConversion>
 8000806:	0020      	movs	r0, r4
 8000808:	f000 fa9a 	bl	8000d40 <HAL_ADC_GetValue>
 800080c:	0005      	movs	r5, r0
 800080e:	0020      	movs	r0, r4
 8000810:	f000 fce4 	bl	80011dc <HAL_ADC_Stop>
 8000814:	0028      	movs	r0, r5
 8000816:	f7ff fe9d 	bl	8000554 <computeMovingAverage>
 800081a:	4681      	mov	r9, r0
 800081c:	0028      	movs	r0, r5
 800081e:	f7ff fecb 	bl	80005b8 <addRandomNoise>
 8000822:	4680      	mov	r8, r0
 8000824:	4c50      	ldr	r4, [pc, #320]	@ (8000968 <main+0x260>)
 8000826:	0020      	movs	r0, r4
 8000828:	4368      	muls	r0, r5
 800082a:	4950      	ldr	r1, [pc, #320]	@ (800096c <main+0x264>)
 800082c:	f7ff fc5a 	bl	80000e4 <__udivsi3>
 8000830:	0006      	movs	r6, r0
 8000832:	4648      	mov	r0, r9
 8000834:	4360      	muls	r0, r4
 8000836:	494d      	ldr	r1, [pc, #308]	@ (800096c <main+0x264>)
 8000838:	f7ff fc54 	bl	80000e4 <__udivsi3>
 800083c:	4683      	mov	fp, r0
 800083e:	4640      	mov	r0, r8
 8000840:	4360      	muls	r0, r4
 8000842:	494a      	ldr	r1, [pc, #296]	@ (800096c <main+0x264>)
 8000844:	f7ff fc4e 	bl	80000e4 <__udivsi3>
 8000848:	4682      	mov	sl, r0
 800084a:	4949      	ldr	r1, [pc, #292]	@ (8000970 <main+0x268>)
 800084c:	ac01      	add	r4, sp, #4
 800084e:	0033      	movs	r3, r6
 8000850:	002a      	movs	r2, r5
 8000852:	0020      	movs	r0, r4
 8000854:	f002 f8ac 	bl	80029b0 <siprintf>
 8000858:	0020      	movs	r0, r4
 800085a:	f7ff fc31 	bl	80000c0 <strlen>
 800085e:	b282      	uxth	r2, r0
 8000860:	4e39      	ldr	r6, [pc, #228]	@ (8000948 <main+0x240>)
 8000862:	003b      	movs	r3, r7
 8000864:	0021      	movs	r1, r4
 8000866:	0030      	movs	r0, r6
 8000868:	f001 fce9 	bl	800223e <HAL_UART_Transmit>
 800086c:	4941      	ldr	r1, [pc, #260]	@ (8000974 <main+0x26c>)
 800086e:	465b      	mov	r3, fp
 8000870:	464a      	mov	r2, r9
 8000872:	0020      	movs	r0, r4
 8000874:	f002 f89c 	bl	80029b0 <siprintf>
 8000878:	0020      	movs	r0, r4
 800087a:	f7ff fc21 	bl	80000c0 <strlen>
 800087e:	b282      	uxth	r2, r0
 8000880:	003b      	movs	r3, r7
 8000882:	0021      	movs	r1, r4
 8000884:	0030      	movs	r0, r6
 8000886:	f001 fcda 	bl	800223e <HAL_UART_Transmit>
 800088a:	493b      	ldr	r1, [pc, #236]	@ (8000978 <main+0x270>)
 800088c:	4653      	mov	r3, sl
 800088e:	4642      	mov	r2, r8
 8000890:	0020      	movs	r0, r4
 8000892:	f002 f88d 	bl	80029b0 <siprintf>
 8000896:	0020      	movs	r0, r4
 8000898:	f7ff fc12 	bl	80000c0 <strlen>
 800089c:	b282      	uxth	r2, r0
 800089e:	003b      	movs	r3, r7
 80008a0:	0021      	movs	r1, r4
 80008a2:	0030      	movs	r0, r6
 80008a4:	f001 fccb 	bl	800223e <HAL_UART_Transmit>
 80008a8:	4b34      	ldr	r3, [pc, #208]	@ (800097c <main+0x274>)
 80008aa:	429d      	cmp	r5, r3
 80008ac:	d906      	bls.n	80008bc <main+0x1b4>
 80008ae:	4b28      	ldr	r3, [pc, #160]	@ (8000950 <main+0x248>)
 80008b0:	2205      	movs	r2, #5
 80008b2:	701a      	strb	r2, [r3, #0]
 80008b4:	2064      	movs	r0, #100	@ 0x64
 80008b6:	f000 f8b5 	bl	8000a24 <HAL_Delay>
 80008ba:	e779      	b.n	80007b0 <main+0xa8>
 80008bc:	23fa      	movs	r3, #250	@ 0xfa
 80008be:	00db      	lsls	r3, r3, #3
 80008c0:	429d      	cmp	r5, r3
 80008c2:	d917      	bls.n	80008f4 <main+0x1ec>
 80008c4:	4b2e      	ldr	r3, [pc, #184]	@ (8000980 <main+0x278>)
 80008c6:	681b      	ldr	r3, [r3, #0]
 80008c8:	2b00      	cmp	r3, #0
 80008ca:	d104      	bne.n	80008d6 <main+0x1ce>
 80008cc:	f000 f8a4 	bl	8000a18 <HAL_GetTick>
 80008d0:	4b2b      	ldr	r3, [pc, #172]	@ (8000980 <main+0x278>)
 80008d2:	6018      	str	r0, [r3, #0]
 80008d4:	e7ee      	b.n	80008b4 <main+0x1ac>
 80008d6:	f000 f89f 	bl	8000a18 <HAL_GetTick>
 80008da:	4b29      	ldr	r3, [pc, #164]	@ (8000980 <main+0x278>)
 80008dc:	681b      	ldr	r3, [r3, #0]
 80008de:	1ac0      	subs	r0, r0, r3
 80008e0:	4b28      	ldr	r3, [pc, #160]	@ (8000984 <main+0x27c>)
 80008e2:	4298      	cmp	r0, r3
 80008e4:	d9e6      	bls.n	80008b4 <main+0x1ac>
 80008e6:	4b1a      	ldr	r3, [pc, #104]	@ (8000950 <main+0x248>)
 80008e8:	2204      	movs	r2, #4
 80008ea:	701a      	strb	r2, [r3, #0]
 80008ec:	4b24      	ldr	r3, [pc, #144]	@ (8000980 <main+0x278>)
 80008ee:	2200      	movs	r2, #0
 80008f0:	601a      	str	r2, [r3, #0]
 80008f2:	e7df      	b.n	80008b4 <main+0x1ac>
 80008f4:	4b22      	ldr	r3, [pc, #136]	@ (8000980 <main+0x278>)
 80008f6:	2200      	movs	r2, #0
 80008f8:	601a      	str	r2, [r3, #0]
 80008fa:	e7db      	b.n	80008b4 <main+0x1ac>
 80008fc:	2000      	movs	r0, #0
 80008fe:	f001 fe59 	bl	80025b4 <BSP_LED_Toggle>
 8000902:	20fa      	movs	r0, #250	@ 0xfa
 8000904:	0040      	lsls	r0, r0, #1
 8000906:	f000 f88d 	bl	8000a24 <HAL_Delay>
 800090a:	e751      	b.n	80007b0 <main+0xa8>
 800090c:	2000      	movs	r0, #0
 800090e:	f001 fe2f 	bl	8002570 <BSP_LED_Off>
 8000912:	2301      	movs	r3, #1
 8000914:	491c      	ldr	r1, [pc, #112]	@ (8000988 <main+0x280>)
 8000916:	480c      	ldr	r0, [pc, #48]	@ (8000948 <main+0x240>)
 8000918:	425b      	negs	r3, r3
 800091a:	2209      	movs	r2, #9
 800091c:	f001 fc8f 	bl	800223e <HAL_UART_Transmit>
 8000920:	20c8      	movs	r0, #200	@ 0xc8
 8000922:	f000 f87f 	bl	8000a24 <HAL_Delay>
 8000926:	e743      	b.n	80007b0 <main+0xa8>
 8000928:	2000      	movs	r0, #0
 800092a:	f001 fe43 	bl	80025b4 <BSP_LED_Toggle>
 800092e:	2301      	movs	r3, #1
 8000930:	4916      	ldr	r1, [pc, #88]	@ (800098c <main+0x284>)
 8000932:	4805      	ldr	r0, [pc, #20]	@ (8000948 <main+0x240>)
 8000934:	425b      	negs	r3, r3
 8000936:	2207      	movs	r2, #7
 8000938:	f001 fc81 	bl	800223e <HAL_UART_Transmit>
 800093c:	20c8      	movs	r0, #200	@ 0xc8
 800093e:	f000 f871 	bl	8000a24 <HAL_Delay>
 8000942:	e735      	b.n	80007b0 <main+0xa8>
 8000944:	08003d94 	.word	0x08003d94
 8000948:	200002ec 	.word	0x200002ec
 800094c:	20000091 	.word	0x20000091
 8000950:	20000090 	.word	0x20000090
 8000954:	08003e20 	.word	0x08003e20
 8000958:	50000800 	.word	0x50000800
 800095c:	20000000 	.word	0x20000000
 8000960:	08003e38 	.word	0x08003e38
 8000964:	200003dc 	.word	0x200003dc
 8000968:	00000ce4 	.word	0x00000ce4
 800096c:	00000fff 	.word	0x00000fff
 8000970:	08003da8 	.word	0x08003da8
 8000974:	08003dc8 	.word	0x08003dc8
 8000978:	08003de8 	.word	0x08003de8
 800097c:	00000bb8 	.word	0x00000bb8
 8000980:	20000084 	.word	0x20000084
 8000984:	00001387 	.word	0x00001387
 8000988:	08003e0c 	.word	0x08003e0c
 800098c:	08003e18 	.word	0x08003e18

08000990 <HAL_InitTick>:
 8000990:	b510      	push	{r4, lr}
 8000992:	0004      	movs	r4, r0
 8000994:	4b11      	ldr	r3, [pc, #68]	@ (80009dc <HAL_InitTick+0x4c>)
 8000996:	7819      	ldrb	r1, [r3, #0]
 8000998:	2900      	cmp	r1, #0
 800099a:	d101      	bne.n	80009a0 <HAL_InitTick+0x10>
 800099c:	2001      	movs	r0, #1
 800099e:	bd10      	pop	{r4, pc}
 80009a0:	20fa      	movs	r0, #250	@ 0xfa
 80009a2:	0080      	lsls	r0, r0, #2
 80009a4:	f7ff fb9e 	bl	80000e4 <__udivsi3>
 80009a8:	0001      	movs	r1, r0
 80009aa:	4b0d      	ldr	r3, [pc, #52]	@ (80009e0 <HAL_InitTick+0x50>)
 80009ac:	6818      	ldr	r0, [r3, #0]
 80009ae:	f7ff fb99 	bl	80000e4 <__udivsi3>
 80009b2:	f000 fc91 	bl	80012d8 <HAL_SYSTICK_Config>
 80009b6:	2800      	cmp	r0, #0
 80009b8:	d10d      	bne.n	80009d6 <HAL_InitTick+0x46>
 80009ba:	2c03      	cmp	r4, #3
 80009bc:	d901      	bls.n	80009c2 <HAL_InitTick+0x32>
 80009be:	2001      	movs	r0, #1
 80009c0:	e7ed      	b.n	800099e <HAL_InitTick+0xe>
 80009c2:	3001      	adds	r0, #1
 80009c4:	2200      	movs	r2, #0
 80009c6:	0021      	movs	r1, r4
 80009c8:	4240      	negs	r0, r0
 80009ca:	f000 fc75 	bl	80012b8 <HAL_NVIC_SetPriority>
 80009ce:	4b05      	ldr	r3, [pc, #20]	@ (80009e4 <HAL_InitTick+0x54>)
 80009d0:	601c      	str	r4, [r3, #0]
 80009d2:	2000      	movs	r0, #0
 80009d4:	e7e3      	b.n	800099e <HAL_InitTick+0xe>
 80009d6:	2001      	movs	r0, #1
 80009d8:	e7e1      	b.n	800099e <HAL_InitTick+0xe>
 80009da:	46c0      	nop			@ (mov r8, r8)
 80009dc:	20000001 	.word	0x20000001
 80009e0:	20000008 	.word	0x20000008
 80009e4:	20000004 	.word	0x20000004

080009e8 <HAL_Init>:
 80009e8:	b510      	push	{r4, lr}
 80009ea:	2003      	movs	r0, #3
 80009ec:	f7ff ffd0 	bl	8000990 <HAL_InitTick>
 80009f0:	1e04      	subs	r4, r0, #0
 80009f2:	d002      	beq.n	80009fa <HAL_Init+0x12>
 80009f4:	2401      	movs	r4, #1
 80009f6:	0020      	movs	r0, r4
 80009f8:	bd10      	pop	{r4, pc}
 80009fa:	f000 fe91 	bl	8001720 <HAL_MspInit>
 80009fe:	e7fa      	b.n	80009f6 <HAL_Init+0xe>

08000a00 <HAL_IncTick>:
 8000a00:	4b03      	ldr	r3, [pc, #12]	@ (8000a10 <HAL_IncTick+0x10>)
 8000a02:	781b      	ldrb	r3, [r3, #0]
 8000a04:	4a03      	ldr	r2, [pc, #12]	@ (8000a14 <HAL_IncTick+0x14>)
 8000a06:	6811      	ldr	r1, [r2, #0]
 8000a08:	185b      	adds	r3, r3, r1
 8000a0a:	6013      	str	r3, [r2, #0]
 8000a0c:	4770      	bx	lr
 8000a0e:	46c0      	nop			@ (mov r8, r8)
 8000a10:	20000001 	.word	0x20000001
 8000a14:	20000440 	.word	0x20000440

08000a18 <HAL_GetTick>:
 8000a18:	4b01      	ldr	r3, [pc, #4]	@ (8000a20 <HAL_GetTick+0x8>)
 8000a1a:	6818      	ldr	r0, [r3, #0]
 8000a1c:	4770      	bx	lr
 8000a1e:	46c0      	nop			@ (mov r8, r8)
 8000a20:	20000440 	.word	0x20000440

08000a24 <HAL_Delay>:
 8000a24:	b570      	push	{r4, r5, r6, lr}
 8000a26:	0004      	movs	r4, r0
 8000a28:	f7ff fff6 	bl	8000a18 <HAL_GetTick>
 8000a2c:	0005      	movs	r5, r0
 8000a2e:	1c63      	adds	r3, r4, #1
 8000a30:	d002      	beq.n	8000a38 <HAL_Delay+0x14>
 8000a32:	4b04      	ldr	r3, [pc, #16]	@ (8000a44 <HAL_Delay+0x20>)
 8000a34:	781b      	ldrb	r3, [r3, #0]
 8000a36:	18e4      	adds	r4, r4, r3
 8000a38:	f7ff ffee 	bl	8000a18 <HAL_GetTick>
 8000a3c:	1b40      	subs	r0, r0, r5
 8000a3e:	42a0      	cmp	r0, r4
 8000a40:	d3fa      	bcc.n	8000a38 <HAL_Delay+0x14>
 8000a42:	bd70      	pop	{r4, r5, r6, pc}
 8000a44:	20000001 	.word	0x20000001

08000a48 <HAL_ADC_Init>:
 8000a48:	b530      	push	{r4, r5, lr}
 8000a4a:	b083      	sub	sp, #12
 8000a4c:	0004      	movs	r4, r0
 8000a4e:	2300      	movs	r3, #0
 8000a50:	9301      	str	r3, [sp, #4]
 8000a52:	2800      	cmp	r0, #0
 8000a54:	d100      	bne.n	8000a58 <HAL_ADC_Init+0x10>
 8000a56:	e105      	b.n	8000c64 <HAL_ADC_Init+0x21c>
 8000a58:	6d83      	ldr	r3, [r0, #88]	@ 0x58
 8000a5a:	2b00      	cmp	r3, #0
 8000a5c:	d012      	beq.n	8000a84 <HAL_ADC_Init+0x3c>
 8000a5e:	6823      	ldr	r3, [r4, #0]
 8000a60:	689a      	ldr	r2, [r3, #8]
 8000a62:	00d2      	lsls	r2, r2, #3
 8000a64:	d41b      	bmi.n	8000a9e <HAL_ADC_Init+0x56>
 8000a66:	6899      	ldr	r1, [r3, #8]
 8000a68:	4a7f      	ldr	r2, [pc, #508]	@ (8000c68 <HAL_ADC_Init+0x220>)
 8000a6a:	4011      	ands	r1, r2
 8000a6c:	2280      	movs	r2, #128	@ 0x80
 8000a6e:	0552      	lsls	r2, r2, #21
 8000a70:	430a      	orrs	r2, r1
 8000a72:	609a      	str	r2, [r3, #8]
 8000a74:	4b7d      	ldr	r3, [pc, #500]	@ (8000c6c <HAL_ADC_Init+0x224>)
 8000a76:	6818      	ldr	r0, [r3, #0]
 8000a78:	497d      	ldr	r1, [pc, #500]	@ (8000c70 <HAL_ADC_Init+0x228>)
 8000a7a:	f7ff fb33 	bl	80000e4 <__udivsi3>
 8000a7e:	0040      	lsls	r0, r0, #1
 8000a80:	9001      	str	r0, [sp, #4]
 8000a82:	e009      	b.n	8000a98 <HAL_ADC_Init+0x50>
 8000a84:	f000 fe64 	bl	8001750 <HAL_ADC_MspInit>
 8000a88:	2300      	movs	r3, #0
 8000a8a:	65e3      	str	r3, [r4, #92]	@ 0x5c
 8000a8c:	2254      	movs	r2, #84	@ 0x54
 8000a8e:	54a3      	strb	r3, [r4, r2]
 8000a90:	e7e5      	b.n	8000a5e <HAL_ADC_Init+0x16>
 8000a92:	9b01      	ldr	r3, [sp, #4]
 8000a94:	3b01      	subs	r3, #1
 8000a96:	9301      	str	r3, [sp, #4]
 8000a98:	9b01      	ldr	r3, [sp, #4]
 8000a9a:	2b00      	cmp	r3, #0
 8000a9c:	d1f9      	bne.n	8000a92 <HAL_ADC_Init+0x4a>
 8000a9e:	6823      	ldr	r3, [r4, #0]
 8000aa0:	689a      	ldr	r2, [r3, #8]
 8000aa2:	00d2      	lsls	r2, r2, #3
 8000aa4:	d500      	bpl.n	8000aa8 <HAL_ADC_Init+0x60>
 8000aa6:	e09d      	b.n	8000be4 <HAL_ADC_Init+0x19c>
 8000aa8:	6da2      	ldr	r2, [r4, #88]	@ 0x58
 8000aaa:	2110      	movs	r1, #16
 8000aac:	430a      	orrs	r2, r1
 8000aae:	65a2      	str	r2, [r4, #88]	@ 0x58
 8000ab0:	6de2      	ldr	r2, [r4, #92]	@ 0x5c
 8000ab2:	390f      	subs	r1, #15
 8000ab4:	430a      	orrs	r2, r1
 8000ab6:	65e2      	str	r2, [r4, #92]	@ 0x5c
 8000ab8:	2001      	movs	r0, #1
 8000aba:	689a      	ldr	r2, [r3, #8]
 8000abc:	2104      	movs	r1, #4
 8000abe:	000d      	movs	r5, r1
 8000ac0:	4015      	ands	r5, r2
 8000ac2:	4211      	tst	r1, r2
 8000ac4:	d000      	beq.n	8000ac8 <HAL_ADC_Init+0x80>
 8000ac6:	2501      	movs	r5, #1
 8000ac8:	6da2      	ldr	r2, [r4, #88]	@ 0x58
 8000aca:	06d2      	lsls	r2, r2, #27
 8000acc:	d500      	bpl.n	8000ad0 <HAL_ADC_Init+0x88>
 8000ace:	e0c2      	b.n	8000c56 <HAL_ADC_Init+0x20e>
 8000ad0:	2d00      	cmp	r5, #0
 8000ad2:	d000      	beq.n	8000ad6 <HAL_ADC_Init+0x8e>
 8000ad4:	e0bf      	b.n	8000c56 <HAL_ADC_Init+0x20e>
 8000ad6:	6da2      	ldr	r2, [r4, #88]	@ 0x58
 8000ad8:	4966      	ldr	r1, [pc, #408]	@ (8000c74 <HAL_ADC_Init+0x22c>)
 8000ada:	400a      	ands	r2, r1
 8000adc:	3106      	adds	r1, #6
 8000ade:	31ff      	adds	r1, #255	@ 0xff
 8000ae0:	430a      	orrs	r2, r1
 8000ae2:	65a2      	str	r2, [r4, #88]	@ 0x58
 8000ae4:	689a      	ldr	r2, [r3, #8]
 8000ae6:	07d2      	lsls	r2, r2, #31
 8000ae8:	d452      	bmi.n	8000b90 <HAL_ADC_Init+0x148>
 8000aea:	68a2      	ldr	r2, [r4, #8]
 8000aec:	7e21      	ldrb	r1, [r4, #24]
 8000aee:	0389      	lsls	r1, r1, #14
 8000af0:	430a      	orrs	r2, r1
 8000af2:	7e61      	ldrb	r1, [r4, #25]
 8000af4:	03c9      	lsls	r1, r1, #15
 8000af6:	430a      	orrs	r2, r1
 8000af8:	7ea5      	ldrb	r5, [r4, #26]
 8000afa:	0369      	lsls	r1, r5, #13
 8000afc:	430a      	orrs	r2, r1
 8000afe:	6b21      	ldr	r1, [r4, #48]	@ 0x30
 8000b00:	2900      	cmp	r1, #0
 8000b02:	d001      	beq.n	8000b08 <HAL_ADC_Init+0xc0>
 8000b04:	2180      	movs	r1, #128	@ 0x80
 8000b06:	0149      	lsls	r1, r1, #5
 8000b08:	430a      	orrs	r2, r1
 8000b0a:	68e1      	ldr	r1, [r4, #12]
 8000b0c:	430a      	orrs	r2, r1
 8000b0e:	6921      	ldr	r1, [r4, #16]
 8000b10:	2900      	cmp	r1, #0
 8000b12:	db69      	blt.n	8000be8 <HAL_ADC_Init+0x1a0>
 8000b14:	2180      	movs	r1, #128	@ 0x80
 8000b16:	0389      	lsls	r1, r1, #14
 8000b18:	430a      	orrs	r2, r1
 8000b1a:	212c      	movs	r1, #44	@ 0x2c
 8000b1c:	5c61      	ldrb	r1, [r4, r1]
 8000b1e:	0049      	lsls	r1, r1, #1
 8000b20:	430a      	orrs	r2, r1
 8000b22:	2120      	movs	r1, #32
 8000b24:	5c61      	ldrb	r1, [r4, r1]
 8000b26:	2901      	cmp	r1, #1
 8000b28:	d061      	beq.n	8000bee <HAL_ADC_Init+0x1a6>
 8000b2a:	6a61      	ldr	r1, [r4, #36]	@ 0x24
 8000b2c:	2900      	cmp	r1, #0
 8000b2e:	d005      	beq.n	8000b3c <HAL_ADC_Init+0xf4>
 8000b30:	25e0      	movs	r5, #224	@ 0xe0
 8000b32:	006d      	lsls	r5, r5, #1
 8000b34:	4029      	ands	r1, r5
 8000b36:	6aa5      	ldr	r5, [r4, #40]	@ 0x28
 8000b38:	4329      	orrs	r1, r5
 8000b3a:	430a      	orrs	r2, r1
 8000b3c:	68d9      	ldr	r1, [r3, #12]
 8000b3e:	4d4e      	ldr	r5, [pc, #312]	@ (8000c78 <HAL_ADC_Init+0x230>)
 8000b40:	4029      	ands	r1, r5
 8000b42:	430a      	orrs	r2, r1
 8000b44:	60da      	str	r2, [r3, #12]
 8000b46:	6863      	ldr	r3, [r4, #4]
 8000b48:	0f9b      	lsrs	r3, r3, #30
 8000b4a:	079b      	lsls	r3, r3, #30
 8000b4c:	6ce2      	ldr	r2, [r4, #76]	@ 0x4c
 8000b4e:	431a      	orrs	r2, r3
 8000b50:	213c      	movs	r1, #60	@ 0x3c
 8000b52:	5c61      	ldrb	r1, [r4, r1]
 8000b54:	2901      	cmp	r1, #1
 8000b56:	d059      	beq.n	8000c0c <HAL_ADC_Init+0x1c4>
 8000b58:	6821      	ldr	r1, [r4, #0]
 8000b5a:	690b      	ldr	r3, [r1, #16]
 8000b5c:	4d47      	ldr	r5, [pc, #284]	@ (8000c7c <HAL_ADC_Init+0x234>)
 8000b5e:	402b      	ands	r3, r5
 8000b60:	4313      	orrs	r3, r2
 8000b62:	610b      	str	r3, [r1, #16]
 8000b64:	6863      	ldr	r3, [r4, #4]
 8000b66:	22c0      	movs	r2, #192	@ 0xc0
 8000b68:	0612      	lsls	r2, r2, #24
 8000b6a:	4293      	cmp	r3, r2
 8000b6c:	d010      	beq.n	8000b90 <HAL_ADC_Init+0x148>
 8000b6e:	2280      	movs	r2, #128	@ 0x80
 8000b70:	05d2      	lsls	r2, r2, #23
 8000b72:	4293      	cmp	r3, r2
 8000b74:	d00c      	beq.n	8000b90 <HAL_ADC_Init+0x148>
 8000b76:	2280      	movs	r2, #128	@ 0x80
 8000b78:	0612      	lsls	r2, r2, #24
 8000b7a:	4293      	cmp	r3, r2
 8000b7c:	d008      	beq.n	8000b90 <HAL_ADC_Init+0x148>
 8000b7e:	4940      	ldr	r1, [pc, #256]	@ (8000c80 <HAL_ADC_Init+0x238>)
 8000b80:	680a      	ldr	r2, [r1, #0]
 8000b82:	4d40      	ldr	r5, [pc, #256]	@ (8000c84 <HAL_ADC_Init+0x23c>)
 8000b84:	402a      	ands	r2, r5
 8000b86:	25f0      	movs	r5, #240	@ 0xf0
 8000b88:	03ad      	lsls	r5, r5, #14
 8000b8a:	402b      	ands	r3, r5
 8000b8c:	4313      	orrs	r3, r2
 8000b8e:	600b      	str	r3, [r1, #0]
 8000b90:	6821      	ldr	r1, [r4, #0]
 8000b92:	6b63      	ldr	r3, [r4, #52]	@ 0x34
 8000b94:	694a      	ldr	r2, [r1, #20]
 8000b96:	2507      	movs	r5, #7
 8000b98:	43aa      	bics	r2, r5
 8000b9a:	4313      	orrs	r3, r2
 8000b9c:	614b      	str	r3, [r1, #20]
 8000b9e:	6821      	ldr	r1, [r4, #0]
 8000ba0:	6ba2      	ldr	r2, [r4, #56]	@ 0x38
 8000ba2:	694b      	ldr	r3, [r1, #20]
 8000ba4:	3569      	adds	r5, #105	@ 0x69
 8000ba6:	43ab      	bics	r3, r5
 8000ba8:	0112      	lsls	r2, r2, #4
 8000baa:	4313      	orrs	r3, r2
 8000bac:	614b      	str	r3, [r1, #20]
 8000bae:	6923      	ldr	r3, [r4, #16]
 8000bb0:	2b00      	cmp	r3, #0
 8000bb2:	d135      	bne.n	8000c20 <HAL_ADC_Init+0x1d8>
 8000bb4:	6822      	ldr	r2, [r4, #0]
 8000bb6:	6a91      	ldr	r1, [r2, #40]	@ 0x28
 8000bb8:	3b10      	subs	r3, #16
 8000bba:	430b      	orrs	r3, r1
 8000bbc:	6293      	str	r3, [r2, #40]	@ 0x28
 8000bbe:	6823      	ldr	r3, [r4, #0]
 8000bc0:	695a      	ldr	r2, [r3, #20]
 8000bc2:	2307      	movs	r3, #7
 8000bc4:	4013      	ands	r3, r2
 8000bc6:	6b62      	ldr	r2, [r4, #52]	@ 0x34
 8000bc8:	429a      	cmp	r2, r3
 8000bca:	d03b      	beq.n	8000c44 <HAL_ADC_Init+0x1fc>
 8000bcc:	6da3      	ldr	r3, [r4, #88]	@ 0x58
 8000bce:	2212      	movs	r2, #18
 8000bd0:	4393      	bics	r3, r2
 8000bd2:	3a02      	subs	r2, #2
 8000bd4:	4313      	orrs	r3, r2
 8000bd6:	65a3      	str	r3, [r4, #88]	@ 0x58
 8000bd8:	6de3      	ldr	r3, [r4, #92]	@ 0x5c
 8000bda:	3a0f      	subs	r2, #15
 8000bdc:	4313      	orrs	r3, r2
 8000bde:	65e3      	str	r3, [r4, #92]	@ 0x5c
 8000be0:	2001      	movs	r0, #1
 8000be2:	e03d      	b.n	8000c60 <HAL_ADC_Init+0x218>
 8000be4:	2000      	movs	r0, #0
 8000be6:	e768      	b.n	8000aba <HAL_ADC_Init+0x72>
 8000be8:	0049      	lsls	r1, r1, #1
 8000bea:	0849      	lsrs	r1, r1, #1
 8000bec:	e794      	b.n	8000b18 <HAL_ADC_Init+0xd0>
 8000bee:	2d00      	cmp	r5, #0
 8000bf0:	d103      	bne.n	8000bfa <HAL_ADC_Init+0x1b2>
 8000bf2:	2180      	movs	r1, #128	@ 0x80
 8000bf4:	0249      	lsls	r1, r1, #9
 8000bf6:	430a      	orrs	r2, r1
 8000bf8:	e797      	b.n	8000b2a <HAL_ADC_Init+0xe2>
 8000bfa:	6da1      	ldr	r1, [r4, #88]	@ 0x58
 8000bfc:	2520      	movs	r5, #32
 8000bfe:	4329      	orrs	r1, r5
 8000c00:	65a1      	str	r1, [r4, #88]	@ 0x58
 8000c02:	6de1      	ldr	r1, [r4, #92]	@ 0x5c
 8000c04:	3d1f      	subs	r5, #31
 8000c06:	4329      	orrs	r1, r5
 8000c08:	65e1      	str	r1, [r4, #92]	@ 0x5c
 8000c0a:	e78e      	b.n	8000b2a <HAL_ADC_Init+0xe2>
 8000c0c:	6c21      	ldr	r1, [r4, #64]	@ 0x40
 8000c0e:	430b      	orrs	r3, r1
 8000c10:	6c61      	ldr	r1, [r4, #68]	@ 0x44
 8000c12:	430b      	orrs	r3, r1
 8000c14:	6ca1      	ldr	r1, [r4, #72]	@ 0x48
 8000c16:	430b      	orrs	r3, r1
 8000c18:	4313      	orrs	r3, r2
 8000c1a:	2201      	movs	r2, #1
 8000c1c:	431a      	orrs	r2, r3
 8000c1e:	e79b      	b.n	8000b58 <HAL_ADC_Init+0x110>
 8000c20:	2280      	movs	r2, #128	@ 0x80
 8000c22:	0392      	lsls	r2, r2, #14
 8000c24:	4293      	cmp	r3, r2
 8000c26:	d1ca      	bne.n	8000bbe <HAL_ADC_Init+0x176>
 8000c28:	6821      	ldr	r1, [r4, #0]
 8000c2a:	6a8b      	ldr	r3, [r1, #40]	@ 0x28
 8000c2c:	69e3      	ldr	r3, [r4, #28]
 8000c2e:	3b01      	subs	r3, #1
 8000c30:	009b      	lsls	r3, r3, #2
 8000c32:	221c      	movs	r2, #28
 8000c34:	401a      	ands	r2, r3
 8000c36:	2310      	movs	r3, #16
 8000c38:	425b      	negs	r3, r3
 8000c3a:	4093      	lsls	r3, r2
 8000c3c:	6e22      	ldr	r2, [r4, #96]	@ 0x60
 8000c3e:	4313      	orrs	r3, r2
 8000c40:	628b      	str	r3, [r1, #40]	@ 0x28
 8000c42:	e7bc      	b.n	8000bbe <HAL_ADC_Init+0x176>
 8000c44:	2300      	movs	r3, #0
 8000c46:	65e3      	str	r3, [r4, #92]	@ 0x5c
 8000c48:	6da3      	ldr	r3, [r4, #88]	@ 0x58
 8000c4a:	2203      	movs	r2, #3
 8000c4c:	4393      	bics	r3, r2
 8000c4e:	3a02      	subs	r2, #2
 8000c50:	4313      	orrs	r3, r2
 8000c52:	65a3      	str	r3, [r4, #88]	@ 0x58
 8000c54:	e004      	b.n	8000c60 <HAL_ADC_Init+0x218>
 8000c56:	6da3      	ldr	r3, [r4, #88]	@ 0x58
 8000c58:	2210      	movs	r2, #16
 8000c5a:	4313      	orrs	r3, r2
 8000c5c:	65a3      	str	r3, [r4, #88]	@ 0x58
 8000c5e:	2001      	movs	r0, #1
 8000c60:	b003      	add	sp, #12
 8000c62:	bd30      	pop	{r4, r5, pc}
 8000c64:	2001      	movs	r0, #1
 8000c66:	e7fb      	b.n	8000c60 <HAL_ADC_Init+0x218>
 8000c68:	6fffffe8 	.word	0x6fffffe8
 8000c6c:	20000008 	.word	0x20000008
 8000c70:	00030d40 	.word	0x00030d40
 8000c74:	fffffefd 	.word	0xfffffefd
 8000c78:	ffde0201 	.word	0xffde0201
 8000c7c:	1ffffc02 	.word	0x1ffffc02
 8000c80:	40012708 	.word	0x40012708
 8000c84:	ffc3ffff 	.word	0xffc3ffff

08000c88 <HAL_ADC_PollForConversion>:
 8000c88:	b5f8      	push	{r3, r4, r5, r6, r7, lr}
 8000c8a:	0004      	movs	r4, r0
 8000c8c:	000d      	movs	r5, r1
 8000c8e:	6946      	ldr	r6, [r0, #20]
 8000c90:	2e08      	cmp	r6, #8
 8000c92:	d004      	beq.n	8000c9e <HAL_ADC_PollForConversion+0x16>
 8000c94:	6803      	ldr	r3, [r0, #0]
 8000c96:	68db      	ldr	r3, [r3, #12]
 8000c98:	07db      	lsls	r3, r3, #31
 8000c9a:	d419      	bmi.n	8000cd0 <HAL_ADC_PollForConversion+0x48>
 8000c9c:	2604      	movs	r6, #4
 8000c9e:	f7ff febb 	bl	8000a18 <HAL_GetTick>
 8000ca2:	0007      	movs	r7, r0
 8000ca4:	6823      	ldr	r3, [r4, #0]
 8000ca6:	681a      	ldr	r2, [r3, #0]
 8000ca8:	4216      	tst	r6, r2
 8000caa:	d117      	bne.n	8000cdc <HAL_ADC_PollForConversion+0x54>
 8000cac:	1c6b      	adds	r3, r5, #1
 8000cae:	d0f9      	beq.n	8000ca4 <HAL_ADC_PollForConversion+0x1c>
 8000cb0:	f7ff feb2 	bl	8000a18 <HAL_GetTick>
 8000cb4:	1bc0      	subs	r0, r0, r7
 8000cb6:	42a8      	cmp	r0, r5
 8000cb8:	d801      	bhi.n	8000cbe <HAL_ADC_PollForConversion+0x36>
 8000cba:	2d00      	cmp	r5, #0
 8000cbc:	d1f2      	bne.n	8000ca4 <HAL_ADC_PollForConversion+0x1c>
 8000cbe:	6da3      	ldr	r3, [r4, #88]	@ 0x58
 8000cc0:	2204      	movs	r2, #4
 8000cc2:	4313      	orrs	r3, r2
 8000cc4:	65a3      	str	r3, [r4, #88]	@ 0x58
 8000cc6:	2354      	movs	r3, #84	@ 0x54
 8000cc8:	2200      	movs	r2, #0
 8000cca:	54e2      	strb	r2, [r4, r3]
 8000ccc:	2003      	movs	r0, #3
 8000cce:	e029      	b.n	8000d24 <HAL_ADC_PollForConversion+0x9c>
 8000cd0:	6d83      	ldr	r3, [r0, #88]	@ 0x58
 8000cd2:	2220      	movs	r2, #32
 8000cd4:	4313      	orrs	r3, r2
 8000cd6:	6583      	str	r3, [r0, #88]	@ 0x58
 8000cd8:	2001      	movs	r0, #1
 8000cda:	e023      	b.n	8000d24 <HAL_ADC_PollForConversion+0x9c>
 8000cdc:	6da1      	ldr	r1, [r4, #88]	@ 0x58
 8000cde:	2280      	movs	r2, #128	@ 0x80
 8000ce0:	0092      	lsls	r2, r2, #2
 8000ce2:	430a      	orrs	r2, r1
 8000ce4:	65a2      	str	r2, [r4, #88]	@ 0x58
 8000ce6:	68d9      	ldr	r1, [r3, #12]
 8000ce8:	22c0      	movs	r2, #192	@ 0xc0
 8000cea:	0112      	lsls	r2, r2, #4
 8000cec:	4211      	tst	r1, r2
 8000cee:	d113      	bne.n	8000d18 <HAL_ADC_PollForConversion+0x90>
 8000cf0:	7ea2      	ldrb	r2, [r4, #26]
 8000cf2:	2a00      	cmp	r2, #0
 8000cf4:	d110      	bne.n	8000d18 <HAL_ADC_PollForConversion+0x90>
 8000cf6:	681a      	ldr	r2, [r3, #0]
 8000cf8:	0712      	lsls	r2, r2, #28
 8000cfa:	d50d      	bpl.n	8000d18 <HAL_ADC_PollForConversion+0x90>
 8000cfc:	689a      	ldr	r2, [r3, #8]
 8000cfe:	0752      	lsls	r2, r2, #29
 8000d00:	d411      	bmi.n	8000d26 <HAL_ADC_PollForConversion+0x9e>
 8000d02:	685a      	ldr	r2, [r3, #4]
 8000d04:	210c      	movs	r1, #12
 8000d06:	438a      	bics	r2, r1
 8000d08:	605a      	str	r2, [r3, #4]
 8000d0a:	6da3      	ldr	r3, [r4, #88]	@ 0x58
 8000d0c:	4a0b      	ldr	r2, [pc, #44]	@ (8000d3c <HAL_ADC_PollForConversion+0xb4>)
 8000d0e:	4013      	ands	r3, r2
 8000d10:	3204      	adds	r2, #4
 8000d12:	32ff      	adds	r2, #255	@ 0xff
 8000d14:	4313      	orrs	r3, r2
 8000d16:	65a3      	str	r3, [r4, #88]	@ 0x58
 8000d18:	7e20      	ldrb	r0, [r4, #24]
 8000d1a:	2800      	cmp	r0, #0
 8000d1c:	d10c      	bne.n	8000d38 <HAL_ADC_PollForConversion+0xb0>
 8000d1e:	6823      	ldr	r3, [r4, #0]
 8000d20:	220c      	movs	r2, #12
 8000d22:	601a      	str	r2, [r3, #0]
 8000d24:	bdf8      	pop	{r3, r4, r5, r6, r7, pc}
 8000d26:	6da3      	ldr	r3, [r4, #88]	@ 0x58
 8000d28:	2220      	movs	r2, #32
 8000d2a:	4313      	orrs	r3, r2
 8000d2c:	65a3      	str	r3, [r4, #88]	@ 0x58
 8000d2e:	6de3      	ldr	r3, [r4, #92]	@ 0x5c
 8000d30:	3a1f      	subs	r2, #31
 8000d32:	4313      	orrs	r3, r2
 8000d34:	65e3      	str	r3, [r4, #92]	@ 0x5c
 8000d36:	e7ef      	b.n	8000d18 <HAL_ADC_PollForConversion+0x90>
 8000d38:	2000      	movs	r0, #0
 8000d3a:	e7f3      	b.n	8000d24 <HAL_ADC_PollForConversion+0x9c>
 8000d3c:	fffffefe 	.word	0xfffffefe

08000d40 <HAL_ADC_GetValue>:
 8000d40:	6803      	ldr	r3, [r0, #0]
 8000d42:	6c18      	ldr	r0, [r3, #64]	@ 0x40
 8000d44:	4770      	bx	lr
	...

08000d48 <HAL_ADC_ConfigChannel>:
 8000d48:	b5f0      	push	{r4, r5, r6, r7, lr}
 8000d4a:	b083      	sub	sp, #12
 8000d4c:	0004      	movs	r4, r0
 8000d4e:	2300      	movs	r3, #0
 8000d50:	9301      	str	r3, [sp, #4]
 8000d52:	6905      	ldr	r5, [r0, #16]
 8000d54:	3354      	adds	r3, #84	@ 0x54
 8000d56:	5cc3      	ldrb	r3, [r0, r3]
 8000d58:	2b01      	cmp	r3, #1
 8000d5a:	d100      	bne.n	8000d5e <HAL_ADC_ConfigChannel+0x16>
 8000d5c:	e121      	b.n	8000fa2 <HAL_ADC_ConfigChannel+0x25a>
 8000d5e:	2354      	movs	r3, #84	@ 0x54
 8000d60:	2201      	movs	r2, #1
 8000d62:	54c2      	strb	r2, [r0, r3]
 8000d64:	6800      	ldr	r0, [r0, #0]
 8000d66:	6883      	ldr	r3, [r0, #8]
 8000d68:	3203      	adds	r2, #3
 8000d6a:	0016      	movs	r6, r2
 8000d6c:	401e      	ands	r6, r3
 8000d6e:	421a      	tst	r2, r3
 8000d70:	d009      	beq.n	8000d86 <HAL_ADC_ConfigChannel+0x3e>
 8000d72:	6da3      	ldr	r3, [r4, #88]	@ 0x58
 8000d74:	321c      	adds	r2, #28
 8000d76:	4313      	orrs	r3, r2
 8000d78:	65a3      	str	r3, [r4, #88]	@ 0x58
 8000d7a:	2001      	movs	r0, #1
 8000d7c:	2354      	movs	r3, #84	@ 0x54
 8000d7e:	2200      	movs	r2, #0
 8000d80:	54e2      	strb	r2, [r4, r3]
 8000d82:	b003      	add	sp, #12
 8000d84:	bdf0      	pop	{r4, r5, r6, r7, pc}
 8000d86:	684b      	ldr	r3, [r1, #4]
 8000d88:	2b02      	cmp	r3, #2
 8000d8a:	d100      	bne.n	8000d8e <HAL_ADC_ConfigChannel+0x46>
 8000d8c:	e0d5      	b.n	8000f3a <HAL_ADC_ConfigChannel+0x1f2>
 8000d8e:	2280      	movs	r2, #128	@ 0x80
 8000d90:	0612      	lsls	r2, r2, #24
 8000d92:	4295      	cmp	r5, r2
 8000d94:	d025      	beq.n	8000de2 <HAL_ADC_ConfigChannel+0x9a>
 8000d96:	4a84      	ldr	r2, [pc, #528]	@ (8000fa8 <HAL_ADC_ConfigChannel+0x260>)
 8000d98:	4295      	cmp	r5, r2
 8000d9a:	d022      	beq.n	8000de2 <HAL_ADC_ConfigChannel+0x9a>
 8000d9c:	6e22      	ldr	r2, [r4, #96]	@ 0x60
 8000d9e:	271f      	movs	r7, #31
 8000da0:	401f      	ands	r7, r3
 8000da2:	250f      	movs	r5, #15
 8000da4:	40bd      	lsls	r5, r7
 8000da6:	43aa      	bics	r2, r5
 8000da8:	680b      	ldr	r3, [r1, #0]
 8000daa:	025d      	lsls	r5, r3, #9
 8000dac:	d12f      	bne.n	8000e0e <HAL_ADC_ConfigChannel+0xc6>
 8000dae:	0e9b      	lsrs	r3, r3, #26
 8000db0:	261f      	movs	r6, #31
 8000db2:	401e      	ands	r6, r3
 8000db4:	40be      	lsls	r6, r7
 8000db6:	4332      	orrs	r2, r6
 8000db8:	6622      	str	r2, [r4, #96]	@ 0x60
 8000dba:	684d      	ldr	r5, [r1, #4]
 8000dbc:	08ab      	lsrs	r3, r5, #2
 8000dbe:	3301      	adds	r3, #1
 8000dc0:	69e2      	ldr	r2, [r4, #28]
 8000dc2:	4293      	cmp	r3, r2
 8000dc4:	d813      	bhi.n	8000dee <HAL_ADC_ConfigChannel+0xa6>
 8000dc6:	680e      	ldr	r6, [r1, #0]
 8000dc8:	6a82      	ldr	r2, [r0, #40]	@ 0x28
 8000dca:	231f      	movs	r3, #31
 8000dcc:	401d      	ands	r5, r3
 8000dce:	3b10      	subs	r3, #16
 8000dd0:	001f      	movs	r7, r3
 8000dd2:	40af      	lsls	r7, r5
 8000dd4:	43ba      	bics	r2, r7
 8000dd6:	0eb6      	lsrs	r6, r6, #26
 8000dd8:	4033      	ands	r3, r6
 8000dda:	40ab      	lsls	r3, r5
 8000ddc:	4313      	orrs	r3, r2
 8000dde:	6283      	str	r3, [r0, #40]	@ 0x28
 8000de0:	e005      	b.n	8000dee <HAL_ADC_ConfigChannel+0xa6>
 8000de2:	680b      	ldr	r3, [r1, #0]
 8000de4:	6a82      	ldr	r2, [r0, #40]	@ 0x28
 8000de6:	025b      	lsls	r3, r3, #9
 8000de8:	0a5b      	lsrs	r3, r3, #9
 8000dea:	4313      	orrs	r3, r2
 8000dec:	6283      	str	r3, [r0, #40]	@ 0x28
 8000dee:	6820      	ldr	r0, [r4, #0]
 8000df0:	680b      	ldr	r3, [r1, #0]
 8000df2:	688d      	ldr	r5, [r1, #8]
 8000df4:	6942      	ldr	r2, [r0, #20]
 8000df6:	021b      	lsls	r3, r3, #8
 8000df8:	439a      	bics	r2, r3
 8000dfa:	402b      	ands	r3, r5
 8000dfc:	4d6b      	ldr	r5, [pc, #428]	@ (8000fac <HAL_ADC_ConfigChannel+0x264>)
 8000dfe:	402b      	ands	r3, r5
 8000e00:	4313      	orrs	r3, r2
 8000e02:	6143      	str	r3, [r0, #20]
 8000e04:	680b      	ldr	r3, [r1, #0]
 8000e06:	2b00      	cmp	r3, #0
 8000e08:	db5f      	blt.n	8000eca <HAL_ADC_ConfigChannel+0x182>
 8000e0a:	2000      	movs	r0, #0
 8000e0c:	e7b6      	b.n	8000d7c <HAL_ADC_ConfigChannel+0x34>
 8000e0e:	07dd      	lsls	r5, r3, #31
 8000e10:	d4d0      	bmi.n	8000db4 <HAL_ADC_ConfigChannel+0x6c>
 8000e12:	079d      	lsls	r5, r3, #30
 8000e14:	d42f      	bmi.n	8000e76 <HAL_ADC_ConfigChannel+0x12e>
 8000e16:	075d      	lsls	r5, r3, #29
 8000e18:	d42f      	bmi.n	8000e7a <HAL_ADC_ConfigChannel+0x132>
 8000e1a:	071d      	lsls	r5, r3, #28
 8000e1c:	d42f      	bmi.n	8000e7e <HAL_ADC_ConfigChannel+0x136>
 8000e1e:	06dd      	lsls	r5, r3, #27
 8000e20:	d42f      	bmi.n	8000e82 <HAL_ADC_ConfigChannel+0x13a>
 8000e22:	069d      	lsls	r5, r3, #26
 8000e24:	d42f      	bmi.n	8000e86 <HAL_ADC_ConfigChannel+0x13e>
 8000e26:	065d      	lsls	r5, r3, #25
 8000e28:	d42f      	bmi.n	8000e8a <HAL_ADC_ConfigChannel+0x142>
 8000e2a:	061d      	lsls	r5, r3, #24
 8000e2c:	d42f      	bmi.n	8000e8e <HAL_ADC_ConfigChannel+0x146>
 8000e2e:	05dd      	lsls	r5, r3, #23
 8000e30:	d42f      	bmi.n	8000e92 <HAL_ADC_ConfigChannel+0x14a>
 8000e32:	059d      	lsls	r5, r3, #22
 8000e34:	d42f      	bmi.n	8000e96 <HAL_ADC_ConfigChannel+0x14e>
 8000e36:	055d      	lsls	r5, r3, #21
 8000e38:	d42f      	bmi.n	8000e9a <HAL_ADC_ConfigChannel+0x152>
 8000e3a:	051d      	lsls	r5, r3, #20
 8000e3c:	d42f      	bmi.n	8000e9e <HAL_ADC_ConfigChannel+0x156>
 8000e3e:	04dd      	lsls	r5, r3, #19
 8000e40:	d42f      	bmi.n	8000ea2 <HAL_ADC_ConfigChannel+0x15a>
 8000e42:	049d      	lsls	r5, r3, #18
 8000e44:	d42f      	bmi.n	8000ea6 <HAL_ADC_ConfigChannel+0x15e>
 8000e46:	045d      	lsls	r5, r3, #17
 8000e48:	d42f      	bmi.n	8000eaa <HAL_ADC_ConfigChannel+0x162>
 8000e4a:	041d      	lsls	r5, r3, #16
 8000e4c:	d42f      	bmi.n	8000eae <HAL_ADC_ConfigChannel+0x166>
 8000e4e:	03dd      	lsls	r5, r3, #15
 8000e50:	d42f      	bmi.n	8000eb2 <HAL_ADC_ConfigChannel+0x16a>
 8000e52:	039d      	lsls	r5, r3, #14
 8000e54:	d42f      	bmi.n	8000eb6 <HAL_ADC_ConfigChannel+0x16e>
 8000e56:	035d      	lsls	r5, r3, #13
 8000e58:	d42f      	bmi.n	8000eba <HAL_ADC_ConfigChannel+0x172>
 8000e5a:	031d      	lsls	r5, r3, #12
 8000e5c:	d42f      	bmi.n	8000ebe <HAL_ADC_ConfigChannel+0x176>
 8000e5e:	02dd      	lsls	r5, r3, #11
 8000e60:	d42f      	bmi.n	8000ec2 <HAL_ADC_ConfigChannel+0x17a>
 8000e62:	029d      	lsls	r5, r3, #10
 8000e64:	d42f      	bmi.n	8000ec6 <HAL_ADC_ConfigChannel+0x17e>
 8000e66:	2580      	movs	r5, #128	@ 0x80
 8000e68:	03ed      	lsls	r5, r5, #15
 8000e6a:	001e      	movs	r6, r3
 8000e6c:	402e      	ands	r6, r5
 8000e6e:	422b      	tst	r3, r5
 8000e70:	d0a0      	beq.n	8000db4 <HAL_ADC_ConfigChannel+0x6c>
 8000e72:	2616      	movs	r6, #22
 8000e74:	e79e      	b.n	8000db4 <HAL_ADC_ConfigChannel+0x6c>
 8000e76:	2601      	movs	r6, #1
 8000e78:	e79c      	b.n	8000db4 <HAL_ADC_ConfigChannel+0x6c>
 8000e7a:	2602      	movs	r6, #2
 8000e7c:	e79a      	b.n	8000db4 <HAL_ADC_ConfigChannel+0x6c>
 8000e7e:	2603      	movs	r6, #3
 8000e80:	e798      	b.n	8000db4 <HAL_ADC_ConfigChannel+0x6c>
 8000e82:	2604      	movs	r6, #4
 8000e84:	e796      	b.n	8000db4 <HAL_ADC_ConfigChannel+0x6c>
 8000e86:	2605      	movs	r6, #5
 8000e88:	e794      	b.n	8000db4 <HAL_ADC_ConfigChannel+0x6c>
 8000e8a:	2606      	movs	r6, #6
 8000e8c:	e792      	b.n	8000db4 <HAL_ADC_ConfigChannel+0x6c>
 8000e8e:	2607      	movs	r6, #7
 8000e90:	e790      	b.n	8000db4 <HAL_ADC_ConfigChannel+0x6c>
 8000e92:	2608      	movs	r6, #8
 8000e94:	e78e      	b.n	8000db4 <HAL_ADC_ConfigChannel+0x6c>
 8000e96:	2609      	movs	r6, #9
 8000e98:	e78c      	b.n	8000db4 <HAL_ADC_ConfigChannel+0x6c>
 8000e9a:	260a      	movs	r6, #10
 8000e9c:	e78a      	b.n	8000db4 <HAL_ADC_ConfigChannel+0x6c>
 8000e9e:	260b      	movs	r6, #11
 8000ea0:	e788      	b.n	8000db4 <HAL_ADC_ConfigChannel+0x6c>
 8000ea2:	260c      	movs	r6, #12
 8000ea4:	e786      	b.n	8000db4 <HAL_ADC_ConfigChannel+0x6c>
 8000ea6:	260d      	movs	r6, #13
 8000ea8:	e784      	b.n	8000db4 <HAL_ADC_ConfigChannel+0x6c>
 8000eaa:	260e      	movs	r6, #14
 8000eac:	e782      	b.n	8000db4 <HAL_ADC_ConfigChannel+0x6c>
 8000eae:	260f      	movs	r6, #15
 8000eb0:	e780      	b.n	8000db4 <HAL_ADC_ConfigChannel+0x6c>
 8000eb2:	2610      	movs	r6, #16
 8000eb4:	e77e      	b.n	8000db4 <HAL_ADC_ConfigChannel+0x6c>
 8000eb6:	2611      	movs	r6, #17
 8000eb8:	e77c      	b.n	8000db4 <HAL_ADC_ConfigChannel+0x6c>
 8000eba:	2612      	movs	r6, #18
 8000ebc:	e77a      	b.n	8000db4 <HAL_ADC_ConfigChannel+0x6c>
 8000ebe:	2613      	movs	r6, #19
 8000ec0:	e778      	b.n	8000db4 <HAL_ADC_ConfigChannel+0x6c>
 8000ec2:	2614      	movs	r6, #20
 8000ec4:	e776      	b.n	8000db4 <HAL_ADC_ConfigChannel+0x6c>
 8000ec6:	2615      	movs	r6, #21
 8000ec8:	e774      	b.n	8000db4 <HAL_ADC_ConfigChannel+0x6c>
 8000eca:	4a39      	ldr	r2, [pc, #228]	@ (8000fb0 <HAL_ADC_ConfigChannel+0x268>)
 8000ecc:	6811      	ldr	r1, [r2, #0]
 8000ece:	22c0      	movs	r2, #192	@ 0xc0
 8000ed0:	0412      	lsls	r2, r2, #16
 8000ed2:	400a      	ands	r2, r1
 8000ed4:	4837      	ldr	r0, [pc, #220]	@ (8000fb4 <HAL_ADC_ConfigChannel+0x26c>)
 8000ed6:	4283      	cmp	r3, r0
 8000ed8:	d004      	beq.n	8000ee4 <HAL_ADC_ConfigChannel+0x19c>
 8000eda:	4837      	ldr	r0, [pc, #220]	@ (8000fb8 <HAL_ADC_ConfigChannel+0x270>)
 8000edc:	4283      	cmp	r3, r0
 8000ede:	d01f      	beq.n	8000f20 <HAL_ADC_ConfigChannel+0x1d8>
 8000ee0:	2000      	movs	r0, #0
 8000ee2:	e74b      	b.n	8000d7c <HAL_ADC_ConfigChannel+0x34>
 8000ee4:	0208      	lsls	r0, r1, #8
 8000ee6:	d4f8      	bmi.n	8000eda <HAL_ADC_ConfigChannel+0x192>
 8000ee8:	2380      	movs	r3, #128	@ 0x80
 8000eea:	041b      	lsls	r3, r3, #16
 8000eec:	4313      	orrs	r3, r2
 8000eee:	4930      	ldr	r1, [pc, #192]	@ (8000fb0 <HAL_ADC_ConfigChannel+0x268>)
 8000ef0:	680a      	ldr	r2, [r1, #0]
 8000ef2:	4832      	ldr	r0, [pc, #200]	@ (8000fbc <HAL_ADC_ConfigChannel+0x274>)
 8000ef4:	4002      	ands	r2, r0
 8000ef6:	4313      	orrs	r3, r2
 8000ef8:	600b      	str	r3, [r1, #0]
 8000efa:	4b31      	ldr	r3, [pc, #196]	@ (8000fc0 <HAL_ADC_ConfigChannel+0x278>)
 8000efc:	6818      	ldr	r0, [r3, #0]
 8000efe:	4931      	ldr	r1, [pc, #196]	@ (8000fc4 <HAL_ADC_ConfigChannel+0x27c>)
 8000f00:	f7ff f8f0 	bl	80000e4 <__udivsi3>
 8000f04:	0043      	lsls	r3, r0, #1
 8000f06:	181b      	adds	r3, r3, r0
 8000f08:	009b      	lsls	r3, r3, #2
 8000f0a:	3301      	adds	r3, #1
 8000f0c:	9301      	str	r3, [sp, #4]
 8000f0e:	e002      	b.n	8000f16 <HAL_ADC_ConfigChannel+0x1ce>
 8000f10:	9b01      	ldr	r3, [sp, #4]
 8000f12:	3b01      	subs	r3, #1
 8000f14:	9301      	str	r3, [sp, #4]
 8000f16:	9b01      	ldr	r3, [sp, #4]
 8000f18:	2b00      	cmp	r3, #0
 8000f1a:	d1f9      	bne.n	8000f10 <HAL_ADC_ConfigChannel+0x1c8>
 8000f1c:	2000      	movs	r0, #0
 8000f1e:	e72d      	b.n	8000d7c <HAL_ADC_ConfigChannel+0x34>
 8000f20:	0249      	lsls	r1, r1, #9
 8000f22:	d43c      	bmi.n	8000f9e <HAL_ADC_ConfigChannel+0x256>
 8000f24:	2380      	movs	r3, #128	@ 0x80
 8000f26:	03db      	lsls	r3, r3, #15
 8000f28:	4313      	orrs	r3, r2
 8000f2a:	4921      	ldr	r1, [pc, #132]	@ (8000fb0 <HAL_ADC_ConfigChannel+0x268>)
 8000f2c:	680a      	ldr	r2, [r1, #0]
 8000f2e:	4823      	ldr	r0, [pc, #140]	@ (8000fbc <HAL_ADC_ConfigChannel+0x274>)
 8000f30:	4002      	ands	r2, r0
 8000f32:	4313      	orrs	r3, r2
 8000f34:	600b      	str	r3, [r1, #0]
 8000f36:	2000      	movs	r0, #0
 8000f38:	e720      	b.n	8000d7c <HAL_ADC_ConfigChannel+0x34>
 8000f3a:	2380      	movs	r3, #128	@ 0x80
 8000f3c:	061b      	lsls	r3, r3, #24
 8000f3e:	429d      	cmp	r5, r3
 8000f40:	d002      	beq.n	8000f48 <HAL_ADC_ConfigChannel+0x200>
 8000f42:	4b19      	ldr	r3, [pc, #100]	@ (8000fa8 <HAL_ADC_ConfigChannel+0x260>)
 8000f44:	429d      	cmp	r5, r3
 8000f46:	d105      	bne.n	8000f54 <HAL_ADC_ConfigChannel+0x20c>
 8000f48:	680b      	ldr	r3, [r1, #0]
 8000f4a:	6a82      	ldr	r2, [r0, #40]	@ 0x28
 8000f4c:	025b      	lsls	r3, r3, #9
 8000f4e:	0a5b      	lsrs	r3, r3, #9
 8000f50:	439a      	bics	r2, r3
 8000f52:	6282      	str	r2, [r0, #40]	@ 0x28
 8000f54:	680b      	ldr	r3, [r1, #0]
 8000f56:	2b00      	cmp	r3, #0
 8000f58:	db01      	blt.n	8000f5e <HAL_ADC_ConfigChannel+0x216>
 8000f5a:	2000      	movs	r0, #0
 8000f5c:	e70e      	b.n	8000d7c <HAL_ADC_ConfigChannel+0x34>
 8000f5e:	4a14      	ldr	r2, [pc, #80]	@ (8000fb0 <HAL_ADC_ConfigChannel+0x268>)
 8000f60:	6812      	ldr	r2, [r2, #0]
 8000f62:	4914      	ldr	r1, [pc, #80]	@ (8000fb4 <HAL_ADC_ConfigChannel+0x26c>)
 8000f64:	428b      	cmp	r3, r1
 8000f66:	d004      	beq.n	8000f72 <HAL_ADC_ConfigChannel+0x22a>
 8000f68:	4913      	ldr	r1, [pc, #76]	@ (8000fb8 <HAL_ADC_ConfigChannel+0x270>)
 8000f6a:	428b      	cmp	r3, r1
 8000f6c:	d00c      	beq.n	8000f88 <HAL_ADC_ConfigChannel+0x240>
 8000f6e:	2000      	movs	r0, #0
 8000f70:	e704      	b.n	8000d7c <HAL_ADC_ConfigChannel+0x34>
 8000f72:	2380      	movs	r3, #128	@ 0x80
 8000f74:	03db      	lsls	r3, r3, #15
 8000f76:	401a      	ands	r2, r3
 8000f78:	490d      	ldr	r1, [pc, #52]	@ (8000fb0 <HAL_ADC_ConfigChannel+0x268>)
 8000f7a:	680b      	ldr	r3, [r1, #0]
 8000f7c:	480f      	ldr	r0, [pc, #60]	@ (8000fbc <HAL_ADC_ConfigChannel+0x274>)
 8000f7e:	4003      	ands	r3, r0
 8000f80:	431a      	orrs	r2, r3
 8000f82:	600a      	str	r2, [r1, #0]
 8000f84:	2000      	movs	r0, #0
 8000f86:	e6f9      	b.n	8000d7c <HAL_ADC_ConfigChannel+0x34>
 8000f88:	2380      	movs	r3, #128	@ 0x80
 8000f8a:	041b      	lsls	r3, r3, #16
 8000f8c:	401a      	ands	r2, r3
 8000f8e:	4908      	ldr	r1, [pc, #32]	@ (8000fb0 <HAL_ADC_ConfigChannel+0x268>)
 8000f90:	680b      	ldr	r3, [r1, #0]
 8000f92:	480a      	ldr	r0, [pc, #40]	@ (8000fbc <HAL_ADC_ConfigChannel+0x274>)
 8000f94:	4003      	ands	r3, r0
 8000f96:	431a      	orrs	r2, r3
 8000f98:	600a      	str	r2, [r1, #0]
 8000f9a:	2000      	movs	r0, #0
 8000f9c:	e6ee      	b.n	8000d7c <HAL_ADC_ConfigChannel+0x34>
 8000f9e:	2000      	movs	r0, #0
 8000fa0:	e6ec      	b.n	8000d7c <HAL_ADC_ConfigChannel+0x34>
 8000fa2:	2002      	movs	r0, #2
 8000fa4:	e6ed      	b.n	8000d82 <HAL_ADC_ConfigChannel+0x3a>
 8000fa6:	46c0      	nop			@ (mov r8, r8)
 8000fa8:	80000004 	.word	0x80000004
 8000fac:	7fffff00 	.word	0x7fffff00
 8000fb0:	40012708 	.word	0x40012708
 8000fb4:	a4000200 	.word	0xa4000200
 8000fb8:	a8000400 	.word	0xa8000400
 8000fbc:	ff3fffff 	.word	0xff3fffff
 8000fc0:	20000008 	.word	0x20000008
 8000fc4:	00030d40 	.word	0x00030d40

08000fc8 <ADC_ConversionStop>:
 8000fc8:	b570      	push	{r4, r5, r6, lr}
 8000fca:	0004      	movs	r4, r0
 8000fcc:	6802      	ldr	r2, [r0, #0]
 8000fce:	6893      	ldr	r3, [r2, #8]
 8000fd0:	075b      	lsls	r3, r3, #29
 8000fd2:	d520      	bpl.n	8001016 <ADC_ConversionStop+0x4e>
 8000fd4:	6893      	ldr	r3, [r2, #8]
 8000fd6:	079b      	lsls	r3, r3, #30
 8000fd8:	d405      	bmi.n	8000fe6 <ADC_ConversionStop+0x1e>
 8000fda:	6893      	ldr	r3, [r2, #8]
 8000fdc:	490f      	ldr	r1, [pc, #60]	@ (800101c <ADC_ConversionStop+0x54>)
 8000fde:	400b      	ands	r3, r1
 8000fe0:	2110      	movs	r1, #16
 8000fe2:	430b      	orrs	r3, r1
 8000fe4:	6093      	str	r3, [r2, #8]
 8000fe6:	f7ff fd17 	bl	8000a18 <HAL_GetTick>
 8000fea:	0005      	movs	r5, r0
 8000fec:	6823      	ldr	r3, [r4, #0]
 8000fee:	689b      	ldr	r3, [r3, #8]
 8000ff0:	075b      	lsls	r3, r3, #29
 8000ff2:	d50e      	bpl.n	8001012 <ADC_ConversionStop+0x4a>
 8000ff4:	f7ff fd10 	bl	8000a18 <HAL_GetTick>
 8000ff8:	1b40      	subs	r0, r0, r5
 8000ffa:	2802      	cmp	r0, #2
 8000ffc:	d9f6      	bls.n	8000fec <ADC_ConversionStop+0x24>
 8000ffe:	6da3      	ldr	r3, [r4, #88]	@ 0x58
 8001000:	2210      	movs	r2, #16
 8001002:	4313      	orrs	r3, r2
 8001004:	65a3      	str	r3, [r4, #88]	@ 0x58
 8001006:	6de3      	ldr	r3, [r4, #92]	@ 0x5c
 8001008:	3a0f      	subs	r2, #15
 800100a:	4313      	orrs	r3, r2
 800100c:	65e3      	str	r3, [r4, #92]	@ 0x5c
 800100e:	2001      	movs	r0, #1
 8001010:	e002      	b.n	8001018 <ADC_ConversionStop+0x50>
 8001012:	2000      	movs	r0, #0
 8001014:	e000      	b.n	8001018 <ADC_ConversionStop+0x50>
 8001016:	2000      	movs	r0, #0
 8001018:	bd70      	pop	{r4, r5, r6, pc}
 800101a:	46c0      	nop			@ (mov r8, r8)
 800101c:	7fffffe8 	.word	0x7fffffe8

08001020 <ADC_Enable>:
 8001020:	b530      	push	{r4, r5, lr}
 8001022:	b083      	sub	sp, #12
 8001024:	0004      	movs	r4, r0
 8001026:	2300      	movs	r3, #0
 8001028:	9301      	str	r3, [sp, #4]
 800102a:	6803      	ldr	r3, [r0, #0]
 800102c:	689a      	ldr	r2, [r3, #8]
 800102e:	07d2      	lsls	r2, r2, #31
 8001030:	d44d      	bmi.n	80010ce <ADC_Enable+0xae>
 8001032:	6899      	ldr	r1, [r3, #8]
 8001034:	4a27      	ldr	r2, [pc, #156]	@ (80010d4 <ADC_Enable+0xb4>)
 8001036:	4211      	tst	r1, r2
 8001038:	d117      	bne.n	800106a <ADC_Enable+0x4a>
 800103a:	689a      	ldr	r2, [r3, #8]
 800103c:	4926      	ldr	r1, [pc, #152]	@ (80010d8 <ADC_Enable+0xb8>)
 800103e:	400a      	ands	r2, r1
 8001040:	2101      	movs	r1, #1
 8001042:	430a      	orrs	r2, r1
 8001044:	609a      	str	r2, [r3, #8]
 8001046:	4b25      	ldr	r3, [pc, #148]	@ (80010dc <ADC_Enable+0xbc>)
 8001048:	681b      	ldr	r3, [r3, #0]
 800104a:	021b      	lsls	r3, r3, #8
 800104c:	d517      	bpl.n	800107e <ADC_Enable+0x5e>
 800104e:	4b24      	ldr	r3, [pc, #144]	@ (80010e0 <ADC_Enable+0xc0>)
 8001050:	6818      	ldr	r0, [r3, #0]
 8001052:	4924      	ldr	r1, [pc, #144]	@ (80010e4 <ADC_Enable+0xc4>)
 8001054:	f7ff f846 	bl	80000e4 <__udivsi3>
 8001058:	3001      	adds	r0, #1
 800105a:	9001      	str	r0, [sp, #4]
 800105c:	9b01      	ldr	r3, [sp, #4]
 800105e:	2b00      	cmp	r3, #0
 8001060:	d00d      	beq.n	800107e <ADC_Enable+0x5e>
 8001062:	9b01      	ldr	r3, [sp, #4]
 8001064:	3b01      	subs	r3, #1
 8001066:	9301      	str	r3, [sp, #4]
 8001068:	e7f8      	b.n	800105c <ADC_Enable+0x3c>
 800106a:	6d83      	ldr	r3, [r0, #88]	@ 0x58
 800106c:	2210      	movs	r2, #16
 800106e:	4313      	orrs	r3, r2
 8001070:	6583      	str	r3, [r0, #88]	@ 0x58
 8001072:	6dc3      	ldr	r3, [r0, #92]	@ 0x5c
 8001074:	3a0f      	subs	r2, #15
 8001076:	4313      	orrs	r3, r2
 8001078:	65c3      	str	r3, [r0, #92]	@ 0x5c
 800107a:	2001      	movs	r0, #1
 800107c:	e028      	b.n	80010d0 <ADC_Enable+0xb0>
 800107e:	7e63      	ldrb	r3, [r4, #25]
 8001080:	2b01      	cmp	r3, #1
 8001082:	d101      	bne.n	8001088 <ADC_Enable+0x68>
 8001084:	2000      	movs	r0, #0
 8001086:	e023      	b.n	80010d0 <ADC_Enable+0xb0>
 8001088:	f7ff fcc6 	bl	8000a18 <HAL_GetTick>
 800108c:	0005      	movs	r5, r0
 800108e:	e004      	b.n	800109a <ADC_Enable+0x7a>
 8001090:	f7ff fcc2 	bl	8000a18 <HAL_GetTick>
 8001094:	1b40      	subs	r0, r0, r5
 8001096:	2802      	cmp	r0, #2
 8001098:	d80d      	bhi.n	80010b6 <ADC_Enable+0x96>
 800109a:	6823      	ldr	r3, [r4, #0]
 800109c:	681a      	ldr	r2, [r3, #0]
 800109e:	07d2      	lsls	r2, r2, #31
 80010a0:	d413      	bmi.n	80010ca <ADC_Enable+0xaa>
 80010a2:	689a      	ldr	r2, [r3, #8]
 80010a4:	07d2      	lsls	r2, r2, #31
 80010a6:	d4f3      	bmi.n	8001090 <ADC_Enable+0x70>
 80010a8:	689a      	ldr	r2, [r3, #8]
 80010aa:	490b      	ldr	r1, [pc, #44]	@ (80010d8 <ADC_Enable+0xb8>)
 80010ac:	400a      	ands	r2, r1
 80010ae:	2101      	movs	r1, #1
 80010b0:	430a      	orrs	r2, r1
 80010b2:	609a      	str	r2, [r3, #8]
 80010b4:	e7ec      	b.n	8001090 <ADC_Enable+0x70>
 80010b6:	6da3      	ldr	r3, [r4, #88]	@ 0x58
 80010b8:	2210      	movs	r2, #16
 80010ba:	4313      	orrs	r3, r2
 80010bc:	65a3      	str	r3, [r4, #88]	@ 0x58
 80010be:	6de3      	ldr	r3, [r4, #92]	@ 0x5c
 80010c0:	3a0f      	subs	r2, #15
 80010c2:	4313      	orrs	r3, r2
 80010c4:	65e3      	str	r3, [r4, #92]	@ 0x5c
 80010c6:	2001      	movs	r0, #1
 80010c8:	e002      	b.n	80010d0 <ADC_Enable+0xb0>
 80010ca:	2000      	movs	r0, #0
 80010cc:	e000      	b.n	80010d0 <ADC_Enable+0xb0>
 80010ce:	2000      	movs	r0, #0
 80010d0:	b003      	add	sp, #12
 80010d2:	bd30      	pop	{r4, r5, pc}
 80010d4:	80000017 	.word	0x80000017
 80010d8:	7fffffe8 	.word	0x7fffffe8
 80010dc:	40012708 	.word	0x40012708
 80010e0:	20000008 	.word	0x20000008
 80010e4:	00030d40 	.word	0x00030d40

080010e8 <HAL_ADC_Start>:
 80010e8:	b510      	push	{r4, lr}
 80010ea:	0004      	movs	r4, r0
 80010ec:	6803      	ldr	r3, [r0, #0]
 80010ee:	689b      	ldr	r3, [r3, #8]
 80010f0:	075b      	lsls	r3, r3, #29
 80010f2:	d424      	bmi.n	800113e <HAL_ADC_Start+0x56>
 80010f4:	2354      	movs	r3, #84	@ 0x54
 80010f6:	5cc3      	ldrb	r3, [r0, r3]
 80010f8:	2b01      	cmp	r3, #1
 80010fa:	d022      	beq.n	8001142 <HAL_ADC_Start+0x5a>
 80010fc:	2354      	movs	r3, #84	@ 0x54
 80010fe:	2201      	movs	r2, #1
 8001100:	54c2      	strb	r2, [r0, r3]
 8001102:	f7ff ff8d 	bl	8001020 <ADC_Enable>
 8001106:	2800      	cmp	r0, #0
 8001108:	d115      	bne.n	8001136 <HAL_ADC_Start+0x4e>
 800110a:	6da2      	ldr	r2, [r4, #88]	@ 0x58
 800110c:	4b0e      	ldr	r3, [pc, #56]	@ (8001148 <HAL_ADC_Start+0x60>)
 800110e:	401a      	ands	r2, r3
 8001110:	2380      	movs	r3, #128	@ 0x80
 8001112:	005b      	lsls	r3, r3, #1
 8001114:	4313      	orrs	r3, r2
 8001116:	65a3      	str	r3, [r4, #88]	@ 0x58
 8001118:	2300      	movs	r3, #0
 800111a:	65e3      	str	r3, [r4, #92]	@ 0x5c
 800111c:	6822      	ldr	r2, [r4, #0]
 800111e:	211c      	movs	r1, #28
 8001120:	6011      	str	r1, [r2, #0]
 8001122:	2254      	movs	r2, #84	@ 0x54
 8001124:	54a3      	strb	r3, [r4, r2]
 8001126:	6822      	ldr	r2, [r4, #0]
 8001128:	6893      	ldr	r3, [r2, #8]
 800112a:	4908      	ldr	r1, [pc, #32]	@ (800114c <HAL_ADC_Start+0x64>)
 800112c:	400b      	ands	r3, r1
 800112e:	2104      	movs	r1, #4
 8001130:	430b      	orrs	r3, r1
 8001132:	6093      	str	r3, [r2, #8]
 8001134:	e004      	b.n	8001140 <HAL_ADC_Start+0x58>
 8001136:	2354      	movs	r3, #84	@ 0x54
 8001138:	2200      	movs	r2, #0
 800113a:	54e2      	strb	r2, [r4, r3]
 800113c:	e000      	b.n	8001140 <HAL_ADC_Start+0x58>
 800113e:	2002      	movs	r0, #2
 8001140:	bd10      	pop	{r4, pc}
 8001142:	2002      	movs	r0, #2
 8001144:	e7fc      	b.n	8001140 <HAL_ADC_Start+0x58>
 8001146:	46c0      	nop			@ (mov r8, r8)
 8001148:	fffff0fe 	.word	0xfffff0fe
 800114c:	7fffffe8 	.word	0x7fffffe8

08001150 <ADC_Disable>:
 8001150:	b570      	push	{r4, r5, r6, lr}
 8001152:	0004      	movs	r4, r0
 8001154:	6803      	ldr	r3, [r0, #0]
 8001156:	689a      	ldr	r2, [r3, #8]
 8001158:	2102      	movs	r1, #2
 800115a:	0008      	movs	r0, r1
 800115c:	4010      	ands	r0, r2
 800115e:	4211      	tst	r1, r2
 8001160:	d000      	beq.n	8001164 <ADC_Disable+0x14>
 8001162:	2001      	movs	r0, #1
 8001164:	689a      	ldr	r2, [r3, #8]
 8001166:	07d2      	lsls	r2, r2, #31
 8001168:	d531      	bpl.n	80011ce <ADC_Disable+0x7e>
 800116a:	2800      	cmp	r0, #0
 800116c:	d131      	bne.n	80011d2 <ADC_Disable+0x82>
 800116e:	6899      	ldr	r1, [r3, #8]
 8001170:	2205      	movs	r2, #5
 8001172:	400a      	ands	r2, r1
 8001174:	2a01      	cmp	r2, #1
 8001176:	d009      	beq.n	800118c <ADC_Disable+0x3c>
 8001178:	6da3      	ldr	r3, [r4, #88]	@ 0x58
 800117a:	2210      	movs	r2, #16
 800117c:	4313      	orrs	r3, r2
 800117e:	65a3      	str	r3, [r4, #88]	@ 0x58
 8001180:	6de3      	ldr	r3, [r4, #92]	@ 0x5c
 8001182:	3a0f      	subs	r2, #15
 8001184:	4313      	orrs	r3, r2
 8001186:	65e3      	str	r3, [r4, #92]	@ 0x5c
 8001188:	2001      	movs	r0, #1
 800118a:	e021      	b.n	80011d0 <ADC_Disable+0x80>
 800118c:	689a      	ldr	r2, [r3, #8]
 800118e:	4912      	ldr	r1, [pc, #72]	@ (80011d8 <ADC_Disable+0x88>)
 8001190:	400a      	ands	r2, r1
 8001192:	2102      	movs	r1, #2
 8001194:	430a      	orrs	r2, r1
 8001196:	609a      	str	r2, [r3, #8]
 8001198:	6823      	ldr	r3, [r4, #0]
 800119a:	2203      	movs	r2, #3
 800119c:	601a      	str	r2, [r3, #0]
 800119e:	f7ff fc3b 	bl	8000a18 <HAL_GetTick>
 80011a2:	0005      	movs	r5, r0
 80011a4:	6823      	ldr	r3, [r4, #0]
 80011a6:	689b      	ldr	r3, [r3, #8]
 80011a8:	07db      	lsls	r3, r3, #31
 80011aa:	d50e      	bpl.n	80011ca <ADC_Disable+0x7a>
 80011ac:	f7ff fc34 	bl	8000a18 <HAL_GetTick>
 80011b0:	1b40      	subs	r0, r0, r5
 80011b2:	2802      	cmp	r0, #2
 80011b4:	d9f6      	bls.n	80011a4 <ADC_Disable+0x54>
 80011b6:	6da3      	ldr	r3, [r4, #88]	@ 0x58
 80011b8:	2210      	movs	r2, #16
 80011ba:	4313      	orrs	r3, r2
 80011bc:	65a3      	str	r3, [r4, #88]	@ 0x58
 80011be:	6de3      	ldr	r3, [r4, #92]	@ 0x5c
 80011c0:	3a0f      	subs	r2, #15
 80011c2:	4313      	orrs	r3, r2
 80011c4:	65e3      	str	r3, [r4, #92]	@ 0x5c
 80011c6:	2001      	movs	r0, #1
 80011c8:	e002      	b.n	80011d0 <ADC_Disable+0x80>
 80011ca:	2000      	movs	r0, #0
 80011cc:	e000      	b.n	80011d0 <ADC_Disable+0x80>
 80011ce:	2000      	movs	r0, #0
 80011d0:	bd70      	pop	{r4, r5, r6, pc}
 80011d2:	2000      	movs	r0, #0
 80011d4:	e7fc      	b.n	80011d0 <ADC_Disable+0x80>
 80011d6:	46c0      	nop			@ (mov r8, r8)
 80011d8:	7fffffe8 	.word	0x7fffffe8

080011dc <HAL_ADC_Stop>:
 80011dc:	b510      	push	{r4, lr}
 80011de:	0004      	movs	r4, r0
 80011e0:	2354      	movs	r3, #84	@ 0x54
 80011e2:	5cc3      	ldrb	r3, [r0, r3]
 80011e4:	2b01      	cmp	r3, #1
 80011e6:	d017      	beq.n	8001218 <HAL_ADC_Stop+0x3c>
 80011e8:	2354      	movs	r3, #84	@ 0x54
 80011ea:	2201      	movs	r2, #1
 80011ec:	54c2      	strb	r2, [r0, r3]
 80011ee:	f7ff feeb 	bl	8000fc8 <ADC_ConversionStop>
 80011f2:	2800      	cmp	r0, #0
 80011f4:	d003      	beq.n	80011fe <HAL_ADC_Stop+0x22>
 80011f6:	2354      	movs	r3, #84	@ 0x54
 80011f8:	2200      	movs	r2, #0
 80011fa:	54e2      	strb	r2, [r4, r3]
 80011fc:	bd10      	pop	{r4, pc}
 80011fe:	0020      	movs	r0, r4
 8001200:	f7ff ffa6 	bl	8001150 <ADC_Disable>
 8001204:	2800      	cmp	r0, #0
 8001206:	d1f6      	bne.n	80011f6 <HAL_ADC_Stop+0x1a>
 8001208:	6da3      	ldr	r3, [r4, #88]	@ 0x58
 800120a:	4a04      	ldr	r2, [pc, #16]	@ (800121c <HAL_ADC_Stop+0x40>)
 800120c:	4013      	ands	r3, r2
 800120e:	3204      	adds	r2, #4
 8001210:	32ff      	adds	r2, #255	@ 0xff
 8001212:	4313      	orrs	r3, r2
 8001214:	65a3      	str	r3, [r4, #88]	@ 0x58
 8001216:	e7ee      	b.n	80011f6 <HAL_ADC_Stop+0x1a>
 8001218:	2002      	movs	r0, #2
 800121a:	e7ef      	b.n	80011fc <HAL_ADC_Stop+0x20>
 800121c:	fffffefe 	.word	0xfffffefe

08001220 <__NVIC_SetPriority>:
 8001220:	b570      	push	{r4, r5, r6, lr}
 8001222:	2800      	cmp	r0, #0
 8001224:	db11      	blt.n	800124a <__NVIC_SetPriority+0x2a>
 8001226:	0883      	lsrs	r3, r0, #2
 8001228:	4d13      	ldr	r5, [pc, #76]	@ (8001278 <__NVIC_SetPriority+0x58>)
 800122a:	33c0      	adds	r3, #192	@ 0xc0
 800122c:	009b      	lsls	r3, r3, #2
 800122e:	595c      	ldr	r4, [r3, r5]
 8001230:	2203      	movs	r2, #3
 8001232:	4010      	ands	r0, r2
 8001234:	00c0      	lsls	r0, r0, #3
 8001236:	32fc      	adds	r2, #252	@ 0xfc
 8001238:	0016      	movs	r6, r2
 800123a:	4086      	lsls	r6, r0
 800123c:	43b4      	bics	r4, r6
 800123e:	0189      	lsls	r1, r1, #6
 8001240:	400a      	ands	r2, r1
 8001242:	4082      	lsls	r2, r0
 8001244:	4322      	orrs	r2, r4
 8001246:	515a      	str	r2, [r3, r5]
 8001248:	bd70      	pop	{r4, r5, r6, pc}
 800124a:	230f      	movs	r3, #15
 800124c:	4003      	ands	r3, r0
 800124e:	3b08      	subs	r3, #8
 8001250:	089b      	lsrs	r3, r3, #2
 8001252:	3306      	adds	r3, #6
 8001254:	009b      	lsls	r3, r3, #2
 8001256:	4a09      	ldr	r2, [pc, #36]	@ (800127c <__NVIC_SetPriority+0x5c>)
 8001258:	4694      	mov	ip, r2
 800125a:	4463      	add	r3, ip
 800125c:	685c      	ldr	r4, [r3, #4]
 800125e:	2203      	movs	r2, #3
 8001260:	4010      	ands	r0, r2
 8001262:	00c0      	lsls	r0, r0, #3
 8001264:	32fc      	adds	r2, #252	@ 0xfc
 8001266:	0015      	movs	r5, r2
 8001268:	4085      	lsls	r5, r0
 800126a:	43ac      	bics	r4, r5
 800126c:	0189      	lsls	r1, r1, #6
 800126e:	400a      	ands	r2, r1
 8001270:	4082      	lsls	r2, r0
 8001272:	4322      	orrs	r2, r4
 8001274:	605a      	str	r2, [r3, #4]
 8001276:	e7e7      	b.n	8001248 <__NVIC_SetPriority+0x28>
 8001278:	e000e100 	.word	0xe000e100
 800127c:	e000ed00 	.word	0xe000ed00

08001280 <SysTick_Config>:
 8001280:	3801      	subs	r0, #1
 8001282:	2380      	movs	r3, #128	@ 0x80
 8001284:	045b      	lsls	r3, r3, #17
 8001286:	4298      	cmp	r0, r3
 8001288:	d20f      	bcs.n	80012aa <SysTick_Config+0x2a>
 800128a:	4a09      	ldr	r2, [pc, #36]	@ (80012b0 <SysTick_Config+0x30>)
 800128c:	6050      	str	r0, [r2, #4]
 800128e:	4809      	ldr	r0, [pc, #36]	@ (80012b4 <SysTick_Config+0x34>)
 8001290:	6a03      	ldr	r3, [r0, #32]
 8001292:	021b      	lsls	r3, r3, #8
 8001294:	0a1b      	lsrs	r3, r3, #8
 8001296:	21c0      	movs	r1, #192	@ 0xc0
 8001298:	0609      	lsls	r1, r1, #24
 800129a:	430b      	orrs	r3, r1
 800129c:	6203      	str	r3, [r0, #32]
 800129e:	2300      	movs	r3, #0
 80012a0:	6093      	str	r3, [r2, #8]
 80012a2:	3307      	adds	r3, #7
 80012a4:	6013      	str	r3, [r2, #0]
 80012a6:	2000      	movs	r0, #0
 80012a8:	4770      	bx	lr
 80012aa:	2001      	movs	r0, #1
 80012ac:	e7fc      	b.n	80012a8 <SysTick_Config+0x28>
 80012ae:	46c0      	nop			@ (mov r8, r8)
 80012b0:	e000e010 	.word	0xe000e010
 80012b4:	e000ed00 	.word	0xe000ed00

080012b8 <HAL_NVIC_SetPriority>:
 80012b8:	b510      	push	{r4, lr}
 80012ba:	f7ff ffb1 	bl	8001220 <__NVIC_SetPriority>
 80012be:	bd10      	pop	{r4, pc}

080012c0 <HAL_NVIC_EnableIRQ>:
 80012c0:	2800      	cmp	r0, #0
 80012c2:	db05      	blt.n	80012d0 <HAL_NVIC_EnableIRQ+0x10>
 80012c4:	221f      	movs	r2, #31
 80012c6:	4002      	ands	r2, r0
 80012c8:	2301      	movs	r3, #1
 80012ca:	4093      	lsls	r3, r2
 80012cc:	4a01      	ldr	r2, [pc, #4]	@ (80012d4 <HAL_NVIC_EnableIRQ+0x14>)
 80012ce:	6013      	str	r3, [r2, #0]
 80012d0:	4770      	bx	lr
 80012d2:	46c0      	nop			@ (mov r8, r8)
 80012d4:	e000e100 	.word	0xe000e100

080012d8 <HAL_SYSTICK_Config>:
 80012d8:	b510      	push	{r4, lr}
 80012da:	f7ff ffd1 	bl	8001280 <SysTick_Config>
 80012de:	bd10      	pop	{r4, pc}

080012e0 <DMA_CalcDMAMUXChannelBaseAndMask>:
 80012e0:	b510      	push	{r4, lr}
 80012e2:	0004      	movs	r4, r0
 80012e4:	6803      	ldr	r3, [r0, #0]
 80012e6:	20ff      	movs	r0, #255	@ 0xff
 80012e8:	4018      	ands	r0, r3
 80012ea:	3808      	subs	r0, #8
 80012ec:	2114      	movs	r1, #20
 80012ee:	f7fe fef9 	bl	80000e4 <__udivsi3>
 80012f2:	6c23      	ldr	r3, [r4, #64]	@ 0x40
 80012f4:	089b      	lsrs	r3, r3, #2
 80012f6:	4a06      	ldr	r2, [pc, #24]	@ (8001310 <DMA_CalcDMAMUXChannelBaseAndMask+0x30>)
 80012f8:	4694      	mov	ip, r2
 80012fa:	4463      	add	r3, ip
 80012fc:	009b      	lsls	r3, r3, #2
 80012fe:	6463      	str	r3, [r4, #68]	@ 0x44
 8001300:	4b04      	ldr	r3, [pc, #16]	@ (8001314 <DMA_CalcDMAMUXChannelBaseAndMask+0x34>)
 8001302:	64a3      	str	r3, [r4, #72]	@ 0x48
 8001304:	231c      	movs	r3, #28
 8001306:	4018      	ands	r0, r3
 8001308:	3b1b      	subs	r3, #27
 800130a:	4083      	lsls	r3, r0
 800130c:	64e3      	str	r3, [r4, #76]	@ 0x4c
 800130e:	bd10      	pop	{r4, pc}
 8001310:	10008200 	.word	0x10008200
 8001314:	40020880 	.word	0x40020880

08001318 <DMA_CalcDMAMUXRequestGenBaseAndMask>:
 8001318:	6842      	ldr	r2, [r0, #4]
 800131a:	23ff      	movs	r3, #255	@ 0xff
 800131c:	4013      	ands	r3, r2
 800131e:	4a06      	ldr	r2, [pc, #24]	@ (8001338 <DMA_CalcDMAMUXRequestGenBaseAndMask+0x20>)
 8001320:	189a      	adds	r2, r3, r2
 8001322:	0092      	lsls	r2, r2, #2
 8001324:	6502      	str	r2, [r0, #80]	@ 0x50
 8001326:	4a05      	ldr	r2, [pc, #20]	@ (800133c <DMA_CalcDMAMUXRequestGenBaseAndMask+0x24>)
 8001328:	6542      	str	r2, [r0, #84]	@ 0x54
 800132a:	3b01      	subs	r3, #1
 800132c:	2203      	movs	r2, #3
 800132e:	401a      	ands	r2, r3
 8001330:	2301      	movs	r3, #1
 8001332:	4093      	lsls	r3, r2
 8001334:	6583      	str	r3, [r0, #88]	@ 0x58
 8001336:	4770      	bx	lr
 8001338:	1000823f 	.word	0x1000823f
 800133c:	40020940 	.word	0x40020940

08001340 <HAL_DMA_Init>:
 8001340:	b570      	push	{r4, r5, r6, lr}
 8001342:	1e04      	subs	r4, r0, #0
 8001344:	d04d      	beq.n	80013e2 <HAL_DMA_Init+0xa2>
 8001346:	6805      	ldr	r5, [r0, #0]
 8001348:	4b27      	ldr	r3, [pc, #156]	@ (80013e8 <HAL_DMA_Init+0xa8>)
 800134a:	18e8      	adds	r0, r5, r3
 800134c:	2114      	movs	r1, #20
 800134e:	f7fe fec9 	bl	80000e4 <__udivsi3>
 8001352:	0080      	lsls	r0, r0, #2
 8001354:	6420      	str	r0, [r4, #64]	@ 0x40
 8001356:	2325      	movs	r3, #37	@ 0x25
 8001358:	2202      	movs	r2, #2
 800135a:	54e2      	strb	r2, [r4, r3]
 800135c:	682b      	ldr	r3, [r5, #0]
 800135e:	4a23      	ldr	r2, [pc, #140]	@ (80013ec <HAL_DMA_Init+0xac>)
 8001360:	4013      	ands	r3, r2
 8001362:	602b      	str	r3, [r5, #0]
 8001364:	6821      	ldr	r1, [r4, #0]
 8001366:	680a      	ldr	r2, [r1, #0]
 8001368:	68a3      	ldr	r3, [r4, #8]
 800136a:	68e0      	ldr	r0, [r4, #12]
 800136c:	4303      	orrs	r3, r0
 800136e:	6920      	ldr	r0, [r4, #16]
 8001370:	4303      	orrs	r3, r0
 8001372:	6960      	ldr	r0, [r4, #20]
 8001374:	4303      	orrs	r3, r0
 8001376:	69a0      	ldr	r0, [r4, #24]
 8001378:	4303      	orrs	r3, r0
 800137a:	69e0      	ldr	r0, [r4, #28]
 800137c:	4303      	orrs	r3, r0
 800137e:	6a20      	ldr	r0, [r4, #32]
 8001380:	4303      	orrs	r3, r0
 8001382:	4313      	orrs	r3, r2
 8001384:	600b      	str	r3, [r1, #0]
 8001386:	0020      	movs	r0, r4
 8001388:	f7ff ffaa 	bl	80012e0 <DMA_CalcDMAMUXChannelBaseAndMask>
 800138c:	68a2      	ldr	r2, [r4, #8]
 800138e:	2380      	movs	r3, #128	@ 0x80
 8001390:	01db      	lsls	r3, r3, #7
 8001392:	429a      	cmp	r2, r3
 8001394:	d018      	beq.n	80013c8 <HAL_DMA_Init+0x88>
 8001396:	6861      	ldr	r1, [r4, #4]
 8001398:	6c62      	ldr	r2, [r4, #68]	@ 0x44
 800139a:	23ff      	movs	r3, #255	@ 0xff
 800139c:	400b      	ands	r3, r1
 800139e:	6013      	str	r3, [r2, #0]
 80013a0:	6ca3      	ldr	r3, [r4, #72]	@ 0x48
 80013a2:	6ce2      	ldr	r2, [r4, #76]	@ 0x4c
 80013a4:	605a      	str	r2, [r3, #4]
 80013a6:	6863      	ldr	r3, [r4, #4]
 80013a8:	3b01      	subs	r3, #1
 80013aa:	2b03      	cmp	r3, #3
 80013ac:	d90f      	bls.n	80013ce <HAL_DMA_Init+0x8e>
 80013ae:	2300      	movs	r3, #0
 80013b0:	6523      	str	r3, [r4, #80]	@ 0x50
 80013b2:	6563      	str	r3, [r4, #84]	@ 0x54
 80013b4:	65a3      	str	r3, [r4, #88]	@ 0x58
 80013b6:	2300      	movs	r3, #0
 80013b8:	63e3      	str	r3, [r4, #60]	@ 0x3c
 80013ba:	2225      	movs	r2, #37	@ 0x25
 80013bc:	2101      	movs	r1, #1
 80013be:	54a1      	strb	r1, [r4, r2]
 80013c0:	3a01      	subs	r2, #1
 80013c2:	54a3      	strb	r3, [r4, r2]
 80013c4:	2000      	movs	r0, #0
 80013c6:	bd70      	pop	{r4, r5, r6, pc}
 80013c8:	2300      	movs	r3, #0
 80013ca:	6063      	str	r3, [r4, #4]
 80013cc:	e7e3      	b.n	8001396 <HAL_DMA_Init+0x56>
 80013ce:	0020      	movs	r0, r4
 80013d0:	f7ff ffa2 	bl	8001318 <DMA_CalcDMAMUXRequestGenBaseAndMask>
 80013d4:	6d23      	ldr	r3, [r4, #80]	@ 0x50
 80013d6:	2200      	movs	r2, #0
 80013d8:	601a      	str	r2, [r3, #0]
 80013da:	6d63      	ldr	r3, [r4, #84]	@ 0x54
 80013dc:	6da2      	ldr	r2, [r4, #88]	@ 0x58
 80013de:	605a      	str	r2, [r3, #4]
 80013e0:	e7e9      	b.n	80013b6 <HAL_DMA_Init+0x76>
 80013e2:	2001      	movs	r0, #1
 80013e4:	e7ef      	b.n	80013c6 <HAL_DMA_Init+0x86>
 80013e6:	46c0      	nop			@ (mov r8, r8)
 80013e8:	bffdfff8 	.word	0xbffdfff8
 80013ec:	ffff800f 	.word	0xffff800f

080013f0 <HAL_DMA_IRQHandler>:
 80013f0:	b570      	push	{r4, r5, r6, lr}
 80013f2:	4b31      	ldr	r3, [pc, #196]	@ (80014b8 <HAL_DMA_IRQHandler+0xc8>)
 80013f4:	6819      	ldr	r1, [r3, #0]
 80013f6:	6804      	ldr	r4, [r0, #0]
 80013f8:	6825      	ldr	r5, [r4, #0]
 80013fa:	6c02      	ldr	r2, [r0, #64]	@ 0x40
 80013fc:	231c      	movs	r3, #28
 80013fe:	4013      	ands	r3, r2
 8001400:	2204      	movs	r2, #4
 8001402:	409a      	lsls	r2, r3
 8001404:	4211      	tst	r1, r2
 8001406:	d016      	beq.n	8001436 <HAL_DMA_IRQHandler+0x46>
 8001408:	076a      	lsls	r2, r5, #29
 800140a:	d514      	bpl.n	8001436 <HAL_DMA_IRQHandler+0x46>
 800140c:	6823      	ldr	r3, [r4, #0]
 800140e:	069b      	lsls	r3, r3, #26
 8001410:	d403      	bmi.n	800141a <HAL_DMA_IRQHandler+0x2a>
 8001412:	6823      	ldr	r3, [r4, #0]
 8001414:	2204      	movs	r2, #4
 8001416:	4393      	bics	r3, r2
 8001418:	6023      	str	r3, [r4, #0]
 800141a:	4c27      	ldr	r4, [pc, #156]	@ (80014b8 <HAL_DMA_IRQHandler+0xc8>)
 800141c:	6863      	ldr	r3, [r4, #4]
 800141e:	6c02      	ldr	r2, [r0, #64]	@ 0x40
 8001420:	211c      	movs	r1, #28
 8001422:	4011      	ands	r1, r2
 8001424:	2204      	movs	r2, #4
 8001426:	408a      	lsls	r2, r1
 8001428:	4313      	orrs	r3, r2
 800142a:	6063      	str	r3, [r4, #4]
 800142c:	6b03      	ldr	r3, [r0, #48]	@ 0x30
 800142e:	2b00      	cmp	r3, #0
 8001430:	d000      	beq.n	8001434 <HAL_DMA_IRQHandler+0x44>
 8001432:	4798      	blx	r3
 8001434:	bd70      	pop	{r4, r5, r6, pc}
 8001436:	2202      	movs	r2, #2
 8001438:	409a      	lsls	r2, r3
 800143a:	4211      	tst	r1, r2
 800143c:	d01c      	beq.n	8001478 <HAL_DMA_IRQHandler+0x88>
 800143e:	07aa      	lsls	r2, r5, #30
 8001440:	d51a      	bpl.n	8001478 <HAL_DMA_IRQHandler+0x88>
 8001442:	6823      	ldr	r3, [r4, #0]
 8001444:	069b      	lsls	r3, r3, #26
 8001446:	d406      	bmi.n	8001456 <HAL_DMA_IRQHandler+0x66>
 8001448:	6823      	ldr	r3, [r4, #0]
 800144a:	220a      	movs	r2, #10
 800144c:	4393      	bics	r3, r2
 800144e:	6023      	str	r3, [r4, #0]
 8001450:	2325      	movs	r3, #37	@ 0x25
 8001452:	3a09      	subs	r2, #9
 8001454:	54c2      	strb	r2, [r0, r3]
 8001456:	4c18      	ldr	r4, [pc, #96]	@ (80014b8 <HAL_DMA_IRQHandler+0xc8>)
 8001458:	6863      	ldr	r3, [r4, #4]
 800145a:	6c02      	ldr	r2, [r0, #64]	@ 0x40
 800145c:	211c      	movs	r1, #28
 800145e:	4011      	ands	r1, r2
 8001460:	2202      	movs	r2, #2
 8001462:	408a      	lsls	r2, r1
 8001464:	4313      	orrs	r3, r2
 8001466:	6063      	str	r3, [r4, #4]
 8001468:	2324      	movs	r3, #36	@ 0x24
 800146a:	2200      	movs	r2, #0
 800146c:	54c2      	strb	r2, [r0, r3]
 800146e:	6ac3      	ldr	r3, [r0, #44]	@ 0x2c
 8001470:	2b00      	cmp	r3, #0
 8001472:	d0df      	beq.n	8001434 <HAL_DMA_IRQHandler+0x44>
 8001474:	4798      	blx	r3
 8001476:	e7dd      	b.n	8001434 <HAL_DMA_IRQHandler+0x44>
 8001478:	2208      	movs	r2, #8
 800147a:	409a      	lsls	r2, r3
 800147c:	4211      	tst	r1, r2
 800147e:	d0d9      	beq.n	8001434 <HAL_DMA_IRQHandler+0x44>
 8001480:	072d      	lsls	r5, r5, #28
 8001482:	d5d7      	bpl.n	8001434 <HAL_DMA_IRQHandler+0x44>
 8001484:	6823      	ldr	r3, [r4, #0]
 8001486:	220e      	movs	r2, #14
 8001488:	4393      	bics	r3, r2
 800148a:	6023      	str	r3, [r4, #0]
 800148c:	4c0a      	ldr	r4, [pc, #40]	@ (80014b8 <HAL_DMA_IRQHandler+0xc8>)
 800148e:	6862      	ldr	r2, [r4, #4]
 8001490:	6c03      	ldr	r3, [r0, #64]	@ 0x40
 8001492:	211c      	movs	r1, #28
 8001494:	4019      	ands	r1, r3
 8001496:	2301      	movs	r3, #1
 8001498:	001d      	movs	r5, r3
 800149a:	408d      	lsls	r5, r1
 800149c:	432a      	orrs	r2, r5
 800149e:	6062      	str	r2, [r4, #4]
 80014a0:	63c3      	str	r3, [r0, #60]	@ 0x3c
 80014a2:	2225      	movs	r2, #37	@ 0x25
 80014a4:	5483      	strb	r3, [r0, r2]
 80014a6:	3323      	adds	r3, #35	@ 0x23
 80014a8:	2200      	movs	r2, #0
 80014aa:	54c2      	strb	r2, [r0, r3]
 80014ac:	6b43      	ldr	r3, [r0, #52]	@ 0x34
 80014ae:	2b00      	cmp	r3, #0
 80014b0:	d0c0      	beq.n	8001434 <HAL_DMA_IRQHandler+0x44>
 80014b2:	4798      	blx	r3
 80014b4:	e7be      	b.n	8001434 <HAL_DMA_IRQHandler+0x44>
 80014b6:	46c0      	nop			@ (mov r8, r8)
 80014b8:	40020000 	.word	0x40020000

080014bc <HAL_EXTI_RegisterCallback>:
 80014bc:	2901      	cmp	r1, #1
 80014be:	d007      	beq.n	80014d0 <HAL_EXTI_RegisterCallback+0x14>
 80014c0:	2902      	cmp	r1, #2
 80014c2:	d008      	beq.n	80014d6 <HAL_EXTI_RegisterCallback+0x1a>
 80014c4:	2900      	cmp	r1, #0
 80014c6:	d109      	bne.n	80014dc <HAL_EXTI_RegisterCallback+0x20>
 80014c8:	6042      	str	r2, [r0, #4]
 80014ca:	6082      	str	r2, [r0, #8]
 80014cc:	0008      	movs	r0, r1
 80014ce:	4770      	bx	lr
 80014d0:	6042      	str	r2, [r0, #4]
 80014d2:	2000      	movs	r0, #0
 80014d4:	e7fb      	b.n	80014ce <HAL_EXTI_RegisterCallback+0x12>
 80014d6:	6082      	str	r2, [r0, #8]
 80014d8:	2000      	movs	r0, #0
 80014da:	e7f8      	b.n	80014ce <HAL_EXTI_RegisterCallback+0x12>
 80014dc:	2001      	movs	r0, #1
 80014de:	e7f6      	b.n	80014ce <HAL_EXTI_RegisterCallback+0x12>

080014e0 <HAL_EXTI_GetHandle>:
 80014e0:	2800      	cmp	r0, #0
 80014e2:	d002      	beq.n	80014ea <HAL_EXTI_GetHandle+0xa>
 80014e4:	6001      	str	r1, [r0, #0]
 80014e6:	2000      	movs	r0, #0
 80014e8:	4770      	bx	lr
 80014ea:	2001      	movs	r0, #1
 80014ec:	e7fc      	b.n	80014e8 <HAL_EXTI_GetHandle+0x8>
	...

080014f0 <HAL_EXTI_IRQHandler>:
 80014f0:	b570      	push	{r4, r5, r6, lr}
 80014f2:	0006      	movs	r6, r0
 80014f4:	6802      	ldr	r2, [r0, #0]
 80014f6:	0c14      	lsrs	r4, r2, #16
 80014f8:	2501      	movs	r5, #1
 80014fa:	402c      	ands	r4, r5
 80014fc:	231f      	movs	r3, #31
 80014fe:	4013      	ands	r3, r2
 8001500:	409d      	lsls	r5, r3
 8001502:	0164      	lsls	r4, r4, #5
 8001504:	4b0a      	ldr	r3, [pc, #40]	@ (8001530 <HAL_EXTI_IRQHandler+0x40>)
 8001506:	18e3      	adds	r3, r4, r3
 8001508:	681a      	ldr	r2, [r3, #0]
 800150a:	4215      	tst	r5, r2
 800150c:	d004      	beq.n	8001518 <HAL_EXTI_IRQHandler+0x28>
 800150e:	601d      	str	r5, [r3, #0]
 8001510:	6843      	ldr	r3, [r0, #4]
 8001512:	2b00      	cmp	r3, #0
 8001514:	d000      	beq.n	8001518 <HAL_EXTI_IRQHandler+0x28>
 8001516:	4798      	blx	r3
 8001518:	4b06      	ldr	r3, [pc, #24]	@ (8001534 <HAL_EXTI_IRQHandler+0x44>)
 800151a:	469c      	mov	ip, r3
 800151c:	4464      	add	r4, ip
 800151e:	6823      	ldr	r3, [r4, #0]
 8001520:	421d      	tst	r5, r3
 8001522:	d004      	beq.n	800152e <HAL_EXTI_IRQHandler+0x3e>
 8001524:	6025      	str	r5, [r4, #0]
 8001526:	68b3      	ldr	r3, [r6, #8]
 8001528:	2b00      	cmp	r3, #0
 800152a:	d000      	beq.n	800152e <HAL_EXTI_IRQHandler+0x3e>
 800152c:	4798      	blx	r3
 800152e:	bd70      	pop	{r4, r5, r6, pc}
 8001530:	4002180c 	.word	0x4002180c
 8001534:	40021810 	.word	0x40021810

08001538 <HAL_GPIO_Init>:
 8001538:	b5f0      	push	{r4, r5, r6, r7, lr}
 800153a:	46d6      	mov	lr, sl
 800153c:	464f      	mov	r7, r9
 800153e:	4646      	mov	r6, r8
 8001540:	b5c0      	push	{r6, r7, lr}
 8001542:	2300      	movs	r3, #0
 8001544:	e03b      	b.n	80015be <HAL_GPIO_Init+0x86>
 8001546:	2505      	movs	r5, #5
 8001548:	e000      	b.n	800154c <HAL_GPIO_Init+0x14>
 800154a:	2500      	movs	r5, #0
 800154c:	40a5      	lsls	r5, r4
 800154e:	002c      	movs	r4, r5
 8001550:	433c      	orrs	r4, r7
 8001552:	4d63      	ldr	r5, [pc, #396]	@ (80016e0 <HAL_GPIO_Init+0x1a8>)
 8001554:	3218      	adds	r2, #24
 8001556:	0092      	lsls	r2, r2, #2
 8001558:	5154      	str	r4, [r2, r5]
 800155a:	2280      	movs	r2, #128	@ 0x80
 800155c:	58af      	ldr	r7, [r5, r2]
 800155e:	464a      	mov	r2, r9
 8001560:	43d2      	mvns	r2, r2
 8001562:	003d      	movs	r5, r7
 8001564:	464c      	mov	r4, r9
 8001566:	43a5      	bics	r5, r4
 8001568:	684c      	ldr	r4, [r1, #4]
 800156a:	03e4      	lsls	r4, r4, #15
 800156c:	d502      	bpl.n	8001574 <HAL_GPIO_Init+0x3c>
 800156e:	003d      	movs	r5, r7
 8001570:	464c      	mov	r4, r9
 8001572:	4325      	orrs	r5, r4
 8001574:	4c5a      	ldr	r4, [pc, #360]	@ (80016e0 <HAL_GPIO_Init+0x1a8>)
 8001576:	2780      	movs	r7, #128	@ 0x80
 8001578:	51e5      	str	r5, [r4, r7]
 800157a:	2584      	movs	r5, #132	@ 0x84
 800157c:	5967      	ldr	r7, [r4, r5]
 800157e:	003d      	movs	r5, r7
 8001580:	4015      	ands	r5, r2
 8001582:	684c      	ldr	r4, [r1, #4]
 8001584:	03a4      	lsls	r4, r4, #14
 8001586:	d502      	bpl.n	800158e <HAL_GPIO_Init+0x56>
 8001588:	003d      	movs	r5, r7
 800158a:	464c      	mov	r4, r9
 800158c:	4325      	orrs	r5, r4
 800158e:	4c54      	ldr	r4, [pc, #336]	@ (80016e0 <HAL_GPIO_Init+0x1a8>)
 8001590:	2784      	movs	r7, #132	@ 0x84
 8001592:	51e5      	str	r5, [r4, r7]
 8001594:	6827      	ldr	r7, [r4, #0]
 8001596:	003d      	movs	r5, r7
 8001598:	4015      	ands	r5, r2
 800159a:	684c      	ldr	r4, [r1, #4]
 800159c:	02e4      	lsls	r4, r4, #11
 800159e:	d502      	bpl.n	80015a6 <HAL_GPIO_Init+0x6e>
 80015a0:	003d      	movs	r5, r7
 80015a2:	464c      	mov	r4, r9
 80015a4:	4325      	orrs	r5, r4
 80015a6:	4c4e      	ldr	r4, [pc, #312]	@ (80016e0 <HAL_GPIO_Init+0x1a8>)
 80015a8:	6025      	str	r5, [r4, #0]
 80015aa:	6865      	ldr	r5, [r4, #4]
 80015ac:	402a      	ands	r2, r5
 80015ae:	684c      	ldr	r4, [r1, #4]
 80015b0:	02a4      	lsls	r4, r4, #10
 80015b2:	d501      	bpl.n	80015b8 <HAL_GPIO_Init+0x80>
 80015b4:	464a      	mov	r2, r9
 80015b6:	432a      	orrs	r2, r5
 80015b8:	4c49      	ldr	r4, [pc, #292]	@ (80016e0 <HAL_GPIO_Init+0x1a8>)
 80015ba:	6062      	str	r2, [r4, #4]
 80015bc:	3301      	adds	r3, #1
 80015be:	680c      	ldr	r4, [r1, #0]
 80015c0:	0022      	movs	r2, r4
 80015c2:	40da      	lsrs	r2, r3
 80015c4:	d100      	bne.n	80015c8 <HAL_GPIO_Init+0x90>
 80015c6:	e086      	b.n	80016d6 <HAL_GPIO_Init+0x19e>
 80015c8:	2201      	movs	r2, #1
 80015ca:	409a      	lsls	r2, r3
 80015cc:	0026      	movs	r6, r4
 80015ce:	4016      	ands	r6, r2
 80015d0:	46b1      	mov	r9, r6
 80015d2:	4214      	tst	r4, r2
 80015d4:	d0f2      	beq.n	80015bc <HAL_GPIO_Init+0x84>
 80015d6:	684c      	ldr	r4, [r1, #4]
 80015d8:	2c02      	cmp	r4, #2
 80015da:	d001      	beq.n	80015e0 <HAL_GPIO_Init+0xa8>
 80015dc:	2c12      	cmp	r4, #18
 80015de:	d118      	bne.n	8001612 <HAL_GPIO_Init+0xda>
 80015e0:	08dd      	lsrs	r5, r3, #3
 80015e2:	3508      	adds	r5, #8
 80015e4:	00ad      	lsls	r5, r5, #2
 80015e6:	582c      	ldr	r4, [r5, r0]
 80015e8:	46a4      	mov	ip, r4
 80015ea:	2707      	movs	r7, #7
 80015ec:	401f      	ands	r7, r3
 80015ee:	00bf      	lsls	r7, r7, #2
 80015f0:	240f      	movs	r4, #15
 80015f2:	46a2      	mov	sl, r4
 80015f4:	0026      	movs	r6, r4
 80015f6:	40be      	lsls	r6, r7
 80015f8:	46b0      	mov	r8, r6
 80015fa:	4666      	mov	r6, ip
 80015fc:	4644      	mov	r4, r8
 80015fe:	43a6      	bics	r6, r4
 8001600:	46b4      	mov	ip, r6
 8001602:	690c      	ldr	r4, [r1, #16]
 8001604:	4656      	mov	r6, sl
 8001606:	4026      	ands	r6, r4
 8001608:	0034      	movs	r4, r6
 800160a:	40bc      	lsls	r4, r7
 800160c:	4666      	mov	r6, ip
 800160e:	4334      	orrs	r4, r6
 8001610:	502c      	str	r4, [r5, r0]
 8001612:	6804      	ldr	r4, [r0, #0]
 8001614:	46a4      	mov	ip, r4
 8001616:	005d      	lsls	r5, r3, #1
 8001618:	2403      	movs	r4, #3
 800161a:	46a2      	mov	sl, r4
 800161c:	0027      	movs	r7, r4
 800161e:	40af      	lsls	r7, r5
 8001620:	46b8      	mov	r8, r7
 8001622:	43ff      	mvns	r7, r7
 8001624:	4666      	mov	r6, ip
 8001626:	4644      	mov	r4, r8
 8001628:	43a6      	bics	r6, r4
 800162a:	46b4      	mov	ip, r6
 800162c:	684c      	ldr	r4, [r1, #4]
 800162e:	4656      	mov	r6, sl
 8001630:	4026      	ands	r6, r4
 8001632:	0034      	movs	r4, r6
 8001634:	40ac      	lsls	r4, r5
 8001636:	4666      	mov	r6, ip
 8001638:	4334      	orrs	r4, r6
 800163a:	6004      	str	r4, [r0, #0]
 800163c:	684c      	ldr	r4, [r1, #4]
 800163e:	1e66      	subs	r6, r4, #1
 8001640:	2e01      	cmp	r6, #1
 8001642:	d903      	bls.n	800164c <HAL_GPIO_Init+0x114>
 8001644:	2c11      	cmp	r4, #17
 8001646:	d001      	beq.n	800164c <HAL_GPIO_Init+0x114>
 8001648:	2c12      	cmp	r4, #18
 800164a:	d112      	bne.n	8001672 <HAL_GPIO_Init+0x13a>
 800164c:	6884      	ldr	r4, [r0, #8]
 800164e:	403c      	ands	r4, r7
 8001650:	46a4      	mov	ip, r4
 8001652:	68cc      	ldr	r4, [r1, #12]
 8001654:	40ac      	lsls	r4, r5
 8001656:	4666      	mov	r6, ip
 8001658:	4334      	orrs	r4, r6
 800165a:	6084      	str	r4, [r0, #8]
 800165c:	6844      	ldr	r4, [r0, #4]
 800165e:	4394      	bics	r4, r2
 8001660:	684a      	ldr	r2, [r1, #4]
 8001662:	0912      	lsrs	r2, r2, #4
 8001664:	4694      	mov	ip, r2
 8001666:	2201      	movs	r2, #1
 8001668:	4666      	mov	r6, ip
 800166a:	4032      	ands	r2, r6
 800166c:	409a      	lsls	r2, r3
 800166e:	4322      	orrs	r2, r4
 8001670:	6042      	str	r2, [r0, #4]
 8001672:	684a      	ldr	r2, [r1, #4]
 8001674:	2a03      	cmp	r2, #3
 8001676:	d005      	beq.n	8001684 <HAL_GPIO_Init+0x14c>
 8001678:	68c4      	ldr	r4, [r0, #12]
 800167a:	403c      	ands	r4, r7
 800167c:	688a      	ldr	r2, [r1, #8]
 800167e:	40aa      	lsls	r2, r5
 8001680:	4322      	orrs	r2, r4
 8001682:	60c2      	str	r2, [r0, #12]
 8001684:	684a      	ldr	r2, [r1, #4]
 8001686:	00d2      	lsls	r2, r2, #3
 8001688:	d598      	bpl.n	80015bc <HAL_GPIO_Init+0x84>
 800168a:	089a      	lsrs	r2, r3, #2
 800168c:	0014      	movs	r4, r2
 800168e:	3418      	adds	r4, #24
 8001690:	00a4      	lsls	r4, r4, #2
 8001692:	4d13      	ldr	r5, [pc, #76]	@ (80016e0 <HAL_GPIO_Init+0x1a8>)
 8001694:	5967      	ldr	r7, [r4, r5]
 8001696:	2403      	movs	r4, #3
 8001698:	401c      	ands	r4, r3
 800169a:	00e4      	lsls	r4, r4, #3
 800169c:	250f      	movs	r5, #15
 800169e:	40a5      	lsls	r5, r4
 80016a0:	43af      	bics	r7, r5
 80016a2:	25a0      	movs	r5, #160	@ 0xa0
 80016a4:	05ed      	lsls	r5, r5, #23
 80016a6:	42a8      	cmp	r0, r5
 80016a8:	d100      	bne.n	80016ac <HAL_GPIO_Init+0x174>
 80016aa:	e74e      	b.n	800154a <HAL_GPIO_Init+0x12>
 80016ac:	4d0d      	ldr	r5, [pc, #52]	@ (80016e4 <HAL_GPIO_Init+0x1ac>)
 80016ae:	42a8      	cmp	r0, r5
 80016b0:	d00b      	beq.n	80016ca <HAL_GPIO_Init+0x192>
 80016b2:	4d0d      	ldr	r5, [pc, #52]	@ (80016e8 <HAL_GPIO_Init+0x1b0>)
 80016b4:	42a8      	cmp	r0, r5
 80016b6:	d00a      	beq.n	80016ce <HAL_GPIO_Init+0x196>
 80016b8:	4d0c      	ldr	r5, [pc, #48]	@ (80016ec <HAL_GPIO_Init+0x1b4>)
 80016ba:	42a8      	cmp	r0, r5
 80016bc:	d009      	beq.n	80016d2 <HAL_GPIO_Init+0x19a>
 80016be:	4d0c      	ldr	r5, [pc, #48]	@ (80016f0 <HAL_GPIO_Init+0x1b8>)
 80016c0:	42a8      	cmp	r0, r5
 80016c2:	d100      	bne.n	80016c6 <HAL_GPIO_Init+0x18e>
 80016c4:	e73f      	b.n	8001546 <HAL_GPIO_Init+0xe>
 80016c6:	2506      	movs	r5, #6
 80016c8:	e740      	b.n	800154c <HAL_GPIO_Init+0x14>
 80016ca:	2501      	movs	r5, #1
 80016cc:	e73e      	b.n	800154c <HAL_GPIO_Init+0x14>
 80016ce:	2502      	movs	r5, #2
 80016d0:	e73c      	b.n	800154c <HAL_GPIO_Init+0x14>
 80016d2:	2503      	movs	r5, #3
 80016d4:	e73a      	b.n	800154c <HAL_GPIO_Init+0x14>
 80016d6:	bce0      	pop	{r5, r6, r7}
 80016d8:	46ba      	mov	sl, r7
 80016da:	46b1      	mov	r9, r6
 80016dc:	46a8      	mov	r8, r5
 80016de:	bdf0      	pop	{r4, r5, r6, r7, pc}
 80016e0:	40021800 	.word	0x40021800
 80016e4:	50000400 	.word	0x50000400
 80016e8:	50000800 	.word	0x50000800
 80016ec:	50000c00 	.word	0x50000c00
 80016f0:	50001400 	.word	0x50001400

080016f4 <HAL_GPIO_ReadPin>:
 80016f4:	6903      	ldr	r3, [r0, #16]
 80016f6:	420b      	tst	r3, r1
 80016f8:	d001      	beq.n	80016fe <HAL_GPIO_ReadPin+0xa>
 80016fa:	2001      	movs	r0, #1
 80016fc:	4770      	bx	lr
 80016fe:	2000      	movs	r0, #0
 8001700:	e7fc      	b.n	80016fc <HAL_GPIO_ReadPin+0x8>

08001702 <HAL_GPIO_WritePin>:
 8001702:	2a00      	cmp	r2, #0
 8001704:	d001      	beq.n	800170a <HAL_GPIO_WritePin+0x8>
 8001706:	6181      	str	r1, [r0, #24]
 8001708:	4770      	bx	lr
 800170a:	6281      	str	r1, [r0, #40]	@ 0x28
 800170c:	e7fc      	b.n	8001708 <HAL_GPIO_WritePin+0x6>

0800170e <HAL_GPIO_TogglePin>:
 800170e:	6942      	ldr	r2, [r0, #20]
 8001710:	0013      	movs	r3, r2
 8001712:	400b      	ands	r3, r1
 8001714:	041b      	lsls	r3, r3, #16
 8001716:	4391      	bics	r1, r2
 8001718:	430b      	orrs	r3, r1
 800171a:	6183      	str	r3, [r0, #24]
 800171c:	4770      	bx	lr
	...

08001720 <HAL_MspInit>:
 8001720:	b082      	sub	sp, #8
 8001722:	4b0a      	ldr	r3, [pc, #40]	@ (800174c <HAL_MspInit+0x2c>)
 8001724:	6c19      	ldr	r1, [r3, #64]	@ 0x40
 8001726:	2201      	movs	r2, #1
 8001728:	4311      	orrs	r1, r2
 800172a:	6419      	str	r1, [r3, #64]	@ 0x40
 800172c:	6c19      	ldr	r1, [r3, #64]	@ 0x40
 800172e:	400a      	ands	r2, r1
 8001730:	9200      	str	r2, [sp, #0]
 8001732:	9a00      	ldr	r2, [sp, #0]
 8001734:	6bda      	ldr	r2, [r3, #60]	@ 0x3c
 8001736:	2180      	movs	r1, #128	@ 0x80
 8001738:	0549      	lsls	r1, r1, #21
 800173a:	430a      	orrs	r2, r1
 800173c:	63da      	str	r2, [r3, #60]	@ 0x3c
 800173e:	6bdb      	ldr	r3, [r3, #60]	@ 0x3c
 8001740:	400b      	ands	r3, r1
 8001742:	9301      	str	r3, [sp, #4]
 8001744:	9b01      	ldr	r3, [sp, #4]
 8001746:	b002      	add	sp, #8
 8001748:	4770      	bx	lr
 800174a:	46c0      	nop			@ (mov r8, r8)
 800174c:	40021000 	.word	0x40021000

08001750 <HAL_ADC_MspInit>:
 8001750:	b530      	push	{r4, r5, lr}
 8001752:	b08f      	sub	sp, #60	@ 0x3c
 8001754:	0004      	movs	r4, r0
 8001756:	2214      	movs	r2, #20
 8001758:	2100      	movs	r1, #0
 800175a:	a809      	add	r0, sp, #36	@ 0x24
 800175c:	f001 f996 	bl	8002a8c <memset>
 8001760:	221c      	movs	r2, #28
 8001762:	2100      	movs	r1, #0
 8001764:	a802      	add	r0, sp, #8
 8001766:	f001 f991 	bl	8002a8c <memset>
 800176a:	6822      	ldr	r2, [r4, #0]
 800176c:	4b24      	ldr	r3, [pc, #144]	@ (8001800 <HAL_ADC_MspInit+0xb0>)
 800176e:	429a      	cmp	r2, r3
 8001770:	d001      	beq.n	8001776 <HAL_ADC_MspInit+0x26>
 8001772:	b00f      	add	sp, #60	@ 0x3c
 8001774:	bd30      	pop	{r4, r5, pc}
 8001776:	2320      	movs	r3, #32
 8001778:	9302      	str	r3, [sp, #8]
 800177a:	a802      	add	r0, sp, #8
 800177c:	f000 faf2 	bl	8001d64 <HAL_RCCEx_PeriphCLKConfig>
 8001780:	2800      	cmp	r0, #0
 8001782:	d136      	bne.n	80017f2 <HAL_ADC_MspInit+0xa2>
 8001784:	4b1f      	ldr	r3, [pc, #124]	@ (8001804 <HAL_ADC_MspInit+0xb4>)
 8001786:	6c1a      	ldr	r2, [r3, #64]	@ 0x40
 8001788:	2180      	movs	r1, #128	@ 0x80
 800178a:	0349      	lsls	r1, r1, #13
 800178c:	430a      	orrs	r2, r1
 800178e:	641a      	str	r2, [r3, #64]	@ 0x40
 8001790:	6c1a      	ldr	r2, [r3, #64]	@ 0x40
 8001792:	400a      	ands	r2, r1
 8001794:	9200      	str	r2, [sp, #0]
 8001796:	9a00      	ldr	r2, [sp, #0]
 8001798:	6b59      	ldr	r1, [r3, #52]	@ 0x34
 800179a:	2201      	movs	r2, #1
 800179c:	4311      	orrs	r1, r2
 800179e:	6359      	str	r1, [r3, #52]	@ 0x34
 80017a0:	6b5b      	ldr	r3, [r3, #52]	@ 0x34
 80017a2:	401a      	ands	r2, r3
 80017a4:	9201      	str	r2, [sp, #4]
 80017a6:	9b01      	ldr	r3, [sp, #4]
 80017a8:	a909      	add	r1, sp, #36	@ 0x24
 80017aa:	2310      	movs	r3, #16
 80017ac:	9309      	str	r3, [sp, #36]	@ 0x24
 80017ae:	3b0d      	subs	r3, #13
 80017b0:	604b      	str	r3, [r1, #4]
 80017b2:	2500      	movs	r5, #0
 80017b4:	608d      	str	r5, [r1, #8]
 80017b6:	20a0      	movs	r0, #160	@ 0xa0
 80017b8:	05c0      	lsls	r0, r0, #23
 80017ba:	f7ff febd 	bl	8001538 <HAL_GPIO_Init>
 80017be:	4812      	ldr	r0, [pc, #72]	@ (8001808 <HAL_ADC_MspInit+0xb8>)
 80017c0:	4b12      	ldr	r3, [pc, #72]	@ (800180c <HAL_ADC_MspInit+0xbc>)
 80017c2:	6003      	str	r3, [r0, #0]
 80017c4:	2305      	movs	r3, #5
 80017c6:	6043      	str	r3, [r0, #4]
 80017c8:	6085      	str	r5, [r0, #8]
 80017ca:	60c5      	str	r5, [r0, #12]
 80017cc:	337b      	adds	r3, #123	@ 0x7b
 80017ce:	6103      	str	r3, [r0, #16]
 80017d0:	3380      	adds	r3, #128	@ 0x80
 80017d2:	6143      	str	r3, [r0, #20]
 80017d4:	2380      	movs	r3, #128	@ 0x80
 80017d6:	00db      	lsls	r3, r3, #3
 80017d8:	6183      	str	r3, [r0, #24]
 80017da:	61c5      	str	r5, [r0, #28]
 80017dc:	2380      	movs	r3, #128	@ 0x80
 80017de:	015b      	lsls	r3, r3, #5
 80017e0:	6203      	str	r3, [r0, #32]
 80017e2:	f7ff fdad 	bl	8001340 <HAL_DMA_Init>
 80017e6:	2800      	cmp	r0, #0
 80017e8:	d106      	bne.n	80017f8 <HAL_ADC_MspInit+0xa8>
 80017ea:	4b07      	ldr	r3, [pc, #28]	@ (8001808 <HAL_ADC_MspInit+0xb8>)
 80017ec:	6523      	str	r3, [r4, #80]	@ 0x50
 80017ee:	629c      	str	r4, [r3, #40]	@ 0x28
 80017f0:	e7bf      	b.n	8001772 <HAL_ADC_MspInit+0x22>
 80017f2:	f7fe fef5 	bl	80005e0 <Error_Handler>
 80017f6:	e7c5      	b.n	8001784 <HAL_ADC_MspInit+0x34>
 80017f8:	f7fe fef2 	bl	80005e0 <Error_Handler>
 80017fc:	e7f5      	b.n	80017ea <HAL_ADC_MspInit+0x9a>
 80017fe:	46c0      	nop			@ (mov r8, r8)
 8001800:	40012400 	.word	0x40012400
 8001804:	40021000 	.word	0x40021000
 8001808:	20000380 	.word	0x20000380
 800180c:	40020008 	.word	0x40020008

08001810 <HAL_UART_MspInit>:
 8001810:	b510      	push	{r4, lr}
 8001812:	b088      	sub	sp, #32
 8001814:	0004      	movs	r4, r0
 8001816:	2214      	movs	r2, #20
 8001818:	2100      	movs	r1, #0
 800181a:	a803      	add	r0, sp, #12
 800181c:	f001 f936 	bl	8002a8c <memset>
 8001820:	6822      	ldr	r2, [r4, #0]
 8001822:	4b11      	ldr	r3, [pc, #68]	@ (8001868 <HAL_UART_MspInit+0x58>)
 8001824:	429a      	cmp	r2, r3
 8001826:	d001      	beq.n	800182c <HAL_UART_MspInit+0x1c>
 8001828:	b008      	add	sp, #32
 800182a:	bd10      	pop	{r4, pc}
 800182c:	4b0f      	ldr	r3, [pc, #60]	@ (800186c <HAL_UART_MspInit+0x5c>)
 800182e:	6bda      	ldr	r2, [r3, #60]	@ 0x3c
 8001830:	2180      	movs	r1, #128	@ 0x80
 8001832:	0289      	lsls	r1, r1, #10
 8001834:	430a      	orrs	r2, r1
 8001836:	63da      	str	r2, [r3, #60]	@ 0x3c
 8001838:	6bda      	ldr	r2, [r3, #60]	@ 0x3c
 800183a:	400a      	ands	r2, r1
 800183c:	9201      	str	r2, [sp, #4]
 800183e:	9a01      	ldr	r2, [sp, #4]
 8001840:	6b59      	ldr	r1, [r3, #52]	@ 0x34
 8001842:	2201      	movs	r2, #1
 8001844:	4311      	orrs	r1, r2
 8001846:	6359      	str	r1, [r3, #52]	@ 0x34
 8001848:	6b5b      	ldr	r3, [r3, #52]	@ 0x34
 800184a:	4013      	ands	r3, r2
 800184c:	9302      	str	r3, [sp, #8]
 800184e:	9b02      	ldr	r3, [sp, #8]
 8001850:	a903      	add	r1, sp, #12
 8001852:	230c      	movs	r3, #12
 8001854:	9303      	str	r3, [sp, #12]
 8001856:	3b0a      	subs	r3, #10
 8001858:	604b      	str	r3, [r1, #4]
 800185a:	610a      	str	r2, [r1, #16]
 800185c:	20a0      	movs	r0, #160	@ 0xa0
 800185e:	05c0      	lsls	r0, r0, #23
 8001860:	f7ff fe6a 	bl	8001538 <HAL_GPIO_Init>
 8001864:	e7e0      	b.n	8001828 <HAL_UART_MspInit+0x18>
 8001866:	46c0      	nop			@ (mov r8, r8)
 8001868:	40004400 	.word	0x40004400
 800186c:	40021000 	.word	0x40021000

08001870 <HAL_RCC_OscConfig>:
 8001870:	b570      	push	{r4, r5, r6, lr}
 8001872:	1e04      	subs	r4, r0, #0
 8001874:	d100      	bne.n	8001878 <HAL_RCC_OscConfig+0x8>
 8001876:	e139      	b.n	8001aec <HAL_RCC_OscConfig+0x27c>
 8001878:	6803      	ldr	r3, [r0, #0]
 800187a:	07db      	lsls	r3, r3, #31
 800187c:	d52c      	bpl.n	80018d8 <HAL_RCC_OscConfig+0x68>
 800187e:	4ba1      	ldr	r3, [pc, #644]	@ (8001b04 <HAL_RCC_OscConfig+0x294>)
 8001880:	689a      	ldr	r2, [r3, #8]
 8001882:	2338      	movs	r3, #56	@ 0x38
 8001884:	4013      	ands	r3, r2
 8001886:	2b08      	cmp	r3, #8
 8001888:	d022      	beq.n	80018d0 <HAL_RCC_OscConfig+0x60>
 800188a:	6843      	ldr	r3, [r0, #4]
 800188c:	2280      	movs	r2, #128	@ 0x80
 800188e:	0252      	lsls	r2, r2, #9
 8001890:	4293      	cmp	r3, r2
 8001892:	d02e      	beq.n	80018f2 <HAL_RCC_OscConfig+0x82>
 8001894:	22a0      	movs	r2, #160	@ 0xa0
 8001896:	02d2      	lsls	r2, r2, #11
 8001898:	4293      	cmp	r3, r2
 800189a:	d031      	beq.n	8001900 <HAL_RCC_OscConfig+0x90>
 800189c:	4b99      	ldr	r3, [pc, #612]	@ (8001b04 <HAL_RCC_OscConfig+0x294>)
 800189e:	681a      	ldr	r2, [r3, #0]
 80018a0:	4999      	ldr	r1, [pc, #612]	@ (8001b08 <HAL_RCC_OscConfig+0x298>)
 80018a2:	400a      	ands	r2, r1
 80018a4:	601a      	str	r2, [r3, #0]
 80018a6:	681a      	ldr	r2, [r3, #0]
 80018a8:	4998      	ldr	r1, [pc, #608]	@ (8001b0c <HAL_RCC_OscConfig+0x29c>)
 80018aa:	400a      	ands	r2, r1
 80018ac:	601a      	str	r2, [r3, #0]
 80018ae:	6863      	ldr	r3, [r4, #4]
 80018b0:	2b00      	cmp	r3, #0
 80018b2:	d031      	beq.n	8001918 <HAL_RCC_OscConfig+0xa8>
 80018b4:	f7ff f8b0 	bl	8000a18 <HAL_GetTick>
 80018b8:	0005      	movs	r5, r0
 80018ba:	4b92      	ldr	r3, [pc, #584]	@ (8001b04 <HAL_RCC_OscConfig+0x294>)
 80018bc:	681b      	ldr	r3, [r3, #0]
 80018be:	039b      	lsls	r3, r3, #14
 80018c0:	d40a      	bmi.n	80018d8 <HAL_RCC_OscConfig+0x68>
 80018c2:	f7ff f8a9 	bl	8000a18 <HAL_GetTick>
 80018c6:	1b40      	subs	r0, r0, r5
 80018c8:	2864      	cmp	r0, #100	@ 0x64
 80018ca:	d9f6      	bls.n	80018ba <HAL_RCC_OscConfig+0x4a>
 80018cc:	2003      	movs	r0, #3
 80018ce:	e10e      	b.n	8001aee <HAL_RCC_OscConfig+0x27e>
 80018d0:	6843      	ldr	r3, [r0, #4]
 80018d2:	2b00      	cmp	r3, #0
 80018d4:	d100      	bne.n	80018d8 <HAL_RCC_OscConfig+0x68>
 80018d6:	e10b      	b.n	8001af0 <HAL_RCC_OscConfig+0x280>
 80018d8:	6823      	ldr	r3, [r4, #0]
 80018da:	079b      	lsls	r3, r3, #30
 80018dc:	d547      	bpl.n	800196e <HAL_RCC_OscConfig+0xfe>
 80018de:	4b89      	ldr	r3, [pc, #548]	@ (8001b04 <HAL_RCC_OscConfig+0x294>)
 80018e0:	689b      	ldr	r3, [r3, #8]
 80018e2:	2238      	movs	r2, #56	@ 0x38
 80018e4:	421a      	tst	r2, r3
 80018e6:	d161      	bne.n	80019ac <HAL_RCC_OscConfig+0x13c>
 80018e8:	68e3      	ldr	r3, [r4, #12]
 80018ea:	2b00      	cmp	r3, #0
 80018ec:	d122      	bne.n	8001934 <HAL_RCC_OscConfig+0xc4>
 80018ee:	2001      	movs	r0, #1
 80018f0:	e0fd      	b.n	8001aee <HAL_RCC_OscConfig+0x27e>
 80018f2:	4a84      	ldr	r2, [pc, #528]	@ (8001b04 <HAL_RCC_OscConfig+0x294>)
 80018f4:	6811      	ldr	r1, [r2, #0]
 80018f6:	2380      	movs	r3, #128	@ 0x80
 80018f8:	025b      	lsls	r3, r3, #9
 80018fa:	430b      	orrs	r3, r1
 80018fc:	6013      	str	r3, [r2, #0]
 80018fe:	e7d6      	b.n	80018ae <HAL_RCC_OscConfig+0x3e>
 8001900:	4b80      	ldr	r3, [pc, #512]	@ (8001b04 <HAL_RCC_OscConfig+0x294>)
 8001902:	6819      	ldr	r1, [r3, #0]
 8001904:	2280      	movs	r2, #128	@ 0x80
 8001906:	02d2      	lsls	r2, r2, #11
 8001908:	430a      	orrs	r2, r1
 800190a:	601a      	str	r2, [r3, #0]
 800190c:	6819      	ldr	r1, [r3, #0]
 800190e:	2280      	movs	r2, #128	@ 0x80
 8001910:	0252      	lsls	r2, r2, #9
 8001912:	430a      	orrs	r2, r1
 8001914:	601a      	str	r2, [r3, #0]
 8001916:	e7ca      	b.n	80018ae <HAL_RCC_OscConfig+0x3e>
 8001918:	f7ff f87e 	bl	8000a18 <HAL_GetTick>
 800191c:	0005      	movs	r5, r0
 800191e:	4b79      	ldr	r3, [pc, #484]	@ (8001b04 <HAL_RCC_OscConfig+0x294>)
 8001920:	681b      	ldr	r3, [r3, #0]
 8001922:	039b      	lsls	r3, r3, #14
 8001924:	d5d8      	bpl.n	80018d8 <HAL_RCC_OscConfig+0x68>
 8001926:	f7ff f877 	bl	8000a18 <HAL_GetTick>
 800192a:	1b40      	subs	r0, r0, r5
 800192c:	2864      	cmp	r0, #100	@ 0x64
 800192e:	d9f6      	bls.n	800191e <HAL_RCC_OscConfig+0xae>
 8001930:	2003      	movs	r0, #3
 8001932:	e0dc      	b.n	8001aee <HAL_RCC_OscConfig+0x27e>
 8001934:	4b73      	ldr	r3, [pc, #460]	@ (8001b04 <HAL_RCC_OscConfig+0x294>)
 8001936:	685a      	ldr	r2, [r3, #4]
 8001938:	4975      	ldr	r1, [pc, #468]	@ (8001b10 <HAL_RCC_OscConfig+0x2a0>)
 800193a:	400a      	ands	r2, r1
 800193c:	6961      	ldr	r1, [r4, #20]
 800193e:	0209      	lsls	r1, r1, #8
 8001940:	430a      	orrs	r2, r1
 8001942:	605a      	str	r2, [r3, #4]
 8001944:	681a      	ldr	r2, [r3, #0]
 8001946:	4973      	ldr	r1, [pc, #460]	@ (8001b14 <HAL_RCC_OscConfig+0x2a4>)
 8001948:	400a      	ands	r2, r1
 800194a:	6921      	ldr	r1, [r4, #16]
 800194c:	430a      	orrs	r2, r1
 800194e:	601a      	str	r2, [r3, #0]
 8001950:	681b      	ldr	r3, [r3, #0]
 8001952:	0adb      	lsrs	r3, r3, #11
 8001954:	2207      	movs	r2, #7
 8001956:	401a      	ands	r2, r3
 8001958:	4b6f      	ldr	r3, [pc, #444]	@ (8001b18 <HAL_RCC_OscConfig+0x2a8>)
 800195a:	40d3      	lsrs	r3, r2
 800195c:	4a6f      	ldr	r2, [pc, #444]	@ (8001b1c <HAL_RCC_OscConfig+0x2ac>)
 800195e:	6013      	str	r3, [r2, #0]
 8001960:	4b6f      	ldr	r3, [pc, #444]	@ (8001b20 <HAL_RCC_OscConfig+0x2b0>)
 8001962:	6818      	ldr	r0, [r3, #0]
 8001964:	f7ff f814 	bl	8000990 <HAL_InitTick>
 8001968:	2800      	cmp	r0, #0
 800196a:	d000      	beq.n	800196e <HAL_RCC_OscConfig+0xfe>
 800196c:	e0c2      	b.n	8001af4 <HAL_RCC_OscConfig+0x284>
 800196e:	6823      	ldr	r3, [r4, #0]
 8001970:	071b      	lsls	r3, r3, #28
 8001972:	d557      	bpl.n	8001a24 <HAL_RCC_OscConfig+0x1b4>
 8001974:	4b63      	ldr	r3, [pc, #396]	@ (8001b04 <HAL_RCC_OscConfig+0x294>)
 8001976:	689a      	ldr	r2, [r3, #8]
 8001978:	2338      	movs	r3, #56	@ 0x38
 800197a:	4013      	ands	r3, r2
 800197c:	2b18      	cmp	r3, #24
 800197e:	d04e      	beq.n	8001a1e <HAL_RCC_OscConfig+0x1ae>
 8001980:	69a3      	ldr	r3, [r4, #24]
 8001982:	2b00      	cmp	r3, #0
 8001984:	d077      	beq.n	8001a76 <HAL_RCC_OscConfig+0x206>
 8001986:	4a5f      	ldr	r2, [pc, #380]	@ (8001b04 <HAL_RCC_OscConfig+0x294>)
 8001988:	6e13      	ldr	r3, [r2, #96]	@ 0x60
 800198a:	2101      	movs	r1, #1
 800198c:	430b      	orrs	r3, r1
 800198e:	6613      	str	r3, [r2, #96]	@ 0x60
 8001990:	f7ff f842 	bl	8000a18 <HAL_GetTick>
 8001994:	0005      	movs	r5, r0
 8001996:	4b5b      	ldr	r3, [pc, #364]	@ (8001b04 <HAL_RCC_OscConfig+0x294>)
 8001998:	6e1b      	ldr	r3, [r3, #96]	@ 0x60
 800199a:	079b      	lsls	r3, r3, #30
 800199c:	d442      	bmi.n	8001a24 <HAL_RCC_OscConfig+0x1b4>
 800199e:	f7ff f83b 	bl	8000a18 <HAL_GetTick>
 80019a2:	1b40      	subs	r0, r0, r5
 80019a4:	2802      	cmp	r0, #2
 80019a6:	d9f6      	bls.n	8001996 <HAL_RCC_OscConfig+0x126>
 80019a8:	2003      	movs	r0, #3
 80019aa:	e0a0      	b.n	8001aee <HAL_RCC_OscConfig+0x27e>
 80019ac:	68e3      	ldr	r3, [r4, #12]
 80019ae:	2b00      	cmp	r3, #0
 80019b0:	d022      	beq.n	80019f8 <HAL_RCC_OscConfig+0x188>
 80019b2:	4a54      	ldr	r2, [pc, #336]	@ (8001b04 <HAL_RCC_OscConfig+0x294>)
 80019b4:	6813      	ldr	r3, [r2, #0]
 80019b6:	4957      	ldr	r1, [pc, #348]	@ (8001b14 <HAL_RCC_OscConfig+0x2a4>)
 80019b8:	400b      	ands	r3, r1
 80019ba:	6921      	ldr	r1, [r4, #16]
 80019bc:	430b      	orrs	r3, r1
 80019be:	6013      	str	r3, [r2, #0]
 80019c0:	6811      	ldr	r1, [r2, #0]
 80019c2:	2380      	movs	r3, #128	@ 0x80
 80019c4:	005b      	lsls	r3, r3, #1
 80019c6:	430b      	orrs	r3, r1
 80019c8:	6013      	str	r3, [r2, #0]
 80019ca:	f7ff f825 	bl	8000a18 <HAL_GetTick>
 80019ce:	0005      	movs	r5, r0
 80019d0:	4b4c      	ldr	r3, [pc, #304]	@ (8001b04 <HAL_RCC_OscConfig+0x294>)
 80019d2:	681b      	ldr	r3, [r3, #0]
 80019d4:	055b      	lsls	r3, r3, #21
 80019d6:	d406      	bmi.n	80019e6 <HAL_RCC_OscConfig+0x176>
 80019d8:	f7ff f81e 	bl	8000a18 <HAL_GetTick>
 80019dc:	1b40      	subs	r0, r0, r5
 80019de:	2802      	cmp	r0, #2
 80019e0:	d9f6      	bls.n	80019d0 <HAL_RCC_OscConfig+0x160>
 80019e2:	2003      	movs	r0, #3
 80019e4:	e083      	b.n	8001aee <HAL_RCC_OscConfig+0x27e>
 80019e6:	4947      	ldr	r1, [pc, #284]	@ (8001b04 <HAL_RCC_OscConfig+0x294>)
 80019e8:	684b      	ldr	r3, [r1, #4]
 80019ea:	4a49      	ldr	r2, [pc, #292]	@ (8001b10 <HAL_RCC_OscConfig+0x2a0>)
 80019ec:	4013      	ands	r3, r2
 80019ee:	6962      	ldr	r2, [r4, #20]
 80019f0:	0212      	lsls	r2, r2, #8
 80019f2:	4313      	orrs	r3, r2
 80019f4:	604b      	str	r3, [r1, #4]
 80019f6:	e7ba      	b.n	800196e <HAL_RCC_OscConfig+0xfe>
 80019f8:	4a42      	ldr	r2, [pc, #264]	@ (8001b04 <HAL_RCC_OscConfig+0x294>)
 80019fa:	6813      	ldr	r3, [r2, #0]
 80019fc:	4949      	ldr	r1, [pc, #292]	@ (8001b24 <HAL_RCC_OscConfig+0x2b4>)
 80019fe:	400b      	ands	r3, r1
 8001a00:	6013      	str	r3, [r2, #0]
 8001a02:	f7ff f809 	bl	8000a18 <HAL_GetTick>
 8001a06:	0005      	movs	r5, r0
 8001a08:	4b3e      	ldr	r3, [pc, #248]	@ (8001b04 <HAL_RCC_OscConfig+0x294>)
 8001a0a:	681b      	ldr	r3, [r3, #0]
 8001a0c:	055b      	lsls	r3, r3, #21
 8001a0e:	d5ae      	bpl.n	800196e <HAL_RCC_OscConfig+0xfe>
 8001a10:	f7ff f802 	bl	8000a18 <HAL_GetTick>
 8001a14:	1b40      	subs	r0, r0, r5
 8001a16:	2802      	cmp	r0, #2
 8001a18:	d9f6      	bls.n	8001a08 <HAL_RCC_OscConfig+0x198>
 8001a1a:	2003      	movs	r0, #3
 8001a1c:	e067      	b.n	8001aee <HAL_RCC_OscConfig+0x27e>
 8001a1e:	69a3      	ldr	r3, [r4, #24]
 8001a20:	2b00      	cmp	r3, #0
 8001a22:	d069      	beq.n	8001af8 <HAL_RCC_OscConfig+0x288>
 8001a24:	6823      	ldr	r3, [r4, #0]
 8001a26:	075b      	lsls	r3, r3, #29
 8001a28:	d568      	bpl.n	8001afc <HAL_RCC_OscConfig+0x28c>
 8001a2a:	4b36      	ldr	r3, [pc, #216]	@ (8001b04 <HAL_RCC_OscConfig+0x294>)
 8001a2c:	689a      	ldr	r2, [r3, #8]
 8001a2e:	2338      	movs	r3, #56	@ 0x38
 8001a30:	4013      	ands	r3, r2
 8001a32:	2b20      	cmp	r3, #32
 8001a34:	d032      	beq.n	8001a9c <HAL_RCC_OscConfig+0x22c>
 8001a36:	68a3      	ldr	r3, [r4, #8]
 8001a38:	2b01      	cmp	r3, #1
 8001a3a:	d034      	beq.n	8001aa6 <HAL_RCC_OscConfig+0x236>
 8001a3c:	2b05      	cmp	r3, #5
 8001a3e:	d038      	beq.n	8001ab2 <HAL_RCC_OscConfig+0x242>
 8001a40:	4b30      	ldr	r3, [pc, #192]	@ (8001b04 <HAL_RCC_OscConfig+0x294>)
 8001a42:	6dda      	ldr	r2, [r3, #92]	@ 0x5c
 8001a44:	2101      	movs	r1, #1
 8001a46:	438a      	bics	r2, r1
 8001a48:	65da      	str	r2, [r3, #92]	@ 0x5c
 8001a4a:	6dda      	ldr	r2, [r3, #92]	@ 0x5c
 8001a4c:	3103      	adds	r1, #3
 8001a4e:	438a      	bics	r2, r1
 8001a50:	65da      	str	r2, [r3, #92]	@ 0x5c
 8001a52:	68a3      	ldr	r3, [r4, #8]
 8001a54:	2b00      	cmp	r3, #0
 8001a56:	d038      	beq.n	8001aca <HAL_RCC_OscConfig+0x25a>
 8001a58:	f7fe ffde 	bl	8000a18 <HAL_GetTick>
 8001a5c:	0004      	movs	r4, r0
 8001a5e:	4b29      	ldr	r3, [pc, #164]	@ (8001b04 <HAL_RCC_OscConfig+0x294>)
 8001a60:	6ddb      	ldr	r3, [r3, #92]	@ 0x5c
 8001a62:	079b      	lsls	r3, r3, #30
 8001a64:	d42f      	bmi.n	8001ac6 <HAL_RCC_OscConfig+0x256>
 8001a66:	f7fe ffd7 	bl	8000a18 <HAL_GetTick>
 8001a6a:	1b00      	subs	r0, r0, r4
 8001a6c:	4b2e      	ldr	r3, [pc, #184]	@ (8001b28 <HAL_RCC_OscConfig+0x2b8>)
 8001a6e:	4298      	cmp	r0, r3
 8001a70:	d9f5      	bls.n	8001a5e <HAL_RCC_OscConfig+0x1ee>
 8001a72:	2003      	movs	r0, #3
 8001a74:	e03b      	b.n	8001aee <HAL_RCC_OscConfig+0x27e>
 8001a76:	4a23      	ldr	r2, [pc, #140]	@ (8001b04 <HAL_RCC_OscConfig+0x294>)
 8001a78:	6e13      	ldr	r3, [r2, #96]	@ 0x60
 8001a7a:	2101      	movs	r1, #1
 8001a7c:	438b      	bics	r3, r1
 8001a7e:	6613      	str	r3, [r2, #96]	@ 0x60
 8001a80:	f7fe ffca 	bl	8000a18 <HAL_GetTick>
 8001a84:	0005      	movs	r5, r0
 8001a86:	4b1f      	ldr	r3, [pc, #124]	@ (8001b04 <HAL_RCC_OscConfig+0x294>)
 8001a88:	6e1b      	ldr	r3, [r3, #96]	@ 0x60
 8001a8a:	079b      	lsls	r3, r3, #30
 8001a8c:	d5ca      	bpl.n	8001a24 <HAL_RCC_OscConfig+0x1b4>
 8001a8e:	f7fe ffc3 	bl	8000a18 <HAL_GetTick>
 8001a92:	1b40      	subs	r0, r0, r5
 8001a94:	2802      	cmp	r0, #2
 8001a96:	d9f6      	bls.n	8001a86 <HAL_RCC_OscConfig+0x216>
 8001a98:	2003      	movs	r0, #3
 8001a9a:	e028      	b.n	8001aee <HAL_RCC_OscConfig+0x27e>
 8001a9c:	68a3      	ldr	r3, [r4, #8]
 8001a9e:	2b00      	cmp	r3, #0
 8001aa0:	d02e      	beq.n	8001b00 <HAL_RCC_OscConfig+0x290>
 8001aa2:	2000      	movs	r0, #0
 8001aa4:	e023      	b.n	8001aee <HAL_RCC_OscConfig+0x27e>
 8001aa6:	4a17      	ldr	r2, [pc, #92]	@ (8001b04 <HAL_RCC_OscConfig+0x294>)
 8001aa8:	6dd3      	ldr	r3, [r2, #92]	@ 0x5c
 8001aaa:	2101      	movs	r1, #1
 8001aac:	430b      	orrs	r3, r1
 8001aae:	65d3      	str	r3, [r2, #92]	@ 0x5c
 8001ab0:	e7cf      	b.n	8001a52 <HAL_RCC_OscConfig+0x1e2>
 8001ab2:	4b14      	ldr	r3, [pc, #80]	@ (8001b04 <HAL_RCC_OscConfig+0x294>)
 8001ab4:	6dda      	ldr	r2, [r3, #92]	@ 0x5c
 8001ab6:	2104      	movs	r1, #4
 8001ab8:	430a      	orrs	r2, r1
 8001aba:	65da      	str	r2, [r3, #92]	@ 0x5c
 8001abc:	6dda      	ldr	r2, [r3, #92]	@ 0x5c
 8001abe:	3903      	subs	r1, #3
 8001ac0:	430a      	orrs	r2, r1
 8001ac2:	65da      	str	r2, [r3, #92]	@ 0x5c
 8001ac4:	e7c5      	b.n	8001a52 <HAL_RCC_OscConfig+0x1e2>
 8001ac6:	2000      	movs	r0, #0
 8001ac8:	e011      	b.n	8001aee <HAL_RCC_OscConfig+0x27e>
 8001aca:	f7fe ffa5 	bl	8000a18 <HAL_GetTick>
 8001ace:	0004      	movs	r4, r0
 8001ad0:	4b0c      	ldr	r3, [pc, #48]	@ (8001b04 <HAL_RCC_OscConfig+0x294>)
 8001ad2:	6ddb      	ldr	r3, [r3, #92]	@ 0x5c
 8001ad4:	079b      	lsls	r3, r3, #30
 8001ad6:	d507      	bpl.n	8001ae8 <HAL_RCC_OscConfig+0x278>
 8001ad8:	f7fe ff9e 	bl	8000a18 <HAL_GetTick>
 8001adc:	1b00      	subs	r0, r0, r4
 8001ade:	4b12      	ldr	r3, [pc, #72]	@ (8001b28 <HAL_RCC_OscConfig+0x2b8>)
 8001ae0:	4298      	cmp	r0, r3
 8001ae2:	d9f5      	bls.n	8001ad0 <HAL_RCC_OscConfig+0x260>
 8001ae4:	2003      	movs	r0, #3
 8001ae6:	e002      	b.n	8001aee <HAL_RCC_OscConfig+0x27e>
 8001ae8:	2000      	movs	r0, #0
 8001aea:	e000      	b.n	8001aee <HAL_RCC_OscConfig+0x27e>
 8001aec:	2001      	movs	r0, #1
 8001aee:	bd70      	pop	{r4, r5, r6, pc}
 8001af0:	2001      	movs	r0, #1
 8001af2:	e7fc      	b.n	8001aee <HAL_RCC_OscConfig+0x27e>
 8001af4:	2001      	movs	r0, #1
 8001af6:	e7fa      	b.n	8001aee <HAL_RCC_OscConfig+0x27e>
 8001af8:	2001      	movs	r0, #1
 8001afa:	e7f8      	b.n	8001aee <HAL_RCC_OscConfig+0x27e>
 8001afc:	2000      	movs	r0, #0
 8001afe:	e7f6      	b.n	8001aee <HAL_RCC_OscConfig+0x27e>
 8001b00:	2001      	movs	r0, #1
 8001b02:	e7f4      	b.n	8001aee <HAL_RCC_OscConfig+0x27e>
 8001b04:	40021000 	.word	0x40021000
 8001b08:	fffeffff 	.word	0xfffeffff
 8001b0c:	fffbffff 	.word	0xfffbffff
 8001b10:	ffff80ff 	.word	0xffff80ff
 8001b14:	ffffc7ff 	.word	0xffffc7ff
 8001b18:	02dc6c00 	.word	0x02dc6c00
 8001b1c:	20000008 	.word	0x20000008
 8001b20:	20000004 	.word	0x20000004
 8001b24:	fffffeff 	.word	0xfffffeff
 8001b28:	00001388 	.word	0x00001388

08001b2c <HAL_RCC_GetSysClockFreq>:
 8001b2c:	4b14      	ldr	r3, [pc, #80]	@ (8001b80 <HAL_RCC_GetSysClockFreq+0x54>)
 8001b2e:	689b      	ldr	r3, [r3, #8]
 8001b30:	2238      	movs	r2, #56	@ 0x38
 8001b32:	421a      	tst	r2, r3
 8001b34:	d107      	bne.n	8001b46 <HAL_RCC_GetSysClockFreq+0x1a>
 8001b36:	4b12      	ldr	r3, [pc, #72]	@ (8001b80 <HAL_RCC_GetSysClockFreq+0x54>)
 8001b38:	681a      	ldr	r2, [r3, #0]
 8001b3a:	0ad2      	lsrs	r2, r2, #11
 8001b3c:	2307      	movs	r3, #7
 8001b3e:	4013      	ands	r3, r2
 8001b40:	4810      	ldr	r0, [pc, #64]	@ (8001b84 <HAL_RCC_GetSysClockFreq+0x58>)
 8001b42:	40d8      	lsrs	r0, r3
 8001b44:	4770      	bx	lr
 8001b46:	4b0e      	ldr	r3, [pc, #56]	@ (8001b80 <HAL_RCC_GetSysClockFreq+0x54>)
 8001b48:	689a      	ldr	r2, [r3, #8]
 8001b4a:	2338      	movs	r3, #56	@ 0x38
 8001b4c:	4013      	ands	r3, r2
 8001b4e:	2b08      	cmp	r3, #8
 8001b50:	d010      	beq.n	8001b74 <HAL_RCC_GetSysClockFreq+0x48>
 8001b52:	4b0b      	ldr	r3, [pc, #44]	@ (8001b80 <HAL_RCC_GetSysClockFreq+0x54>)
 8001b54:	689a      	ldr	r2, [r3, #8]
 8001b56:	2338      	movs	r3, #56	@ 0x38
 8001b58:	4013      	ands	r3, r2
 8001b5a:	2b20      	cmp	r3, #32
 8001b5c:	d00c      	beq.n	8001b78 <HAL_RCC_GetSysClockFreq+0x4c>
 8001b5e:	4b08      	ldr	r3, [pc, #32]	@ (8001b80 <HAL_RCC_GetSysClockFreq+0x54>)
 8001b60:	689a      	ldr	r2, [r3, #8]
 8001b62:	2338      	movs	r3, #56	@ 0x38
 8001b64:	4013      	ands	r3, r2
 8001b66:	2b18      	cmp	r3, #24
 8001b68:	d001      	beq.n	8001b6e <HAL_RCC_GetSysClockFreq+0x42>
 8001b6a:	2000      	movs	r0, #0
 8001b6c:	e7ea      	b.n	8001b44 <HAL_RCC_GetSysClockFreq+0x18>
 8001b6e:	20fa      	movs	r0, #250	@ 0xfa
 8001b70:	01c0      	lsls	r0, r0, #7
 8001b72:	e7e7      	b.n	8001b44 <HAL_RCC_GetSysClockFreq+0x18>
 8001b74:	4803      	ldr	r0, [pc, #12]	@ (8001b84 <HAL_RCC_GetSysClockFreq+0x58>)
 8001b76:	e7e5      	b.n	8001b44 <HAL_RCC_GetSysClockFreq+0x18>
 8001b78:	2080      	movs	r0, #128	@ 0x80
 8001b7a:	0200      	lsls	r0, r0, #8
 8001b7c:	e7e2      	b.n	8001b44 <HAL_RCC_GetSysClockFreq+0x18>
 8001b7e:	46c0      	nop			@ (mov r8, r8)
 8001b80:	40021000 	.word	0x40021000
 8001b84:	02dc6c00 	.word	0x02dc6c00

08001b88 <HAL_RCC_ClockConfig>:
 8001b88:	b570      	push	{r4, r5, r6, lr}
 8001b8a:	0004      	movs	r4, r0
 8001b8c:	000d      	movs	r5, r1
 8001b8e:	2800      	cmp	r0, #0
 8001b90:	d100      	bne.n	8001b94 <HAL_RCC_ClockConfig+0xc>
 8001b92:	e0a4      	b.n	8001cde <HAL_RCC_ClockConfig+0x156>
 8001b94:	4b54      	ldr	r3, [pc, #336]	@ (8001ce8 <HAL_RCC_ClockConfig+0x160>)
 8001b96:	681a      	ldr	r2, [r3, #0]
 8001b98:	2307      	movs	r3, #7
 8001b9a:	4013      	ands	r3, r2
 8001b9c:	428b      	cmp	r3, r1
 8001b9e:	d321      	bcc.n	8001be4 <HAL_RCC_ClockConfig+0x5c>
 8001ba0:	6823      	ldr	r3, [r4, #0]
 8001ba2:	079a      	lsls	r2, r3, #30
 8001ba4:	d510      	bpl.n	8001bc8 <HAL_RCC_ClockConfig+0x40>
 8001ba6:	075b      	lsls	r3, r3, #29
 8001ba8:	d507      	bpl.n	8001bba <HAL_RCC_ClockConfig+0x32>
 8001baa:	4950      	ldr	r1, [pc, #320]	@ (8001cec <HAL_RCC_ClockConfig+0x164>)
 8001bac:	688a      	ldr	r2, [r1, #8]
 8001bae:	4b50      	ldr	r3, [pc, #320]	@ (8001cf0 <HAL_RCC_ClockConfig+0x168>)
 8001bb0:	401a      	ands	r2, r3
 8001bb2:	23b0      	movs	r3, #176	@ 0xb0
 8001bb4:	011b      	lsls	r3, r3, #4
 8001bb6:	4313      	orrs	r3, r2
 8001bb8:	608b      	str	r3, [r1, #8]
 8001bba:	4a4c      	ldr	r2, [pc, #304]	@ (8001cec <HAL_RCC_ClockConfig+0x164>)
 8001bbc:	6893      	ldr	r3, [r2, #8]
 8001bbe:	494d      	ldr	r1, [pc, #308]	@ (8001cf4 <HAL_RCC_ClockConfig+0x16c>)
 8001bc0:	400b      	ands	r3, r1
 8001bc2:	68e1      	ldr	r1, [r4, #12]
 8001bc4:	430b      	orrs	r3, r1
 8001bc6:	6093      	str	r3, [r2, #8]
 8001bc8:	6823      	ldr	r3, [r4, #0]
 8001bca:	07db      	lsls	r3, r3, #31
 8001bcc:	d54c      	bpl.n	8001c68 <HAL_RCC_ClockConfig+0xe0>
 8001bce:	6863      	ldr	r3, [r4, #4]
 8001bd0:	2b01      	cmp	r3, #1
 8001bd2:	d01e      	beq.n	8001c12 <HAL_RCC_ClockConfig+0x8a>
 8001bd4:	2b00      	cmp	r3, #0
 8001bd6:	d139      	bne.n	8001c4c <HAL_RCC_ClockConfig+0xc4>
 8001bd8:	4a44      	ldr	r2, [pc, #272]	@ (8001cec <HAL_RCC_ClockConfig+0x164>)
 8001bda:	6812      	ldr	r2, [r2, #0]
 8001bdc:	0552      	lsls	r2, r2, #21
 8001bde:	d41c      	bmi.n	8001c1a <HAL_RCC_ClockConfig+0x92>
 8001be0:	2001      	movs	r0, #1
 8001be2:	e064      	b.n	8001cae <HAL_RCC_ClockConfig+0x126>
 8001be4:	4a40      	ldr	r2, [pc, #256]	@ (8001ce8 <HAL_RCC_ClockConfig+0x160>)
 8001be6:	6813      	ldr	r3, [r2, #0]
 8001be8:	2107      	movs	r1, #7
 8001bea:	438b      	bics	r3, r1
 8001bec:	432b      	orrs	r3, r5
 8001bee:	6013      	str	r3, [r2, #0]
 8001bf0:	f7fe ff12 	bl	8000a18 <HAL_GetTick>
 8001bf4:	0006      	movs	r6, r0
 8001bf6:	4b3c      	ldr	r3, [pc, #240]	@ (8001ce8 <HAL_RCC_ClockConfig+0x160>)
 8001bf8:	681a      	ldr	r2, [r3, #0]
 8001bfa:	2307      	movs	r3, #7
 8001bfc:	4013      	ands	r3, r2
 8001bfe:	42ab      	cmp	r3, r5
 8001c00:	d0ce      	beq.n	8001ba0 <HAL_RCC_ClockConfig+0x18>
 8001c02:	f7fe ff09 	bl	8000a18 <HAL_GetTick>
 8001c06:	1b80      	subs	r0, r0, r6
 8001c08:	4a3b      	ldr	r2, [pc, #236]	@ (8001cf8 <HAL_RCC_ClockConfig+0x170>)
 8001c0a:	4290      	cmp	r0, r2
 8001c0c:	d9f3      	bls.n	8001bf6 <HAL_RCC_ClockConfig+0x6e>
 8001c0e:	2003      	movs	r0, #3
 8001c10:	e04d      	b.n	8001cae <HAL_RCC_ClockConfig+0x126>
 8001c12:	4a36      	ldr	r2, [pc, #216]	@ (8001cec <HAL_RCC_ClockConfig+0x164>)
 8001c14:	6812      	ldr	r2, [r2, #0]
 8001c16:	0392      	lsls	r2, r2, #14
 8001c18:	d563      	bpl.n	8001ce2 <HAL_RCC_ClockConfig+0x15a>
 8001c1a:	4934      	ldr	r1, [pc, #208]	@ (8001cec <HAL_RCC_ClockConfig+0x164>)
 8001c1c:	688a      	ldr	r2, [r1, #8]
 8001c1e:	2007      	movs	r0, #7
 8001c20:	4382      	bics	r2, r0
 8001c22:	4313      	orrs	r3, r2
 8001c24:	608b      	str	r3, [r1, #8]
 8001c26:	f7fe fef7 	bl	8000a18 <HAL_GetTick>
 8001c2a:	0006      	movs	r6, r0
 8001c2c:	4b2f      	ldr	r3, [pc, #188]	@ (8001cec <HAL_RCC_ClockConfig+0x164>)
 8001c2e:	689b      	ldr	r3, [r3, #8]
 8001c30:	2238      	movs	r2, #56	@ 0x38
 8001c32:	401a      	ands	r2, r3
 8001c34:	6863      	ldr	r3, [r4, #4]
 8001c36:	00db      	lsls	r3, r3, #3
 8001c38:	429a      	cmp	r2, r3
 8001c3a:	d015      	beq.n	8001c68 <HAL_RCC_ClockConfig+0xe0>
 8001c3c:	f7fe feec 	bl	8000a18 <HAL_GetTick>
 8001c40:	1b80      	subs	r0, r0, r6
 8001c42:	4b2d      	ldr	r3, [pc, #180]	@ (8001cf8 <HAL_RCC_ClockConfig+0x170>)
 8001c44:	4298      	cmp	r0, r3
 8001c46:	d9f1      	bls.n	8001c2c <HAL_RCC_ClockConfig+0xa4>
 8001c48:	2003      	movs	r0, #3
 8001c4a:	e030      	b.n	8001cae <HAL_RCC_ClockConfig+0x126>
 8001c4c:	2b03      	cmp	r3, #3
 8001c4e:	d005      	beq.n	8001c5c <HAL_RCC_ClockConfig+0xd4>
 8001c50:	4a26      	ldr	r2, [pc, #152]	@ (8001cec <HAL_RCC_ClockConfig+0x164>)
 8001c52:	6dd2      	ldr	r2, [r2, #92]	@ 0x5c
 8001c54:	0792      	lsls	r2, r2, #30
 8001c56:	d4e0      	bmi.n	8001c1a <HAL_RCC_ClockConfig+0x92>
 8001c58:	2001      	movs	r0, #1
 8001c5a:	e028      	b.n	8001cae <HAL_RCC_ClockConfig+0x126>
 8001c5c:	4a23      	ldr	r2, [pc, #140]	@ (8001cec <HAL_RCC_ClockConfig+0x164>)
 8001c5e:	6e12      	ldr	r2, [r2, #96]	@ 0x60
 8001c60:	0792      	lsls	r2, r2, #30
 8001c62:	d4da      	bmi.n	8001c1a <HAL_RCC_ClockConfig+0x92>
 8001c64:	2001      	movs	r0, #1
 8001c66:	e022      	b.n	8001cae <HAL_RCC_ClockConfig+0x126>
 8001c68:	4b1f      	ldr	r3, [pc, #124]	@ (8001ce8 <HAL_RCC_ClockConfig+0x160>)
 8001c6a:	681a      	ldr	r2, [r3, #0]
 8001c6c:	2307      	movs	r3, #7
 8001c6e:	4013      	ands	r3, r2
 8001c70:	42ab      	cmp	r3, r5
 8001c72:	d81d      	bhi.n	8001cb0 <HAL_RCC_ClockConfig+0x128>
 8001c74:	6823      	ldr	r3, [r4, #0]
 8001c76:	075b      	lsls	r3, r3, #29
 8001c78:	d506      	bpl.n	8001c88 <HAL_RCC_ClockConfig+0x100>
 8001c7a:	4a1c      	ldr	r2, [pc, #112]	@ (8001cec <HAL_RCC_ClockConfig+0x164>)
 8001c7c:	6893      	ldr	r3, [r2, #8]
 8001c7e:	491f      	ldr	r1, [pc, #124]	@ (8001cfc <HAL_RCC_ClockConfig+0x174>)
 8001c80:	400b      	ands	r3, r1
 8001c82:	6921      	ldr	r1, [r4, #16]
 8001c84:	430b      	orrs	r3, r1
 8001c86:	6093      	str	r3, [r2, #8]
 8001c88:	f7ff ff50 	bl	8001b2c <HAL_RCC_GetSysClockFreq>
 8001c8c:	4b17      	ldr	r3, [pc, #92]	@ (8001cec <HAL_RCC_ClockConfig+0x164>)
 8001c8e:	689a      	ldr	r2, [r3, #8]
 8001c90:	0a12      	lsrs	r2, r2, #8
 8001c92:	230f      	movs	r3, #15
 8001c94:	4013      	ands	r3, r2
 8001c96:	4a1a      	ldr	r2, [pc, #104]	@ (8001d00 <HAL_RCC_ClockConfig+0x178>)
 8001c98:	009b      	lsls	r3, r3, #2
 8001c9a:	589a      	ldr	r2, [r3, r2]
 8001c9c:	231f      	movs	r3, #31
 8001c9e:	4013      	ands	r3, r2
 8001ca0:	40d8      	lsrs	r0, r3
 8001ca2:	4b18      	ldr	r3, [pc, #96]	@ (8001d04 <HAL_RCC_ClockConfig+0x17c>)
 8001ca4:	6018      	str	r0, [r3, #0]
 8001ca6:	4b18      	ldr	r3, [pc, #96]	@ (8001d08 <HAL_RCC_ClockConfig+0x180>)
 8001ca8:	6818      	ldr	r0, [r3, #0]
 8001caa:	f7fe fe71 	bl	8000990 <HAL_InitTick>
 8001cae:	bd70      	pop	{r4, r5, r6, pc}
 8001cb0:	4a0d      	ldr	r2, [pc, #52]	@ (8001ce8 <HAL_RCC_ClockConfig+0x160>)
 8001cb2:	6813      	ldr	r3, [r2, #0]
 8001cb4:	2107      	movs	r1, #7
 8001cb6:	438b      	bics	r3, r1
 8001cb8:	432b      	orrs	r3, r5
 8001cba:	6013      	str	r3, [r2, #0]
 8001cbc:	f7fe feac 	bl	8000a18 <HAL_GetTick>
 8001cc0:	0006      	movs	r6, r0
 8001cc2:	4b09      	ldr	r3, [pc, #36]	@ (8001ce8 <HAL_RCC_ClockConfig+0x160>)
 8001cc4:	681a      	ldr	r2, [r3, #0]
 8001cc6:	2307      	movs	r3, #7
 8001cc8:	4013      	ands	r3, r2
 8001cca:	42ab      	cmp	r3, r5
 8001ccc:	d0d2      	beq.n	8001c74 <HAL_RCC_ClockConfig+0xec>
 8001cce:	f7fe fea3 	bl	8000a18 <HAL_GetTick>
 8001cd2:	1b80      	subs	r0, r0, r6
 8001cd4:	4b08      	ldr	r3, [pc, #32]	@ (8001cf8 <HAL_RCC_ClockConfig+0x170>)
 8001cd6:	4298      	cmp	r0, r3
 8001cd8:	d9f3      	bls.n	8001cc2 <HAL_RCC_ClockConfig+0x13a>
 8001cda:	2003      	movs	r0, #3
 8001cdc:	e7e7      	b.n	8001cae <HAL_RCC_ClockConfig+0x126>
 8001cde:	2001      	movs	r0, #1
 8001ce0:	e7e5      	b.n	8001cae <HAL_RCC_ClockConfig+0x126>
 8001ce2:	2001      	movs	r0, #1
 8001ce4:	e7e3      	b.n	8001cae <HAL_RCC_ClockConfig+0x126>
 8001ce6:	46c0      	nop			@ (mov r8, r8)
 8001ce8:	40022000 	.word	0x40022000
 8001cec:	40021000 	.word	0x40021000
 8001cf0:	ffff84ff 	.word	0xffff84ff
 8001cf4:	fffff0ff 	.word	0xfffff0ff
 8001cf8:	00001388 	.word	0x00001388
 8001cfc:	ffff8fff 	.word	0xffff8fff
 8001d00:	08003e94 	.word	0x08003e94
 8001d04:	20000008 	.word	0x20000008
 8001d08:	20000004 	.word	0x20000004

08001d0c <HAL_RCC_GetHCLKFreq>:
 8001d0c:	b510      	push	{r4, lr}
 8001d0e:	f7ff ff0d 	bl	8001b2c <HAL_RCC_GetSysClockFreq>
 8001d12:	4b07      	ldr	r3, [pc, #28]	@ (8001d30 <HAL_RCC_GetHCLKFreq+0x24>)
 8001d14:	689a      	ldr	r2, [r3, #8]
 8001d16:	0a12      	lsrs	r2, r2, #8
 8001d18:	230f      	movs	r3, #15
 8001d1a:	4013      	ands	r3, r2
 8001d1c:	4a05      	ldr	r2, [pc, #20]	@ (8001d34 <HAL_RCC_GetHCLKFreq+0x28>)
 8001d1e:	009b      	lsls	r3, r3, #2
 8001d20:	589a      	ldr	r2, [r3, r2]
 8001d22:	231f      	movs	r3, #31
 8001d24:	4013      	ands	r3, r2
 8001d26:	40d8      	lsrs	r0, r3
 8001d28:	4b03      	ldr	r3, [pc, #12]	@ (8001d38 <HAL_RCC_GetHCLKFreq+0x2c>)
 8001d2a:	6018      	str	r0, [r3, #0]
 8001d2c:	bd10      	pop	{r4, pc}
 8001d2e:	46c0      	nop			@ (mov r8, r8)
 8001d30:	40021000 	.word	0x40021000
 8001d34:	08003e94 	.word	0x08003e94
 8001d38:	20000008 	.word	0x20000008

08001d3c <HAL_RCC_GetPCLK1Freq>:
 8001d3c:	b510      	push	{r4, lr}
 8001d3e:	f7ff ffe5 	bl	8001d0c <HAL_RCC_GetHCLKFreq>
 8001d42:	4b06      	ldr	r3, [pc, #24]	@ (8001d5c <HAL_RCC_GetPCLK1Freq+0x20>)
 8001d44:	689a      	ldr	r2, [r3, #8]
 8001d46:	0b12      	lsrs	r2, r2, #12
 8001d48:	2307      	movs	r3, #7
 8001d4a:	4013      	ands	r3, r2
 8001d4c:	4a04      	ldr	r2, [pc, #16]	@ (8001d60 <HAL_RCC_GetPCLK1Freq+0x24>)
 8001d4e:	009b      	lsls	r3, r3, #2
 8001d50:	589a      	ldr	r2, [r3, r2]
 8001d52:	231f      	movs	r3, #31
 8001d54:	4013      	ands	r3, r2
 8001d56:	40d8      	lsrs	r0, r3
 8001d58:	bd10      	pop	{r4, pc}
 8001d5a:	46c0      	nop			@ (mov r8, r8)
 8001d5c:	40021000 	.word	0x40021000
 8001d60:	08003e74 	.word	0x08003e74

08001d64 <HAL_RCCEx_PeriphCLKConfig>:
 8001d64:	b570      	push	{r4, r5, r6, lr}
 8001d66:	b082      	sub	sp, #8
 8001d68:	0004      	movs	r4, r0
 8001d6a:	6803      	ldr	r3, [r0, #0]
 8001d6c:	065b      	lsls	r3, r3, #25
 8001d6e:	d550      	bpl.n	8001e12 <HAL_RCCEx_PeriphCLKConfig+0xae>
 8001d70:	4b42      	ldr	r3, [pc, #264]	@ (8001e7c <HAL_RCCEx_PeriphCLKConfig+0x118>)
 8001d72:	6bdb      	ldr	r3, [r3, #60]	@ 0x3c
 8001d74:	00db      	lsls	r3, r3, #3
 8001d76:	d435      	bmi.n	8001de4 <HAL_RCCEx_PeriphCLKConfig+0x80>
 8001d78:	4b40      	ldr	r3, [pc, #256]	@ (8001e7c <HAL_RCCEx_PeriphCLKConfig+0x118>)
 8001d7a:	6bda      	ldr	r2, [r3, #60]	@ 0x3c
 8001d7c:	2180      	movs	r1, #128	@ 0x80
 8001d7e:	0549      	lsls	r1, r1, #21
 8001d80:	430a      	orrs	r2, r1
 8001d82:	63da      	str	r2, [r3, #60]	@ 0x3c
 8001d84:	6bdb      	ldr	r3, [r3, #60]	@ 0x3c
 8001d86:	400b      	ands	r3, r1
 8001d88:	9301      	str	r3, [sp, #4]
 8001d8a:	9b01      	ldr	r3, [sp, #4]
 8001d8c:	2501      	movs	r5, #1
 8001d8e:	4b3b      	ldr	r3, [pc, #236]	@ (8001e7c <HAL_RCCEx_PeriphCLKConfig+0x118>)
 8001d90:	6dd9      	ldr	r1, [r3, #92]	@ 0x5c
 8001d92:	22c0      	movs	r2, #192	@ 0xc0
 8001d94:	0092      	lsls	r2, r2, #2
 8001d96:	000b      	movs	r3, r1
 8001d98:	4013      	ands	r3, r2
 8001d9a:	4211      	tst	r1, r2
 8001d9c:	d035      	beq.n	8001e0a <HAL_RCCEx_PeriphCLKConfig+0xa6>
 8001d9e:	69a2      	ldr	r2, [r4, #24]
 8001da0:	429a      	cmp	r2, r3
 8001da2:	d00d      	beq.n	8001dc0 <HAL_RCCEx_PeriphCLKConfig+0x5c>
 8001da4:	4a35      	ldr	r2, [pc, #212]	@ (8001e7c <HAL_RCCEx_PeriphCLKConfig+0x118>)
 8001da6:	6dd3      	ldr	r3, [r2, #92]	@ 0x5c
 8001da8:	4935      	ldr	r1, [pc, #212]	@ (8001e80 <HAL_RCCEx_PeriphCLKConfig+0x11c>)
 8001daa:	400b      	ands	r3, r1
 8001dac:	6dd0      	ldr	r0, [r2, #92]	@ 0x5c
 8001dae:	2180      	movs	r1, #128	@ 0x80
 8001db0:	0249      	lsls	r1, r1, #9
 8001db2:	4301      	orrs	r1, r0
 8001db4:	65d1      	str	r1, [r2, #92]	@ 0x5c
 8001db6:	6dd1      	ldr	r1, [r2, #92]	@ 0x5c
 8001db8:	4832      	ldr	r0, [pc, #200]	@ (8001e84 <HAL_RCCEx_PeriphCLKConfig+0x120>)
 8001dba:	4001      	ands	r1, r0
 8001dbc:	65d1      	str	r1, [r2, #92]	@ 0x5c
 8001dbe:	65d3      	str	r3, [r2, #92]	@ 0x5c
 8001dc0:	07db      	lsls	r3, r3, #31
 8001dc2:	d411      	bmi.n	8001de8 <HAL_RCCEx_PeriphCLKConfig+0x84>
 8001dc4:	4a2d      	ldr	r2, [pc, #180]	@ (8001e7c <HAL_RCCEx_PeriphCLKConfig+0x118>)
 8001dc6:	6dd3      	ldr	r3, [r2, #92]	@ 0x5c
 8001dc8:	492d      	ldr	r1, [pc, #180]	@ (8001e80 <HAL_RCCEx_PeriphCLKConfig+0x11c>)
 8001dca:	400b      	ands	r3, r1
 8001dcc:	69a1      	ldr	r1, [r4, #24]
 8001dce:	430b      	orrs	r3, r1
 8001dd0:	65d3      	str	r3, [r2, #92]	@ 0x5c
 8001dd2:	2000      	movs	r0, #0
 8001dd4:	2d01      	cmp	r5, #1
 8001dd6:	d11d      	bne.n	8001e14 <HAL_RCCEx_PeriphCLKConfig+0xb0>
 8001dd8:	4a28      	ldr	r2, [pc, #160]	@ (8001e7c <HAL_RCCEx_PeriphCLKConfig+0x118>)
 8001dda:	6bd3      	ldr	r3, [r2, #60]	@ 0x3c
 8001ddc:	492a      	ldr	r1, [pc, #168]	@ (8001e88 <HAL_RCCEx_PeriphCLKConfig+0x124>)
 8001dde:	400b      	ands	r3, r1
 8001de0:	63d3      	str	r3, [r2, #60]	@ 0x3c
 8001de2:	e017      	b.n	8001e14 <HAL_RCCEx_PeriphCLKConfig+0xb0>
 8001de4:	2500      	movs	r5, #0
 8001de6:	e7d2      	b.n	8001d8e <HAL_RCCEx_PeriphCLKConfig+0x2a>
 8001de8:	f7fe fe16 	bl	8000a18 <HAL_GetTick>
 8001dec:	0006      	movs	r6, r0
 8001dee:	4b23      	ldr	r3, [pc, #140]	@ (8001e7c <HAL_RCCEx_PeriphCLKConfig+0x118>)
 8001df0:	6ddb      	ldr	r3, [r3, #92]	@ 0x5c
 8001df2:	079b      	lsls	r3, r3, #30
 8001df4:	d407      	bmi.n	8001e06 <HAL_RCCEx_PeriphCLKConfig+0xa2>
 8001df6:	f7fe fe0f 	bl	8000a18 <HAL_GetTick>
 8001dfa:	1b80      	subs	r0, r0, r6
 8001dfc:	4b23      	ldr	r3, [pc, #140]	@ (8001e8c <HAL_RCCEx_PeriphCLKConfig+0x128>)
 8001dfe:	4298      	cmp	r0, r3
 8001e00:	d9f5      	bls.n	8001dee <HAL_RCCEx_PeriphCLKConfig+0x8a>
 8001e02:	2003      	movs	r0, #3
 8001e04:	e002      	b.n	8001e0c <HAL_RCCEx_PeriphCLKConfig+0xa8>
 8001e06:	2000      	movs	r0, #0
 8001e08:	e000      	b.n	8001e0c <HAL_RCCEx_PeriphCLKConfig+0xa8>
 8001e0a:	2000      	movs	r0, #0
 8001e0c:	2800      	cmp	r0, #0
 8001e0e:	d1e1      	bne.n	8001dd4 <HAL_RCCEx_PeriphCLKConfig+0x70>
 8001e10:	e7d8      	b.n	8001dc4 <HAL_RCCEx_PeriphCLKConfig+0x60>
 8001e12:	2000      	movs	r0, #0
 8001e14:	6823      	ldr	r3, [r4, #0]
 8001e16:	07db      	lsls	r3, r3, #31
 8001e18:	d506      	bpl.n	8001e28 <HAL_RCCEx_PeriphCLKConfig+0xc4>
 8001e1a:	4a18      	ldr	r2, [pc, #96]	@ (8001e7c <HAL_RCCEx_PeriphCLKConfig+0x118>)
 8001e1c:	6d53      	ldr	r3, [r2, #84]	@ 0x54
 8001e1e:	2103      	movs	r1, #3
 8001e20:	438b      	bics	r3, r1
 8001e22:	68a1      	ldr	r1, [r4, #8]
 8001e24:	430b      	orrs	r3, r1
 8001e26:	6553      	str	r3, [r2, #84]	@ 0x54
 8001e28:	6823      	ldr	r3, [r4, #0]
 8001e2a:	079b      	lsls	r3, r3, #30
 8001e2c:	d506      	bpl.n	8001e3c <HAL_RCCEx_PeriphCLKConfig+0xd8>
 8001e2e:	4a13      	ldr	r2, [pc, #76]	@ (8001e7c <HAL_RCCEx_PeriphCLKConfig+0x118>)
 8001e30:	6d53      	ldr	r3, [r2, #84]	@ 0x54
 8001e32:	4917      	ldr	r1, [pc, #92]	@ (8001e90 <HAL_RCCEx_PeriphCLKConfig+0x12c>)
 8001e34:	400b      	ands	r3, r1
 8001e36:	68e1      	ldr	r1, [r4, #12]
 8001e38:	430b      	orrs	r3, r1
 8001e3a:	6553      	str	r3, [r2, #84]	@ 0x54
 8001e3c:	6823      	ldr	r3, [r4, #0]
 8001e3e:	069b      	lsls	r3, r3, #26
 8001e40:	d506      	bpl.n	8001e50 <HAL_RCCEx_PeriphCLKConfig+0xec>
 8001e42:	4a0e      	ldr	r2, [pc, #56]	@ (8001e7c <HAL_RCCEx_PeriphCLKConfig+0x118>)
 8001e44:	6d53      	ldr	r3, [r2, #84]	@ 0x54
 8001e46:	009b      	lsls	r3, r3, #2
 8001e48:	089b      	lsrs	r3, r3, #2
 8001e4a:	6961      	ldr	r1, [r4, #20]
 8001e4c:	430b      	orrs	r3, r1
 8001e4e:	6553      	str	r3, [r2, #84]	@ 0x54
 8001e50:	6823      	ldr	r3, [r4, #0]
 8001e52:	075b      	lsls	r3, r3, #29
 8001e54:	d506      	bpl.n	8001e64 <HAL_RCCEx_PeriphCLKConfig+0x100>
 8001e56:	4a09      	ldr	r2, [pc, #36]	@ (8001e7c <HAL_RCCEx_PeriphCLKConfig+0x118>)
 8001e58:	6d53      	ldr	r3, [r2, #84]	@ 0x54
 8001e5a:	490e      	ldr	r1, [pc, #56]	@ (8001e94 <HAL_RCCEx_PeriphCLKConfig+0x130>)
 8001e5c:	400b      	ands	r3, r1
 8001e5e:	6921      	ldr	r1, [r4, #16]
 8001e60:	430b      	orrs	r3, r1
 8001e62:	6553      	str	r3, [r2, #84]	@ 0x54
 8001e64:	6823      	ldr	r3, [r4, #0]
 8001e66:	061b      	lsls	r3, r3, #24
 8001e68:	d506      	bpl.n	8001e78 <HAL_RCCEx_PeriphCLKConfig+0x114>
 8001e6a:	4a04      	ldr	r2, [pc, #16]	@ (8001e7c <HAL_RCCEx_PeriphCLKConfig+0x118>)
 8001e6c:	6813      	ldr	r3, [r2, #0]
 8001e6e:	21e0      	movs	r1, #224	@ 0xe0
 8001e70:	438b      	bics	r3, r1
 8001e72:	6861      	ldr	r1, [r4, #4]
 8001e74:	430b      	orrs	r3, r1
 8001e76:	6013      	str	r3, [r2, #0]
 8001e78:	b002      	add	sp, #8
 8001e7a:	bd70      	pop	{r4, r5, r6, pc}
 8001e7c:	40021000 	.word	0x40021000
 8001e80:	fffffcff 	.word	0xfffffcff
 8001e84:	fffeffff 	.word	0xfffeffff
 8001e88:	efffffff 	.word	0xefffffff
 8001e8c:	00001388 	.word	0x00001388
 8001e90:	ffffcfff 	.word	0xffffcfff
 8001e94:	ffff3fff 	.word	0xffff3fff

08001e98 <UART_EndRxTransfer>:
 8001e98:	b530      	push	{r4, r5, lr}
 8001e9a:	f3ef 8410 	mrs	r4, PRIMASK
 8001e9e:	2201      	movs	r2, #1
 8001ea0:	f382 8810 	msr	PRIMASK, r2
 8001ea4:	6801      	ldr	r1, [r0, #0]
 8001ea6:	680b      	ldr	r3, [r1, #0]
 8001ea8:	4d12      	ldr	r5, [pc, #72]	@ (8001ef4 <UART_EndRxTransfer+0x5c>)
 8001eaa:	402b      	ands	r3, r5
 8001eac:	600b      	str	r3, [r1, #0]
 8001eae:	f384 8810 	msr	PRIMASK, r4
 8001eb2:	f3ef 8110 	mrs	r1, PRIMASK
 8001eb6:	f382 8810 	msr	PRIMASK, r2
 8001eba:	6802      	ldr	r2, [r0, #0]
 8001ebc:	6893      	ldr	r3, [r2, #8]
 8001ebe:	4c0e      	ldr	r4, [pc, #56]	@ (8001ef8 <UART_EndRxTransfer+0x60>)
 8001ec0:	4023      	ands	r3, r4
 8001ec2:	6093      	str	r3, [r2, #8]
 8001ec4:	f381 8810 	msr	PRIMASK, r1
 8001ec8:	6ec3      	ldr	r3, [r0, #108]	@ 0x6c
 8001eca:	2b01      	cmp	r3, #1
 8001ecc:	d006      	beq.n	8001edc <UART_EndRxTransfer+0x44>
 8001ece:	238c      	movs	r3, #140	@ 0x8c
 8001ed0:	2220      	movs	r2, #32
 8001ed2:	50c2      	str	r2, [r0, r3]
 8001ed4:	2300      	movs	r3, #0
 8001ed6:	66c3      	str	r3, [r0, #108]	@ 0x6c
 8001ed8:	6743      	str	r3, [r0, #116]	@ 0x74
 8001eda:	bd30      	pop	{r4, r5, pc}
 8001edc:	f3ef 8110 	mrs	r1, PRIMASK
 8001ee0:	f383 8810 	msr	PRIMASK, r3
 8001ee4:	6802      	ldr	r2, [r0, #0]
 8001ee6:	6813      	ldr	r3, [r2, #0]
 8001ee8:	2410      	movs	r4, #16
 8001eea:	43a3      	bics	r3, r4
 8001eec:	6013      	str	r3, [r2, #0]
 8001eee:	f381 8810 	msr	PRIMASK, r1
 8001ef2:	e7ec      	b.n	8001ece <UART_EndRxTransfer+0x36>
 8001ef4:	fffffedf 	.word	0xfffffedf
 8001ef8:	effffffe 	.word	0xeffffffe

08001efc <UART_SetConfig>:
 8001efc:	b510      	push	{r4, lr}
 8001efe:	0004      	movs	r4, r0
 8001f00:	6883      	ldr	r3, [r0, #8]
 8001f02:	6902      	ldr	r2, [r0, #16]
 8001f04:	4313      	orrs	r3, r2
 8001f06:	6942      	ldr	r2, [r0, #20]
 8001f08:	4313      	orrs	r3, r2
 8001f0a:	69c2      	ldr	r2, [r0, #28]
 8001f0c:	4313      	orrs	r3, r2
 8001f0e:	6801      	ldr	r1, [r0, #0]
 8001f10:	680a      	ldr	r2, [r1, #0]
 8001f12:	4862      	ldr	r0, [pc, #392]	@ (800209c <UART_SetConfig+0x1a0>)
 8001f14:	4002      	ands	r2, r0
 8001f16:	4313      	orrs	r3, r2
 8001f18:	600b      	str	r3, [r1, #0]
 8001f1a:	6822      	ldr	r2, [r4, #0]
 8001f1c:	6853      	ldr	r3, [r2, #4]
 8001f1e:	4960      	ldr	r1, [pc, #384]	@ (80020a0 <UART_SetConfig+0x1a4>)
 8001f20:	400b      	ands	r3, r1
 8001f22:	68e1      	ldr	r1, [r4, #12]
 8001f24:	430b      	orrs	r3, r1
 8001f26:	6053      	str	r3, [r2, #4]
 8001f28:	69a3      	ldr	r3, [r4, #24]
 8001f2a:	6a22      	ldr	r2, [r4, #32]
 8001f2c:	431a      	orrs	r2, r3
 8001f2e:	6821      	ldr	r1, [r4, #0]
 8001f30:	688b      	ldr	r3, [r1, #8]
 8001f32:	485c      	ldr	r0, [pc, #368]	@ (80020a4 <UART_SetConfig+0x1a8>)
 8001f34:	4003      	ands	r3, r0
 8001f36:	4313      	orrs	r3, r2
 8001f38:	608b      	str	r3, [r1, #8]
 8001f3a:	6822      	ldr	r2, [r4, #0]
 8001f3c:	6ad3      	ldr	r3, [r2, #44]	@ 0x2c
 8001f3e:	210f      	movs	r1, #15
 8001f40:	438b      	bics	r3, r1
 8001f42:	6a61      	ldr	r1, [r4, #36]	@ 0x24
 8001f44:	430b      	orrs	r3, r1
 8001f46:	62d3      	str	r3, [r2, #44]	@ 0x2c
 8001f48:	6823      	ldr	r3, [r4, #0]
 8001f4a:	4a57      	ldr	r2, [pc, #348]	@ (80020a8 <UART_SetConfig+0x1ac>)
 8001f4c:	4293      	cmp	r3, r2
 8001f4e:	d030      	beq.n	8001fb2 <UART_SetConfig+0xb6>
 8001f50:	4a56      	ldr	r2, [pc, #344]	@ (80020ac <UART_SetConfig+0x1b0>)
 8001f52:	4293      	cmp	r3, r2
 8001f54:	d03e      	beq.n	8001fd4 <UART_SetConfig+0xd8>
 8001f56:	2310      	movs	r3, #16
 8001f58:	69e0      	ldr	r0, [r4, #28]
 8001f5a:	2280      	movs	r2, #128	@ 0x80
 8001f5c:	0212      	lsls	r2, r2, #8
 8001f5e:	4290      	cmp	r0, r2
 8001f60:	d042      	beq.n	8001fe8 <UART_SetConfig+0xec>
 8001f62:	2b04      	cmp	r3, #4
 8001f64:	d100      	bne.n	8001f68 <UART_SetConfig+0x6c>
 8001f66:	e089      	b.n	800207c <UART_SetConfig+0x180>
 8001f68:	d87b      	bhi.n	8002062 <UART_SetConfig+0x166>
 8001f6a:	2b00      	cmp	r3, #0
 8001f6c:	d100      	bne.n	8001f70 <UART_SetConfig+0x74>
 8001f6e:	e07f      	b.n	8002070 <UART_SetConfig+0x174>
 8001f70:	2b02      	cmp	r3, #2
 8001f72:	d174      	bne.n	800205e <UART_SetConfig+0x162>
 8001f74:	4b4e      	ldr	r3, [pc, #312]	@ (80020b0 <UART_SetConfig+0x1b4>)
 8001f76:	681b      	ldr	r3, [r3, #0]
 8001f78:	095b      	lsrs	r3, r3, #5
 8001f7a:	2107      	movs	r1, #7
 8001f7c:	4019      	ands	r1, r3
 8001f7e:	3101      	adds	r1, #1
 8001f80:	484c      	ldr	r0, [pc, #304]	@ (80020b4 <UART_SetConfig+0x1b8>)
 8001f82:	f7fe f8af 	bl	80000e4 <__udivsi3>
 8001f86:	6a62      	ldr	r2, [r4, #36]	@ 0x24
 8001f88:	4b4b      	ldr	r3, [pc, #300]	@ (80020b8 <UART_SetConfig+0x1bc>)
 8001f8a:	0052      	lsls	r2, r2, #1
 8001f8c:	5ad1      	ldrh	r1, [r2, r3]
 8001f8e:	f7fe f8a9 	bl	80000e4 <__udivsi3>
 8001f92:	6861      	ldr	r1, [r4, #4]
 8001f94:	084b      	lsrs	r3, r1, #1
 8001f96:	18c0      	adds	r0, r0, r3
 8001f98:	f7fe f8a4 	bl	80000e4 <__udivsi3>
 8001f9c:	0002      	movs	r2, r0
 8001f9e:	3a10      	subs	r2, #16
 8001fa0:	4b46      	ldr	r3, [pc, #280]	@ (80020bc <UART_SetConfig+0x1c0>)
 8001fa2:	429a      	cmp	r2, r3
 8001fa4:	d86f      	bhi.n	8002086 <UART_SetConfig+0x18a>
 8001fa6:	6823      	ldr	r3, [r4, #0]
 8001fa8:	0400      	lsls	r0, r0, #16
 8001faa:	0c00      	lsrs	r0, r0, #16
 8001fac:	60d8      	str	r0, [r3, #12]
 8001fae:	2000      	movs	r0, #0
 8001fb0:	e06a      	b.n	8002088 <UART_SetConfig+0x18c>
 8001fb2:	4b3f      	ldr	r3, [pc, #252]	@ (80020b0 <UART_SetConfig+0x1b4>)
 8001fb4:	6d5a      	ldr	r2, [r3, #84]	@ 0x54
 8001fb6:	2303      	movs	r3, #3
 8001fb8:	4013      	ands	r3, r2
 8001fba:	2b02      	cmp	r3, #2
 8001fbc:	d00c      	beq.n	8001fd8 <UART_SetConfig+0xdc>
 8001fbe:	d805      	bhi.n	8001fcc <UART_SetConfig+0xd0>
 8001fc0:	2b00      	cmp	r3, #0
 8001fc2:	d00b      	beq.n	8001fdc <UART_SetConfig+0xe0>
 8001fc4:	2b01      	cmp	r3, #1
 8001fc6:	d10b      	bne.n	8001fe0 <UART_SetConfig+0xe4>
 8001fc8:	3303      	adds	r3, #3
 8001fca:	e7c5      	b.n	8001f58 <UART_SetConfig+0x5c>
 8001fcc:	2b03      	cmp	r3, #3
 8001fce:	d109      	bne.n	8001fe4 <UART_SetConfig+0xe8>
 8001fd0:	3305      	adds	r3, #5
 8001fd2:	e7c1      	b.n	8001f58 <UART_SetConfig+0x5c>
 8001fd4:	2300      	movs	r3, #0
 8001fd6:	e7bf      	b.n	8001f58 <UART_SetConfig+0x5c>
 8001fd8:	2302      	movs	r3, #2
 8001fda:	e7bd      	b.n	8001f58 <UART_SetConfig+0x5c>
 8001fdc:	2300      	movs	r3, #0
 8001fde:	e7bb      	b.n	8001f58 <UART_SetConfig+0x5c>
 8001fe0:	2310      	movs	r3, #16
 8001fe2:	e7b9      	b.n	8001f58 <UART_SetConfig+0x5c>
 8001fe4:	2310      	movs	r3, #16
 8001fe6:	e7b7      	b.n	8001f58 <UART_SetConfig+0x5c>
 8001fe8:	2b04      	cmp	r3, #4
 8001fea:	d035      	beq.n	8002058 <UART_SetConfig+0x15c>
 8001fec:	d82a      	bhi.n	8002044 <UART_SetConfig+0x148>
 8001fee:	2b00      	cmp	r3, #0
 8001ff0:	d02c      	beq.n	800204c <UART_SetConfig+0x150>
 8001ff2:	2b02      	cmp	r3, #2
 8001ff4:	d124      	bne.n	8002040 <UART_SetConfig+0x144>
 8001ff6:	4b2e      	ldr	r3, [pc, #184]	@ (80020b0 <UART_SetConfig+0x1b4>)
 8001ff8:	681b      	ldr	r3, [r3, #0]
 8001ffa:	095b      	lsrs	r3, r3, #5
 8001ffc:	2107      	movs	r1, #7
 8001ffe:	4019      	ands	r1, r3
 8002000:	3101      	adds	r1, #1
 8002002:	482c      	ldr	r0, [pc, #176]	@ (80020b4 <UART_SetConfig+0x1b8>)
 8002004:	f7fe f86e 	bl	80000e4 <__udivsi3>
 8002008:	6a62      	ldr	r2, [r4, #36]	@ 0x24
 800200a:	4b2b      	ldr	r3, [pc, #172]	@ (80020b8 <UART_SetConfig+0x1bc>)
 800200c:	0052      	lsls	r2, r2, #1
 800200e:	5ad1      	ldrh	r1, [r2, r3]
 8002010:	f7fe f868 	bl	80000e4 <__udivsi3>
 8002014:	0040      	lsls	r0, r0, #1
 8002016:	6861      	ldr	r1, [r4, #4]
 8002018:	084b      	lsrs	r3, r1, #1
 800201a:	18c0      	adds	r0, r0, r3
 800201c:	f7fe f862 	bl	80000e4 <__udivsi3>
 8002020:	0002      	movs	r2, r0
 8002022:	3a10      	subs	r2, #16
 8002024:	4b25      	ldr	r3, [pc, #148]	@ (80020bc <UART_SetConfig+0x1c0>)
 8002026:	429a      	cmp	r2, r3
 8002028:	d82b      	bhi.n	8002082 <UART_SetConfig+0x186>
 800202a:	b282      	uxth	r2, r0
 800202c:	230f      	movs	r3, #15
 800202e:	439a      	bics	r2, r3
 8002030:	0840      	lsrs	r0, r0, #1
 8002032:	3b08      	subs	r3, #8
 8002034:	4003      	ands	r3, r0
 8002036:	4313      	orrs	r3, r2
 8002038:	6822      	ldr	r2, [r4, #0]
 800203a:	60d3      	str	r3, [r2, #12]
 800203c:	2000      	movs	r0, #0
 800203e:	e023      	b.n	8002088 <UART_SetConfig+0x18c>
 8002040:	2001      	movs	r0, #1
 8002042:	e021      	b.n	8002088 <UART_SetConfig+0x18c>
 8002044:	2b08      	cmp	r3, #8
 8002046:	d0df      	beq.n	8002008 <UART_SetConfig+0x10c>
 8002048:	2001      	movs	r0, #1
 800204a:	e01d      	b.n	8002088 <UART_SetConfig+0x18c>
 800204c:	f7ff fe76 	bl	8001d3c <HAL_RCC_GetPCLK1Freq>
 8002050:	2800      	cmp	r0, #0
 8002052:	d1d9      	bne.n	8002008 <UART_SetConfig+0x10c>
 8002054:	2000      	movs	r0, #0
 8002056:	e017      	b.n	8002088 <UART_SetConfig+0x18c>
 8002058:	f7ff fd68 	bl	8001b2c <HAL_RCC_GetSysClockFreq>
 800205c:	e7f8      	b.n	8002050 <UART_SetConfig+0x154>
 800205e:	2001      	movs	r0, #1
 8002060:	e012      	b.n	8002088 <UART_SetConfig+0x18c>
 8002062:	2b08      	cmp	r3, #8
 8002064:	d102      	bne.n	800206c <UART_SetConfig+0x170>
 8002066:	2080      	movs	r0, #128	@ 0x80
 8002068:	0200      	lsls	r0, r0, #8
 800206a:	e78c      	b.n	8001f86 <UART_SetConfig+0x8a>
 800206c:	2001      	movs	r0, #1
 800206e:	e00b      	b.n	8002088 <UART_SetConfig+0x18c>
 8002070:	f7ff fe64 	bl	8001d3c <HAL_RCC_GetPCLK1Freq>
 8002074:	2800      	cmp	r0, #0
 8002076:	d186      	bne.n	8001f86 <UART_SetConfig+0x8a>
 8002078:	2000      	movs	r0, #0
 800207a:	e005      	b.n	8002088 <UART_SetConfig+0x18c>
 800207c:	f7ff fd56 	bl	8001b2c <HAL_RCC_GetSysClockFreq>
 8002080:	e7f8      	b.n	8002074 <UART_SetConfig+0x178>
 8002082:	2001      	movs	r0, #1
 8002084:	e000      	b.n	8002088 <UART_SetConfig+0x18c>
 8002086:	2001      	movs	r0, #1
 8002088:	2301      	movs	r3, #1
 800208a:	226a      	movs	r2, #106	@ 0x6a
 800208c:	52a3      	strh	r3, [r4, r2]
 800208e:	3a02      	subs	r2, #2
 8002090:	52a3      	strh	r3, [r4, r2]
 8002092:	2300      	movs	r3, #0
 8002094:	6763      	str	r3, [r4, #116]	@ 0x74
 8002096:	67a3      	str	r3, [r4, #120]	@ 0x78
 8002098:	bd10      	pop	{r4, pc}
 800209a:	46c0      	nop			@ (mov r8, r8)
 800209c:	cfff69f3 	.word	0xcfff69f3
 80020a0:	ffffcfff 	.word	0xffffcfff
 80020a4:	11fff4ff 	.word	0x11fff4ff
 80020a8:	40013800 	.word	0x40013800
 80020ac:	40004400 	.word	0x40004400
 80020b0:	40021000 	.word	0x40021000
 80020b4:	02dc6c00 	.word	0x02dc6c00
 80020b8:	08003e50 	.word	0x08003e50
 80020bc:	0000ffef 	.word	0x0000ffef

080020c0 <UART_AdvFeatureConfig>:
 80020c0:	6a83      	ldr	r3, [r0, #40]	@ 0x28
 80020c2:	071b      	lsls	r3, r3, #28
 80020c4:	d506      	bpl.n	80020d4 <UART_AdvFeatureConfig+0x14>
 80020c6:	6802      	ldr	r2, [r0, #0]
 80020c8:	6853      	ldr	r3, [r2, #4]
 80020ca:	492c      	ldr	r1, [pc, #176]	@ (800217c <UART_AdvFeatureConfig+0xbc>)
 80020cc:	400b      	ands	r3, r1
 80020ce:	6b81      	ldr	r1, [r0, #56]	@ 0x38
 80020d0:	430b      	orrs	r3, r1
 80020d2:	6053      	str	r3, [r2, #4]
 80020d4:	6a83      	ldr	r3, [r0, #40]	@ 0x28
 80020d6:	07db      	lsls	r3, r3, #31
 80020d8:	d506      	bpl.n	80020e8 <UART_AdvFeatureConfig+0x28>
 80020da:	6802      	ldr	r2, [r0, #0]
 80020dc:	6853      	ldr	r3, [r2, #4]
 80020de:	4928      	ldr	r1, [pc, #160]	@ (8002180 <UART_AdvFeatureConfig+0xc0>)
 80020e0:	400b      	ands	r3, r1
 80020e2:	6ac1      	ldr	r1, [r0, #44]	@ 0x2c
 80020e4:	430b      	orrs	r3, r1
 80020e6:	6053      	str	r3, [r2, #4]
 80020e8:	6a83      	ldr	r3, [r0, #40]	@ 0x28
 80020ea:	079b      	lsls	r3, r3, #30
 80020ec:	d506      	bpl.n	80020fc <UART_AdvFeatureConfig+0x3c>
 80020ee:	6802      	ldr	r2, [r0, #0]
 80020f0:	6853      	ldr	r3, [r2, #4]
 80020f2:	4924      	ldr	r1, [pc, #144]	@ (8002184 <UART_AdvFeatureConfig+0xc4>)
 80020f4:	400b      	ands	r3, r1
 80020f6:	6b01      	ldr	r1, [r0, #48]	@ 0x30
 80020f8:	430b      	orrs	r3, r1
 80020fa:	6053      	str	r3, [r2, #4]
 80020fc:	6a83      	ldr	r3, [r0, #40]	@ 0x28
 80020fe:	075b      	lsls	r3, r3, #29
 8002100:	d506      	bpl.n	8002110 <UART_AdvFeatureConfig+0x50>
 8002102:	6802      	ldr	r2, [r0, #0]
 8002104:	6853      	ldr	r3, [r2, #4]
 8002106:	4920      	ldr	r1, [pc, #128]	@ (8002188 <UART_AdvFeatureConfig+0xc8>)
 8002108:	400b      	ands	r3, r1
 800210a:	6b41      	ldr	r1, [r0, #52]	@ 0x34
 800210c:	430b      	orrs	r3, r1
 800210e:	6053      	str	r3, [r2, #4]
 8002110:	6a83      	ldr	r3, [r0, #40]	@ 0x28
 8002112:	06db      	lsls	r3, r3, #27
 8002114:	d506      	bpl.n	8002124 <UART_AdvFeatureConfig+0x64>
 8002116:	6802      	ldr	r2, [r0, #0]
 8002118:	6893      	ldr	r3, [r2, #8]
 800211a:	491c      	ldr	r1, [pc, #112]	@ (800218c <UART_AdvFeatureConfig+0xcc>)
 800211c:	400b      	ands	r3, r1
 800211e:	6bc1      	ldr	r1, [r0, #60]	@ 0x3c
 8002120:	430b      	orrs	r3, r1
 8002122:	6093      	str	r3, [r2, #8]
 8002124:	6a83      	ldr	r3, [r0, #40]	@ 0x28
 8002126:	069b      	lsls	r3, r3, #26
 8002128:	d506      	bpl.n	8002138 <UART_AdvFeatureConfig+0x78>
 800212a:	6802      	ldr	r2, [r0, #0]
 800212c:	6893      	ldr	r3, [r2, #8]
 800212e:	4918      	ldr	r1, [pc, #96]	@ (8002190 <UART_AdvFeatureConfig+0xd0>)
 8002130:	400b      	ands	r3, r1
 8002132:	6c01      	ldr	r1, [r0, #64]	@ 0x40
 8002134:	430b      	orrs	r3, r1
 8002136:	6093      	str	r3, [r2, #8]
 8002138:	6a83      	ldr	r3, [r0, #40]	@ 0x28
 800213a:	065b      	lsls	r3, r3, #25
 800213c:	d50b      	bpl.n	8002156 <UART_AdvFeatureConfig+0x96>
 800213e:	6802      	ldr	r2, [r0, #0]
 8002140:	6853      	ldr	r3, [r2, #4]
 8002142:	4914      	ldr	r1, [pc, #80]	@ (8002194 <UART_AdvFeatureConfig+0xd4>)
 8002144:	400b      	ands	r3, r1
 8002146:	6c41      	ldr	r1, [r0, #68]	@ 0x44
 8002148:	430b      	orrs	r3, r1
 800214a:	6053      	str	r3, [r2, #4]
 800214c:	6c42      	ldr	r2, [r0, #68]	@ 0x44
 800214e:	2380      	movs	r3, #128	@ 0x80
 8002150:	035b      	lsls	r3, r3, #13
 8002152:	429a      	cmp	r2, r3
 8002154:	d00a      	beq.n	800216c <UART_AdvFeatureConfig+0xac>
 8002156:	6a83      	ldr	r3, [r0, #40]	@ 0x28
 8002158:	061b      	lsls	r3, r3, #24
 800215a:	d506      	bpl.n	800216a <UART_AdvFeatureConfig+0xaa>
 800215c:	6802      	ldr	r2, [r0, #0]
 800215e:	6853      	ldr	r3, [r2, #4]
 8002160:	490d      	ldr	r1, [pc, #52]	@ (8002198 <UART_AdvFeatureConfig+0xd8>)
 8002162:	400b      	ands	r3, r1
 8002164:	6cc1      	ldr	r1, [r0, #76]	@ 0x4c
 8002166:	430b      	orrs	r3, r1
 8002168:	6053      	str	r3, [r2, #4]
 800216a:	4770      	bx	lr
 800216c:	6802      	ldr	r2, [r0, #0]
 800216e:	6853      	ldr	r3, [r2, #4]
 8002170:	490a      	ldr	r1, [pc, #40]	@ (800219c <UART_AdvFeatureConfig+0xdc>)
 8002172:	400b      	ands	r3, r1
 8002174:	6c81      	ldr	r1, [r0, #72]	@ 0x48
 8002176:	430b      	orrs	r3, r1
 8002178:	6053      	str	r3, [r2, #4]
 800217a:	e7ec      	b.n	8002156 <UART_AdvFeatureConfig+0x96>
 800217c:	ffff7fff 	.word	0xffff7fff
 8002180:	fffdffff 	.word	0xfffdffff
 8002184:	fffeffff 	.word	0xfffeffff
 8002188:	fffbffff 	.word	0xfffbffff
 800218c:	ffffefff 	.word	0xffffefff
 8002190:	ffffdfff 	.word	0xffffdfff
 8002194:	ffefffff 	.word	0xffefffff
 8002198:	fff7ffff 	.word	0xfff7ffff
 800219c:	ff9fffff 	.word	0xff9fffff

080021a0 <UART_WaitOnFlagUntilTimeout>:
 80021a0:	b5f8      	push	{r3, r4, r5, r6, r7, lr}
 80021a2:	46ce      	mov	lr, r9
 80021a4:	4647      	mov	r7, r8
 80021a6:	b580      	push	{r7, lr}
 80021a8:	0006      	movs	r6, r0
 80021aa:	000d      	movs	r5, r1
 80021ac:	0017      	movs	r7, r2
 80021ae:	4699      	mov	r9, r3
 80021b0:	9b08      	ldr	r3, [sp, #32]
 80021b2:	4698      	mov	r8, r3
 80021b4:	6833      	ldr	r3, [r6, #0]
 80021b6:	69dc      	ldr	r4, [r3, #28]
 80021b8:	402c      	ands	r4, r5
 80021ba:	1b64      	subs	r4, r4, r5
 80021bc:	4263      	negs	r3, r4
 80021be:	415c      	adcs	r4, r3
 80021c0:	42bc      	cmp	r4, r7
 80021c2:	d133      	bne.n	800222c <UART_WaitOnFlagUntilTimeout+0x8c>
 80021c4:	4643      	mov	r3, r8
 80021c6:	3301      	adds	r3, #1
 80021c8:	d0f4      	beq.n	80021b4 <UART_WaitOnFlagUntilTimeout+0x14>
 80021ca:	f7fe fc25 	bl	8000a18 <HAL_GetTick>
 80021ce:	464b      	mov	r3, r9
 80021d0:	1ac0      	subs	r0, r0, r3
 80021d2:	4540      	cmp	r0, r8
 80021d4:	d82f      	bhi.n	8002236 <UART_WaitOnFlagUntilTimeout+0x96>
 80021d6:	4643      	mov	r3, r8
 80021d8:	2b00      	cmp	r3, #0
 80021da:	d02e      	beq.n	800223a <UART_WaitOnFlagUntilTimeout+0x9a>
 80021dc:	6832      	ldr	r2, [r6, #0]
 80021de:	6813      	ldr	r3, [r2, #0]
 80021e0:	075b      	lsls	r3, r3, #29
 80021e2:	d5e7      	bpl.n	80021b4 <UART_WaitOnFlagUntilTimeout+0x14>
 80021e4:	2d80      	cmp	r5, #128	@ 0x80
 80021e6:	d0e5      	beq.n	80021b4 <UART_WaitOnFlagUntilTimeout+0x14>
 80021e8:	2d40      	cmp	r5, #64	@ 0x40
 80021ea:	d0e3      	beq.n	80021b4 <UART_WaitOnFlagUntilTimeout+0x14>
 80021ec:	69d3      	ldr	r3, [r2, #28]
 80021ee:	071b      	lsls	r3, r3, #28
 80021f0:	d410      	bmi.n	8002214 <UART_WaitOnFlagUntilTimeout+0x74>
 80021f2:	69d3      	ldr	r3, [r2, #28]
 80021f4:	051b      	lsls	r3, r3, #20
 80021f6:	d5dd      	bpl.n	80021b4 <UART_WaitOnFlagUntilTimeout+0x14>
 80021f8:	2380      	movs	r3, #128	@ 0x80
 80021fa:	011b      	lsls	r3, r3, #4
 80021fc:	6213      	str	r3, [r2, #32]
 80021fe:	0030      	movs	r0, r6
 8002200:	f7ff fe4a 	bl	8001e98 <UART_EndRxTransfer>
 8002204:	2390      	movs	r3, #144	@ 0x90
 8002206:	2220      	movs	r2, #32
 8002208:	50f2      	str	r2, [r6, r3]
 800220a:	3b0c      	subs	r3, #12
 800220c:	2200      	movs	r2, #0
 800220e:	54f2      	strb	r2, [r6, r3]
 8002210:	2003      	movs	r0, #3
 8002212:	e00c      	b.n	800222e <UART_WaitOnFlagUntilTimeout+0x8e>
 8002214:	2408      	movs	r4, #8
 8002216:	6214      	str	r4, [r2, #32]
 8002218:	0030      	movs	r0, r6
 800221a:	f7ff fe3d 	bl	8001e98 <UART_EndRxTransfer>
 800221e:	2390      	movs	r3, #144	@ 0x90
 8002220:	50f4      	str	r4, [r6, r3]
 8002222:	3b0c      	subs	r3, #12
 8002224:	2200      	movs	r2, #0
 8002226:	54f2      	strb	r2, [r6, r3]
 8002228:	2001      	movs	r0, #1
 800222a:	e000      	b.n	800222e <UART_WaitOnFlagUntilTimeout+0x8e>
 800222c:	2000      	movs	r0, #0
 800222e:	bcc0      	pop	{r6, r7}
 8002230:	46b9      	mov	r9, r7
 8002232:	46b0      	mov	r8, r6
 8002234:	bdf8      	pop	{r3, r4, r5, r6, r7, pc}
 8002236:	2003      	movs	r0, #3
 8002238:	e7f9      	b.n	800222e <UART_WaitOnFlagUntilTimeout+0x8e>
 800223a:	2003      	movs	r0, #3
 800223c:	e7f7      	b.n	800222e <UART_WaitOnFlagUntilTimeout+0x8e>

0800223e <HAL_UART_Transmit>:
 800223e:	b5f0      	push	{r4, r5, r6, r7, lr}
 8002240:	46c6      	mov	lr, r8
 8002242:	b500      	push	{lr}
 8002244:	b082      	sub	sp, #8
 8002246:	0004      	movs	r4, r0
 8002248:	000d      	movs	r5, r1
 800224a:	4690      	mov	r8, r2
 800224c:	001e      	movs	r6, r3
 800224e:	2388      	movs	r3, #136	@ 0x88
 8002250:	58c3      	ldr	r3, [r0, r3]
 8002252:	2b20      	cmp	r3, #32
 8002254:	d165      	bne.n	8002322 <HAL_UART_Transmit+0xe4>
 8002256:	2900      	cmp	r1, #0
 8002258:	d068      	beq.n	800232c <HAL_UART_Transmit+0xee>
 800225a:	2a00      	cmp	r2, #0
 800225c:	d068      	beq.n	8002330 <HAL_UART_Transmit+0xf2>
 800225e:	6882      	ldr	r2, [r0, #8]
 8002260:	2380      	movs	r3, #128	@ 0x80
 8002262:	015b      	lsls	r3, r3, #5
 8002264:	429a      	cmp	r2, r3
 8002266:	d104      	bne.n	8002272 <HAL_UART_Transmit+0x34>
 8002268:	6903      	ldr	r3, [r0, #16]
 800226a:	2b00      	cmp	r3, #0
 800226c:	d101      	bne.n	8002272 <HAL_UART_Transmit+0x34>
 800226e:	07cb      	lsls	r3, r1, #31
 8002270:	d460      	bmi.n	8002334 <HAL_UART_Transmit+0xf6>
 8002272:	2390      	movs	r3, #144	@ 0x90
 8002274:	2200      	movs	r2, #0
 8002276:	50e2      	str	r2, [r4, r3]
 8002278:	3b08      	subs	r3, #8
 800227a:	3221      	adds	r2, #33	@ 0x21
 800227c:	50e2      	str	r2, [r4, r3]
 800227e:	f7fe fbcb 	bl	8000a18 <HAL_GetTick>
 8002282:	0007      	movs	r7, r0
 8002284:	2354      	movs	r3, #84	@ 0x54
 8002286:	4642      	mov	r2, r8
 8002288:	52e2      	strh	r2, [r4, r3]
 800228a:	3302      	adds	r3, #2
 800228c:	52e2      	strh	r2, [r4, r3]
 800228e:	68a2      	ldr	r2, [r4, #8]
 8002290:	2380      	movs	r3, #128	@ 0x80
 8002292:	015b      	lsls	r3, r3, #5
 8002294:	429a      	cmp	r2, r3
 8002296:	d002      	beq.n	800229e <HAL_UART_Transmit+0x60>
 8002298:	2300      	movs	r3, #0
 800229a:	4698      	mov	r8, r3
 800229c:	e018      	b.n	80022d0 <HAL_UART_Transmit+0x92>
 800229e:	6923      	ldr	r3, [r4, #16]
 80022a0:	2b00      	cmp	r3, #0
 80022a2:	d029      	beq.n	80022f8 <HAL_UART_Transmit+0xba>
 80022a4:	2300      	movs	r3, #0
 80022a6:	4698      	mov	r8, r3
 80022a8:	e012      	b.n	80022d0 <HAL_UART_Transmit+0x92>
 80022aa:	2388      	movs	r3, #136	@ 0x88
 80022ac:	2220      	movs	r2, #32
 80022ae:	50e2      	str	r2, [r4, r3]
 80022b0:	2003      	movs	r0, #3
 80022b2:	e037      	b.n	8002324 <HAL_UART_Transmit+0xe6>
 80022b4:	4643      	mov	r3, r8
 80022b6:	881b      	ldrh	r3, [r3, #0]
 80022b8:	6822      	ldr	r2, [r4, #0]
 80022ba:	05db      	lsls	r3, r3, #23
 80022bc:	0ddb      	lsrs	r3, r3, #23
 80022be:	6293      	str	r3, [r2, #40]	@ 0x28
 80022c0:	2302      	movs	r3, #2
 80022c2:	469c      	mov	ip, r3
 80022c4:	44e0      	add	r8, ip
 80022c6:	2356      	movs	r3, #86	@ 0x56
 80022c8:	5ae2      	ldrh	r2, [r4, r3]
 80022ca:	3a01      	subs	r2, #1
 80022cc:	b292      	uxth	r2, r2
 80022ce:	52e2      	strh	r2, [r4, r3]
 80022d0:	2356      	movs	r3, #86	@ 0x56
 80022d2:	5ae3      	ldrh	r3, [r4, r3]
 80022d4:	2b00      	cmp	r3, #0
 80022d6:	d012      	beq.n	80022fe <HAL_UART_Transmit+0xc0>
 80022d8:	9600      	str	r6, [sp, #0]
 80022da:	003b      	movs	r3, r7
 80022dc:	2200      	movs	r2, #0
 80022de:	2180      	movs	r1, #128	@ 0x80
 80022e0:	0020      	movs	r0, r4
 80022e2:	f7ff ff5d 	bl	80021a0 <UART_WaitOnFlagUntilTimeout>
 80022e6:	2800      	cmp	r0, #0
 80022e8:	d1df      	bne.n	80022aa <HAL_UART_Transmit+0x6c>
 80022ea:	2d00      	cmp	r5, #0
 80022ec:	d0e2      	beq.n	80022b4 <HAL_UART_Transmit+0x76>
 80022ee:	782a      	ldrb	r2, [r5, #0]
 80022f0:	6823      	ldr	r3, [r4, #0]
 80022f2:	629a      	str	r2, [r3, #40]	@ 0x28
 80022f4:	3501      	adds	r5, #1
 80022f6:	e7e6      	b.n	80022c6 <HAL_UART_Transmit+0x88>
 80022f8:	46a8      	mov	r8, r5
 80022fa:	2500      	movs	r5, #0
 80022fc:	e7e8      	b.n	80022d0 <HAL_UART_Transmit+0x92>
 80022fe:	9600      	str	r6, [sp, #0]
 8002300:	003b      	movs	r3, r7
 8002302:	2200      	movs	r2, #0
 8002304:	2140      	movs	r1, #64	@ 0x40
 8002306:	0020      	movs	r0, r4
 8002308:	f7ff ff4a 	bl	80021a0 <UART_WaitOnFlagUntilTimeout>
 800230c:	2800      	cmp	r0, #0
 800230e:	d103      	bne.n	8002318 <HAL_UART_Transmit+0xda>
 8002310:	2388      	movs	r3, #136	@ 0x88
 8002312:	2220      	movs	r2, #32
 8002314:	50e2      	str	r2, [r4, r3]
 8002316:	e005      	b.n	8002324 <HAL_UART_Transmit+0xe6>
 8002318:	2388      	movs	r3, #136	@ 0x88
 800231a:	2220      	movs	r2, #32
 800231c:	50e2      	str	r2, [r4, r3]
 800231e:	2003      	movs	r0, #3
 8002320:	e000      	b.n	8002324 <HAL_UART_Transmit+0xe6>
 8002322:	2002      	movs	r0, #2
 8002324:	b002      	add	sp, #8
 8002326:	bc80      	pop	{r7}
 8002328:	46b8      	mov	r8, r7
 800232a:	bdf0      	pop	{r4, r5, r6, r7, pc}
 800232c:	2001      	movs	r0, #1
 800232e:	e7f9      	b.n	8002324 <HAL_UART_Transmit+0xe6>
 8002330:	2001      	movs	r0, #1
 8002332:	e7f7      	b.n	8002324 <HAL_UART_Transmit+0xe6>
 8002334:	2001      	movs	r0, #1
 8002336:	e7f5      	b.n	8002324 <HAL_UART_Transmit+0xe6>

08002338 <UART_CheckIdleState>:
 8002338:	b530      	push	{r4, r5, lr}
 800233a:	b083      	sub	sp, #12
 800233c:	0004      	movs	r4, r0
 800233e:	2390      	movs	r3, #144	@ 0x90
 8002340:	2200      	movs	r2, #0
 8002342:	50c2      	str	r2, [r0, r3]
 8002344:	f7fe fb68 	bl	8000a18 <HAL_GetTick>
 8002348:	0005      	movs	r5, r0
 800234a:	6823      	ldr	r3, [r4, #0]
 800234c:	681b      	ldr	r3, [r3, #0]
 800234e:	071b      	lsls	r3, r3, #28
 8002350:	d410      	bmi.n	8002374 <UART_CheckIdleState+0x3c>
 8002352:	6823      	ldr	r3, [r4, #0]
 8002354:	681b      	ldr	r3, [r3, #0]
 8002356:	075b      	lsls	r3, r3, #29
 8002358:	d42b      	bmi.n	80023b2 <UART_CheckIdleState+0x7a>
 800235a:	2320      	movs	r3, #32
 800235c:	2288      	movs	r2, #136	@ 0x88
 800235e:	50a3      	str	r3, [r4, r2]
 8002360:	3204      	adds	r2, #4
 8002362:	50a3      	str	r3, [r4, r2]
 8002364:	2300      	movs	r3, #0
 8002366:	66e3      	str	r3, [r4, #108]	@ 0x6c
 8002368:	6723      	str	r3, [r4, #112]	@ 0x70
 800236a:	3a08      	subs	r2, #8
 800236c:	54a3      	strb	r3, [r4, r2]
 800236e:	2000      	movs	r0, #0
 8002370:	b003      	add	sp, #12
 8002372:	bd30      	pop	{r4, r5, pc}
 8002374:	2180      	movs	r1, #128	@ 0x80
 8002376:	4b23      	ldr	r3, [pc, #140]	@ (8002404 <UART_CheckIdleState+0xcc>)
 8002378:	9300      	str	r3, [sp, #0]
 800237a:	0003      	movs	r3, r0
 800237c:	2200      	movs	r2, #0
 800237e:	0389      	lsls	r1, r1, #14
 8002380:	0020      	movs	r0, r4
 8002382:	f7ff ff0d 	bl	80021a0 <UART_WaitOnFlagUntilTimeout>
 8002386:	2800      	cmp	r0, #0
 8002388:	d0e3      	beq.n	8002352 <UART_CheckIdleState+0x1a>
 800238a:	f3ef 8110 	mrs	r1, PRIMASK
 800238e:	2301      	movs	r3, #1
 8002390:	f383 8810 	msr	PRIMASK, r3
 8002394:	6822      	ldr	r2, [r4, #0]
 8002396:	6813      	ldr	r3, [r2, #0]
 8002398:	2080      	movs	r0, #128	@ 0x80
 800239a:	4383      	bics	r3, r0
 800239c:	6013      	str	r3, [r2, #0]
 800239e:	f381 8810 	msr	PRIMASK, r1
 80023a2:	2388      	movs	r3, #136	@ 0x88
 80023a4:	2220      	movs	r2, #32
 80023a6:	50e2      	str	r2, [r4, r3]
 80023a8:	3b04      	subs	r3, #4
 80023aa:	2200      	movs	r2, #0
 80023ac:	54e2      	strb	r2, [r4, r3]
 80023ae:	387d      	subs	r0, #125	@ 0x7d
 80023b0:	e7de      	b.n	8002370 <UART_CheckIdleState+0x38>
 80023b2:	2180      	movs	r1, #128	@ 0x80
 80023b4:	4b13      	ldr	r3, [pc, #76]	@ (8002404 <UART_CheckIdleState+0xcc>)
 80023b6:	9300      	str	r3, [sp, #0]
 80023b8:	002b      	movs	r3, r5
 80023ba:	2200      	movs	r2, #0
 80023bc:	03c9      	lsls	r1, r1, #15
 80023be:	0020      	movs	r0, r4
 80023c0:	f7ff feee 	bl	80021a0 <UART_WaitOnFlagUntilTimeout>
 80023c4:	2800      	cmp	r0, #0
 80023c6:	d0c8      	beq.n	800235a <UART_CheckIdleState+0x22>
 80023c8:	f3ef 8010 	mrs	r0, PRIMASK
 80023cc:	2201      	movs	r2, #1
 80023ce:	f382 8810 	msr	PRIMASK, r2
 80023d2:	6821      	ldr	r1, [r4, #0]
 80023d4:	680b      	ldr	r3, [r1, #0]
 80023d6:	4d0c      	ldr	r5, [pc, #48]	@ (8002408 <UART_CheckIdleState+0xd0>)
 80023d8:	402b      	ands	r3, r5
 80023da:	600b      	str	r3, [r1, #0]
 80023dc:	f380 8810 	msr	PRIMASK, r0
 80023e0:	f3ef 8010 	mrs	r0, PRIMASK
 80023e4:	f382 8810 	msr	PRIMASK, r2
 80023e8:	6821      	ldr	r1, [r4, #0]
 80023ea:	688b      	ldr	r3, [r1, #8]
 80023ec:	4393      	bics	r3, r2
 80023ee:	608b      	str	r3, [r1, #8]
 80023f0:	f380 8810 	msr	PRIMASK, r0
 80023f4:	238c      	movs	r3, #140	@ 0x8c
 80023f6:	321f      	adds	r2, #31
 80023f8:	50e2      	str	r2, [r4, r3]
 80023fa:	3b08      	subs	r3, #8
 80023fc:	2200      	movs	r2, #0
 80023fe:	54e2      	strb	r2, [r4, r3]
 8002400:	2003      	movs	r0, #3
 8002402:	e7b5      	b.n	8002370 <UART_CheckIdleState+0x38>
 8002404:	01ffffff 	.word	0x01ffffff
 8002408:	fffffedf 	.word	0xfffffedf

0800240c <HAL_UART_Init>:
 800240c:	b510      	push	{r4, lr}
 800240e:	1e04      	subs	r4, r0, #0
 8002410:	d030      	beq.n	8002474 <HAL_UART_Init+0x68>
 8002412:	2388      	movs	r3, #136	@ 0x88
 8002414:	58c3      	ldr	r3, [r0, r3]
 8002416:	2b00      	cmp	r3, #0
 8002418:	d022      	beq.n	8002460 <HAL_UART_Init+0x54>
 800241a:	2388      	movs	r3, #136	@ 0x88
 800241c:	2224      	movs	r2, #36	@ 0x24
 800241e:	50e2      	str	r2, [r4, r3]
 8002420:	6822      	ldr	r2, [r4, #0]
 8002422:	6813      	ldr	r3, [r2, #0]
 8002424:	2101      	movs	r1, #1
 8002426:	438b      	bics	r3, r1
 8002428:	6013      	str	r3, [r2, #0]
 800242a:	6aa3      	ldr	r3, [r4, #40]	@ 0x28
 800242c:	2b00      	cmp	r3, #0
 800242e:	d11d      	bne.n	800246c <HAL_UART_Init+0x60>
 8002430:	0020      	movs	r0, r4
 8002432:	f7ff fd63 	bl	8001efc <UART_SetConfig>
 8002436:	2801      	cmp	r0, #1
 8002438:	d011      	beq.n	800245e <HAL_UART_Init+0x52>
 800243a:	6822      	ldr	r2, [r4, #0]
 800243c:	6853      	ldr	r3, [r2, #4]
 800243e:	490e      	ldr	r1, [pc, #56]	@ (8002478 <HAL_UART_Init+0x6c>)
 8002440:	400b      	ands	r3, r1
 8002442:	6053      	str	r3, [r2, #4]
 8002444:	6822      	ldr	r2, [r4, #0]
 8002446:	6893      	ldr	r3, [r2, #8]
 8002448:	212a      	movs	r1, #42	@ 0x2a
 800244a:	438b      	bics	r3, r1
 800244c:	6093      	str	r3, [r2, #8]
 800244e:	6822      	ldr	r2, [r4, #0]
 8002450:	6813      	ldr	r3, [r2, #0]
 8002452:	3929      	subs	r1, #41	@ 0x29
 8002454:	430b      	orrs	r3, r1
 8002456:	6013      	str	r3, [r2, #0]
 8002458:	0020      	movs	r0, r4
 800245a:	f7ff ff6d 	bl	8002338 <UART_CheckIdleState>
 800245e:	bd10      	pop	{r4, pc}
 8002460:	3384      	adds	r3, #132	@ 0x84
 8002462:	2200      	movs	r2, #0
 8002464:	54c2      	strb	r2, [r0, r3]
 8002466:	f7ff f9d3 	bl	8001810 <HAL_UART_MspInit>
 800246a:	e7d6      	b.n	800241a <HAL_UART_Init+0xe>
 800246c:	0020      	movs	r0, r4
 800246e:	f7ff fe27 	bl	80020c0 <UART_AdvFeatureConfig>
 8002472:	e7dd      	b.n	8002430 <HAL_UART_Init+0x24>
 8002474:	2001      	movs	r0, #1
 8002476:	e7f2      	b.n	800245e <HAL_UART_Init+0x52>
 8002478:	ffffb7ff 	.word	0xffffb7ff

0800247c <NMI_Handler>:
 800247c:	e7fe      	b.n	800247c <NMI_Handler>

0800247e <HardFault_Handler>:
 800247e:	e7fe      	b.n	800247e <HardFault_Handler>

08002480 <SVC_Handler>:
 8002480:	4770      	bx	lr

08002482 <PendSV_Handler>:
 8002482:	4770      	bx	lr

08002484 <SysTick_Handler>:
 8002484:	b510      	push	{r4, lr}
 8002486:	f7fe fabb 	bl	8000a00 <HAL_IncTick>
 800248a:	bd10      	pop	{r4, pc}

0800248c <EXTI4_15_IRQHandler>:
 800248c:	b510      	push	{r4, lr}
 800248e:	2000      	movs	r0, #0
 8002490:	f000 f8ec 	bl	800266c <BSP_PB_IRQHandler>
 8002494:	bd10      	pop	{r4, pc}
	...

08002498 <DMA1_Channel1_IRQHandler>:
 8002498:	b510      	push	{r4, lr}
 800249a:	4802      	ldr	r0, [pc, #8]	@ (80024a4 <DMA1_Channel1_IRQHandler+0xc>)
 800249c:	f7fe ffa8 	bl	80013f0 <HAL_DMA_IRQHandler>
 80024a0:	bd10      	pop	{r4, pc}
 80024a2:	46c0      	nop			@ (mov r8, r8)
 80024a4:	20000380 	.word	0x20000380

080024a8 <BSP_LED_Init>:
 80024a8:	b570      	push	{r4, r5, r6, lr}
 80024aa:	b088      	sub	sp, #32
 80024ac:	0004      	movs	r4, r0
 80024ae:	2801      	cmp	r0, #1
 80024b0:	d832      	bhi.n	8002518 <BSP_LED_Init+0x70>
 80024b2:	2800      	cmp	r0, #0
 80024b4:	d11d      	bne.n	80024f2 <BSP_LED_Init+0x4a>
 80024b6:	4a1a      	ldr	r2, [pc, #104]	@ (8002520 <BSP_LED_Init+0x78>)
 80024b8:	6b51      	ldr	r1, [r2, #52]	@ 0x34
 80024ba:	2301      	movs	r3, #1
 80024bc:	4319      	orrs	r1, r3
 80024be:	6351      	str	r1, [r2, #52]	@ 0x34
 80024c0:	6b52      	ldr	r2, [r2, #52]	@ 0x34
 80024c2:	4013      	ands	r3, r2
 80024c4:	9301      	str	r3, [sp, #4]
 80024c6:	9b01      	ldr	r3, [sp, #4]
 80024c8:	4b16      	ldr	r3, [pc, #88]	@ (8002524 <BSP_LED_Init+0x7c>)
 80024ca:	0062      	lsls	r2, r4, #1
 80024cc:	5ad6      	ldrh	r6, [r2, r3]
 80024ce:	a903      	add	r1, sp, #12
 80024d0:	9603      	str	r6, [sp, #12]
 80024d2:	2301      	movs	r3, #1
 80024d4:	604b      	str	r3, [r1, #4]
 80024d6:	2300      	movs	r3, #0
 80024d8:	608b      	str	r3, [r1, #8]
 80024da:	3303      	adds	r3, #3
 80024dc:	60cb      	str	r3, [r1, #12]
 80024de:	4b12      	ldr	r3, [pc, #72]	@ (8002528 <BSP_LED_Init+0x80>)
 80024e0:	00a2      	lsls	r2, r4, #2
 80024e2:	58d0      	ldr	r0, [r2, r3]
 80024e4:	f7ff f828 	bl	8001538 <HAL_GPIO_Init>
 80024e8:	2c01      	cmp	r4, #1
 80024ea:	d00c      	beq.n	8002506 <BSP_LED_Init+0x5e>
 80024ec:	2000      	movs	r0, #0
 80024ee:	b008      	add	sp, #32
 80024f0:	bd70      	pop	{r4, r5, r6, pc}
 80024f2:	4a0b      	ldr	r2, [pc, #44]	@ (8002520 <BSP_LED_Init+0x78>)
 80024f4:	6b51      	ldr	r1, [r2, #52]	@ 0x34
 80024f6:	2304      	movs	r3, #4
 80024f8:	4319      	orrs	r1, r3
 80024fa:	6351      	str	r1, [r2, #52]	@ 0x34
 80024fc:	6b52      	ldr	r2, [r2, #52]	@ 0x34
 80024fe:	4013      	ands	r3, r2
 8002500:	9302      	str	r3, [sp, #8]
 8002502:	9b02      	ldr	r3, [sp, #8]
 8002504:	e7e0      	b.n	80024c8 <BSP_LED_Init+0x20>
 8002506:	4b08      	ldr	r3, [pc, #32]	@ (8002528 <BSP_LED_Init+0x80>)
 8002508:	00a4      	lsls	r4, r4, #2
 800250a:	58e0      	ldr	r0, [r4, r3]
 800250c:	2201      	movs	r2, #1
 800250e:	0031      	movs	r1, r6
 8002510:	f7ff f8f7 	bl	8001702 <HAL_GPIO_WritePin>
 8002514:	2000      	movs	r0, #0
 8002516:	e7ea      	b.n	80024ee <BSP_LED_Init+0x46>
 8002518:	2002      	movs	r0, #2
 800251a:	4240      	negs	r0, r0
 800251c:	e7e7      	b.n	80024ee <BSP_LED_Init+0x46>
 800251e:	46c0      	nop			@ (mov r8, r8)
 8002520:	40021000 	.word	0x40021000
 8002524:	08003e68 	.word	0x08003e68
 8002528:	08003e6c 	.word	0x08003e6c

0800252c <BSP_LED_On>:
 800252c:	b510      	push	{r4, lr}
 800252e:	2801      	cmp	r0, #1
 8002530:	d817      	bhi.n	8002562 <BSP_LED_On+0x36>
 8002532:	2800      	cmp	r0, #0
 8002534:	d10a      	bne.n	800254c <BSP_LED_On+0x20>
 8002536:	4b0c      	ldr	r3, [pc, #48]	@ (8002568 <BSP_LED_On+0x3c>)
 8002538:	0042      	lsls	r2, r0, #1
 800253a:	5ad1      	ldrh	r1, [r2, r3]
 800253c:	4b0b      	ldr	r3, [pc, #44]	@ (800256c <BSP_LED_On+0x40>)
 800253e:	0080      	lsls	r0, r0, #2
 8002540:	58c0      	ldr	r0, [r0, r3]
 8002542:	2201      	movs	r2, #1
 8002544:	f7ff f8dd 	bl	8001702 <HAL_GPIO_WritePin>
 8002548:	2000      	movs	r0, #0
 800254a:	bd10      	pop	{r4, pc}
 800254c:	4b06      	ldr	r3, [pc, #24]	@ (8002568 <BSP_LED_On+0x3c>)
 800254e:	0042      	lsls	r2, r0, #1
 8002550:	5ad1      	ldrh	r1, [r2, r3]
 8002552:	4b06      	ldr	r3, [pc, #24]	@ (800256c <BSP_LED_On+0x40>)
 8002554:	0080      	lsls	r0, r0, #2
 8002556:	58c0      	ldr	r0, [r0, r3]
 8002558:	2200      	movs	r2, #0
 800255a:	f7ff f8d2 	bl	8001702 <HAL_GPIO_WritePin>
 800255e:	2000      	movs	r0, #0
 8002560:	e7f3      	b.n	800254a <BSP_LED_On+0x1e>
 8002562:	2002      	movs	r0, #2
 8002564:	4240      	negs	r0, r0
 8002566:	e7f0      	b.n	800254a <BSP_LED_On+0x1e>
 8002568:	08003e68 	.word	0x08003e68
 800256c:	08003e6c 	.word	0x08003e6c

08002570 <BSP_LED_Off>:
 8002570:	b510      	push	{r4, lr}
 8002572:	2801      	cmp	r0, #1
 8002574:	d817      	bhi.n	80025a6 <BSP_LED_Off+0x36>
 8002576:	2800      	cmp	r0, #0
 8002578:	d10a      	bne.n	8002590 <BSP_LED_Off+0x20>
 800257a:	4b0c      	ldr	r3, [pc, #48]	@ (80025ac <BSP_LED_Off+0x3c>)
 800257c:	0042      	lsls	r2, r0, #1
 800257e:	5ad1      	ldrh	r1, [r2, r3]
 8002580:	4b0b      	ldr	r3, [pc, #44]	@ (80025b0 <BSP_LED_Off+0x40>)
 8002582:	0080      	lsls	r0, r0, #2
 8002584:	58c0      	ldr	r0, [r0, r3]
 8002586:	2200      	movs	r2, #0
 8002588:	f7ff f8bb 	bl	8001702 <HAL_GPIO_WritePin>
 800258c:	2000      	movs	r0, #0
 800258e:	bd10      	pop	{r4, pc}
 8002590:	4b06      	ldr	r3, [pc, #24]	@ (80025ac <BSP_LED_Off+0x3c>)
 8002592:	0042      	lsls	r2, r0, #1
 8002594:	5ad1      	ldrh	r1, [r2, r3]
 8002596:	4b06      	ldr	r3, [pc, #24]	@ (80025b0 <BSP_LED_Off+0x40>)
 8002598:	0080      	lsls	r0, r0, #2
 800259a:	58c0      	ldr	r0, [r0, r3]
 800259c:	2201      	movs	r2, #1
 800259e:	f7ff f8b0 	bl	8001702 <HAL_GPIO_WritePin>
 80025a2:	2000      	movs	r0, #0
 80025a4:	e7f3      	b.n	800258e <BSP_LED_Off+0x1e>
 80025a6:	2002      	movs	r0, #2
 80025a8:	4240      	negs	r0, r0
 80025aa:	e7f0      	b.n	800258e <BSP_LED_Off+0x1e>
 80025ac:	08003e68 	.word	0x08003e68
 80025b0:	08003e6c 	.word	0x08003e6c

080025b4 <BSP_LED_Toggle>:
 80025b4:	b510      	push	{r4, lr}
 80025b6:	2801      	cmp	r0, #1
 80025b8:	d809      	bhi.n	80025ce <BSP_LED_Toggle+0x1a>
 80025ba:	4b06      	ldr	r3, [pc, #24]	@ (80025d4 <BSP_LED_Toggle+0x20>)
 80025bc:	0042      	lsls	r2, r0, #1
 80025be:	5ad1      	ldrh	r1, [r2, r3]
 80025c0:	4b05      	ldr	r3, [pc, #20]	@ (80025d8 <BSP_LED_Toggle+0x24>)
 80025c2:	0080      	lsls	r0, r0, #2
 80025c4:	58c0      	ldr	r0, [r0, r3]
 80025c6:	f7ff f8a2 	bl	800170e <HAL_GPIO_TogglePin>
 80025ca:	2000      	movs	r0, #0
 80025cc:	bd10      	pop	{r4, pc}
 80025ce:	2002      	movs	r0, #2
 80025d0:	4240      	negs	r0, r0
 80025d2:	e7fb      	b.n	80025cc <BSP_LED_Toggle+0x18>
 80025d4:	08003e68 	.word	0x08003e68
 80025d8:	08003e6c 	.word	0x08003e6c

080025dc <BSP_PB_Init>:
 80025dc:	b530      	push	{r4, r5, lr}
 80025de:	b087      	sub	sp, #28
 80025e0:	0005      	movs	r5, r0
 80025e2:	4a1c      	ldr	r2, [pc, #112]	@ (8002654 <BSP_PB_Init+0x78>)
 80025e4:	6b50      	ldr	r0, [r2, #52]	@ 0x34
 80025e6:	2304      	movs	r3, #4
 80025e8:	4318      	orrs	r0, r3
 80025ea:	6350      	str	r0, [r2, #52]	@ 0x34
 80025ec:	6b52      	ldr	r2, [r2, #52]	@ 0x34
 80025ee:	4013      	ands	r3, r2
 80025f0:	9300      	str	r3, [sp, #0]
 80025f2:	9b00      	ldr	r3, [sp, #0]
 80025f4:	ab01      	add	r3, sp, #4
 80025f6:	2280      	movs	r2, #128	@ 0x80
 80025f8:	0192      	lsls	r2, r2, #6
 80025fa:	9201      	str	r2, [sp, #4]
 80025fc:	2201      	movs	r2, #1
 80025fe:	9203      	str	r2, [sp, #12]
 8002600:	3201      	adds	r2, #1
 8002602:	9204      	str	r2, [sp, #16]
 8002604:	2900      	cmp	r1, #0
 8002606:	d108      	bne.n	800261a <BSP_PB_Init+0x3e>
 8002608:	0019      	movs	r1, r3
 800260a:	2300      	movs	r3, #0
 800260c:	604b      	str	r3, [r1, #4]
 800260e:	4812      	ldr	r0, [pc, #72]	@ (8002658 <BSP_PB_Init+0x7c>)
 8002610:	f7fe ff92 	bl	8001538 <HAL_GPIO_Init>
 8002614:	2000      	movs	r0, #0
 8002616:	b007      	add	sp, #28
 8002618:	bd30      	pop	{r4, r5, pc}
 800261a:	a901      	add	r1, sp, #4
 800261c:	4b0f      	ldr	r3, [pc, #60]	@ (800265c <BSP_PB_Init+0x80>)
 800261e:	604b      	str	r3, [r1, #4]
 8002620:	480d      	ldr	r0, [pc, #52]	@ (8002658 <BSP_PB_Init+0x7c>)
 8002622:	f7fe ff89 	bl	8001538 <HAL_GPIO_Init>
 8002626:	006c      	lsls	r4, r5, #1
 8002628:	1964      	adds	r4, r4, r5
 800262a:	00a4      	lsls	r4, r4, #2
 800262c:	4b0c      	ldr	r3, [pc, #48]	@ (8002660 <BSP_PB_Init+0x84>)
 800262e:	18e4      	adds	r4, r4, r3
 8002630:	490c      	ldr	r1, [pc, #48]	@ (8002664 <BSP_PB_Init+0x88>)
 8002632:	0020      	movs	r0, r4
 8002634:	f7fe ff54 	bl	80014e0 <HAL_EXTI_GetHandle>
 8002638:	4a0b      	ldr	r2, [pc, #44]	@ (8002668 <BSP_PB_Init+0x8c>)
 800263a:	2100      	movs	r1, #0
 800263c:	0020      	movs	r0, r4
 800263e:	f7fe ff3d 	bl	80014bc <HAL_EXTI_RegisterCallback>
 8002642:	2200      	movs	r2, #0
 8002644:	210f      	movs	r1, #15
 8002646:	2007      	movs	r0, #7
 8002648:	f7fe fe36 	bl	80012b8 <HAL_NVIC_SetPriority>
 800264c:	2007      	movs	r0, #7
 800264e:	f7fe fe37 	bl	80012c0 <HAL_NVIC_EnableIRQ>
 8002652:	e7df      	b.n	8002614 <BSP_PB_Init+0x38>
 8002654:	40021000 	.word	0x40021000
 8002658:	50000800 	.word	0x50000800
 800265c:	10210000 	.word	0x10210000
 8002660:	20000444 	.word	0x20000444
 8002664:	0600000d 	.word	0x0600000d
 8002668:	08002687 	.word	0x08002687

0800266c <BSP_PB_IRQHandler>:
 800266c:	b510      	push	{r4, lr}
 800266e:	0043      	lsls	r3, r0, #1
 8002670:	1818      	adds	r0, r3, r0
 8002672:	0080      	lsls	r0, r0, #2
 8002674:	4b02      	ldr	r3, [pc, #8]	@ (8002680 <BSP_PB_IRQHandler+0x14>)
 8002676:	18c0      	adds	r0, r0, r3
 8002678:	f7fe ff3a 	bl	80014f0 <HAL_EXTI_IRQHandler>
 800267c:	bd10      	pop	{r4, pc}
 800267e:	46c0      	nop			@ (mov r8, r8)
 8002680:	20000444 	.word	0x20000444

08002684 <BSP_PB_Callback>:
 8002684:	4770      	bx	lr

08002686 <BUTTON_USER_EXTI_Callback>:
 8002686:	b510      	push	{r4, lr}
 8002688:	2000      	movs	r0, #0
 800268a:	f7ff fffb 	bl	8002684 <BSP_PB_Callback>
 800268e:	bd10      	pop	{r4, pc}

08002690 <_getpid>:
 8002690:	2001      	movs	r0, #1
 8002692:	4770      	bx	lr

08002694 <_kill>:
 8002694:	b510      	push	{r4, lr}
 8002696:	f000 fa4f 	bl	8002b38 <__errno>
 800269a:	2316      	movs	r3, #22
 800269c:	6003      	str	r3, [r0, #0]
 800269e:	2001      	movs	r0, #1
 80026a0:	4240      	negs	r0, r0
 80026a2:	bd10      	pop	{r4, pc}

080026a4 <_exit>:
 80026a4:	b510      	push	{r4, lr}
 80026a6:	2101      	movs	r1, #1
 80026a8:	4249      	negs	r1, r1
 80026aa:	f7ff fff3 	bl	8002694 <_kill>
 80026ae:	e7fe      	b.n	80026ae <_exit+0xa>

080026b0 <_read>:
 80026b0:	b570      	push	{r4, r5, r6, lr}
 80026b2:	000c      	movs	r4, r1
 80026b4:	0016      	movs	r6, r2
 80026b6:	2500      	movs	r5, #0
 80026b8:	e004      	b.n	80026c4 <_read+0x14>
 80026ba:	e000      	b.n	80026be <_read+0xe>
 80026bc:	bf00      	nop
 80026be:	7020      	strb	r0, [r4, #0]
 80026c0:	3501      	adds	r5, #1
 80026c2:	3401      	adds	r4, #1
 80026c4:	42b5      	cmp	r5, r6
 80026c6:	dbf8      	blt.n	80026ba <_read+0xa>
 80026c8:	0030      	movs	r0, r6
 80026ca:	bd70      	pop	{r4, r5, r6, pc}

080026cc <_write>:
 80026cc:	b570      	push	{r4, r5, r6, lr}
 80026ce:	0016      	movs	r6, r2
 80026d0:	2400      	movs	r4, #0
 80026d2:	e005      	b.n	80026e0 <_write+0x14>
 80026d4:	1c4d      	adds	r5, r1, #1
 80026d6:	7808      	ldrb	r0, [r1, #0]
 80026d8:	e000      	b.n	80026dc <_write+0x10>
 80026da:	bf00      	nop
 80026dc:	3401      	adds	r4, #1
 80026de:	0029      	movs	r1, r5
 80026e0:	42b4      	cmp	r4, r6
 80026e2:	dbf7      	blt.n	80026d4 <_write+0x8>
 80026e4:	0030      	movs	r0, r6
 80026e6:	bd70      	pop	{r4, r5, r6, pc}

080026e8 <_close>:
 80026e8:	2001      	movs	r0, #1
 80026ea:	4240      	negs	r0, r0
 80026ec:	4770      	bx	lr

080026ee <_fstat>:
 80026ee:	2380      	movs	r3, #128	@ 0x80
 80026f0:	019b      	lsls	r3, r3, #6
 80026f2:	604b      	str	r3, [r1, #4]
 80026f4:	2000      	movs	r0, #0
 80026f6:	4770      	bx	lr

080026f8 <_isatty>:
 80026f8:	2001      	movs	r0, #1
 80026fa:	4770      	bx	lr

080026fc <_lseek>:
 80026fc:	2000      	movs	r0, #0
 80026fe:	4770      	bx	lr

08002700 <_sbrk>:
 8002700:	b510      	push	{r4, lr}
 8002702:	0003      	movs	r3, r0
 8002704:	4a0c      	ldr	r2, [pc, #48]	@ (8002738 <_sbrk+0x38>)
 8002706:	490d      	ldr	r1, [pc, #52]	@ (800273c <_sbrk+0x3c>)
 8002708:	1a52      	subs	r2, r2, r1
 800270a:	490d      	ldr	r1, [pc, #52]	@ (8002740 <_sbrk+0x40>)
 800270c:	6809      	ldr	r1, [r1, #0]
 800270e:	2900      	cmp	r1, #0
 8002710:	d007      	beq.n	8002722 <_sbrk+0x22>
 8002712:	490b      	ldr	r1, [pc, #44]	@ (8002740 <_sbrk+0x40>)
 8002714:	6808      	ldr	r0, [r1, #0]
 8002716:	18c3      	adds	r3, r0, r3
 8002718:	4293      	cmp	r3, r2
 800271a:	d806      	bhi.n	800272a <_sbrk+0x2a>
 800271c:	4a08      	ldr	r2, [pc, #32]	@ (8002740 <_sbrk+0x40>)
 800271e:	6013      	str	r3, [r2, #0]
 8002720:	bd10      	pop	{r4, pc}
 8002722:	4907      	ldr	r1, [pc, #28]	@ (8002740 <_sbrk+0x40>)
 8002724:	4807      	ldr	r0, [pc, #28]	@ (8002744 <_sbrk+0x44>)
 8002726:	6008      	str	r0, [r1, #0]
 8002728:	e7f3      	b.n	8002712 <_sbrk+0x12>
 800272a:	f000 fa05 	bl	8002b38 <__errno>
 800272e:	230c      	movs	r3, #12
 8002730:	6003      	str	r3, [r0, #0]
 8002732:	2001      	movs	r0, #1
 8002734:	4240      	negs	r0, r0
 8002736:	e7f3      	b.n	8002720 <_sbrk+0x20>
 8002738:	20003000 	.word	0x20003000
 800273c:	00000400 	.word	0x00000400
 8002740:	20000450 	.word	0x20000450
 8002744:	200005a0 	.word	0x200005a0

08002748 <SystemInit>:
 8002748:	4b02      	ldr	r3, [pc, #8]	@ (8002754 <SystemInit+0xc>)
 800274a:	2280      	movs	r2, #128	@ 0x80
 800274c:	0512      	lsls	r2, r2, #20
 800274e:	609a      	str	r2, [r3, #8]
 8002750:	4770      	bx	lr
 8002752:	46c0      	nop			@ (mov r8, r8)
 8002754:	e000ed00 	.word	0xe000ed00

08002758 <Reset_Handler>:
 8002758:	480d      	ldr	r0, [pc, #52]	@ (8002790 <LoopForever+0x2>)
 800275a:	4685      	mov	sp, r0
 800275c:	f7ff fff4 	bl	8002748 <SystemInit>
 8002760:	2100      	movs	r1, #0
 8002762:	e003      	b.n	800276c <LoopCopyDataInit>

08002764 <CopyDataInit>:
 8002764:	4b0b      	ldr	r3, [pc, #44]	@ (8002794 <LoopForever+0x6>)
 8002766:	585b      	ldr	r3, [r3, r1]
 8002768:	5043      	str	r3, [r0, r1]
 800276a:	3104      	adds	r1, #4

0800276c <LoopCopyDataInit>:
 800276c:	480a      	ldr	r0, [pc, #40]	@ (8002798 <LoopForever+0xa>)
 800276e:	4b0b      	ldr	r3, [pc, #44]	@ (800279c <LoopForever+0xe>)
 8002770:	1842      	adds	r2, r0, r1
 8002772:	429a      	cmp	r2, r3
 8002774:	d3f6      	bcc.n	8002764 <CopyDataInit>
 8002776:	4a0a      	ldr	r2, [pc, #40]	@ (80027a0 <LoopForever+0x12>)
 8002778:	e002      	b.n	8002780 <LoopFillZerobss>

0800277a <FillZerobss>:
 800277a:	2300      	movs	r3, #0
 800277c:	6013      	str	r3, [r2, #0]
 800277e:	3204      	adds	r2, #4

08002780 <LoopFillZerobss>:
 8002780:	4b08      	ldr	r3, [pc, #32]	@ (80027a4 <LoopForever+0x16>)
 8002782:	429a      	cmp	r2, r3
 8002784:	d3f9      	bcc.n	800277a <FillZerobss>
 8002786:	f000 f9dd 	bl	8002b44 <__libc_init_array>
 800278a:	f7fd ffbd 	bl	8000708 <main>

0800278e <LoopForever>:
 800278e:	e7fe      	b.n	800278e <LoopForever>
 8002790:	20003000 	.word	0x20003000
 8002794:	08003fec 	.word	0x08003fec
 8002798:	20000000 	.word	0x20000000
 800279c:	20000068 	.word	0x20000068
 80027a0:	20000068 	.word	0x20000068
 80027a4:	200005a0 	.word	0x200005a0

080027a8 <ADC1_IRQHandler>:
 80027a8:	e7fe      	b.n	80027a8 <ADC1_IRQHandler>
	...

080027ac <rand>:
 80027ac:	4b16      	ldr	r3, [pc, #88]	@ (8002808 <rand+0x5c>)
 80027ae:	b570      	push	{r4, r5, r6, lr}
 80027b0:	681d      	ldr	r5, [r3, #0]
 80027b2:	6b2c      	ldr	r4, [r5, #48]	@ 0x30
 80027b4:	2c00      	cmp	r4, #0
 80027b6:	d117      	bne.n	80027e8 <rand+0x3c>
 80027b8:	2018      	movs	r0, #24
 80027ba:	f000 fa53 	bl	8002c64 <malloc>
 80027be:	1e04      	subs	r4, r0, #0
 80027c0:	6328      	str	r0, [r5, #48]	@ 0x30
 80027c2:	d105      	bne.n	80027d0 <rand+0x24>
 80027c4:	0022      	movs	r2, r4
 80027c6:	2152      	movs	r1, #82	@ 0x52
 80027c8:	4b10      	ldr	r3, [pc, #64]	@ (800280c <rand+0x60>)
 80027ca:	4811      	ldr	r0, [pc, #68]	@ (8002810 <rand+0x64>)
 80027cc:	f000 f9e2 	bl	8002b94 <__assert_func>
 80027d0:	4b10      	ldr	r3, [pc, #64]	@ (8002814 <rand+0x68>)
 80027d2:	2201      	movs	r2, #1
 80027d4:	6003      	str	r3, [r0, #0]
 80027d6:	4b10      	ldr	r3, [pc, #64]	@ (8002818 <rand+0x6c>)
 80027d8:	6043      	str	r3, [r0, #4]
 80027da:	4b10      	ldr	r3, [pc, #64]	@ (800281c <rand+0x70>)
 80027dc:	6083      	str	r3, [r0, #8]
 80027de:	230b      	movs	r3, #11
 80027e0:	8183      	strh	r3, [r0, #12]
 80027e2:	2300      	movs	r3, #0
 80027e4:	6102      	str	r2, [r0, #16]
 80027e6:	6143      	str	r3, [r0, #20]
 80027e8:	6920      	ldr	r0, [r4, #16]
 80027ea:	6961      	ldr	r1, [r4, #20]
 80027ec:	4a0c      	ldr	r2, [pc, #48]	@ (8002820 <rand+0x74>)
 80027ee:	4b0d      	ldr	r3, [pc, #52]	@ (8002824 <rand+0x78>)
 80027f0:	f001 f9ca 	bl	8003b88 <__aeabi_lmul>
 80027f4:	2201      	movs	r2, #1
 80027f6:	2300      	movs	r3, #0
 80027f8:	1880      	adds	r0, r0, r2
 80027fa:	4159      	adcs	r1, r3
 80027fc:	6120      	str	r0, [r4, #16]
 80027fe:	6161      	str	r1, [r4, #20]
 8002800:	0048      	lsls	r0, r1, #1
 8002802:	0840      	lsrs	r0, r0, #1
 8002804:	bd70      	pop	{r4, r5, r6, pc}
 8002806:	46c0      	nop			@ (mov r8, r8)
 8002808:	20000018 	.word	0x20000018
 800280c:	08003ed4 	.word	0x08003ed4
 8002810:	08003eeb 	.word	0x08003eeb
 8002814:	abcd330e 	.word	0xabcd330e
 8002818:	e66d1234 	.word	0xe66d1234
 800281c:	0005deec 	.word	0x0005deec
 8002820:	4c957f2d 	.word	0x4c957f2d
 8002824:	5851f42d 	.word	0x5851f42d

08002828 <std>:
 8002828:	2300      	movs	r3, #0
 800282a:	b510      	push	{r4, lr}
 800282c:	0004      	movs	r4, r0
 800282e:	6003      	str	r3, [r0, #0]
 8002830:	6043      	str	r3, [r0, #4]
 8002832:	6083      	str	r3, [r0, #8]
 8002834:	8181      	strh	r1, [r0, #12]
 8002836:	6643      	str	r3, [r0, #100]	@ 0x64
 8002838:	81c2      	strh	r2, [r0, #14]
 800283a:	6103      	str	r3, [r0, #16]
 800283c:	6143      	str	r3, [r0, #20]
 800283e:	6183      	str	r3, [r0, #24]
 8002840:	0019      	movs	r1, r3
 8002842:	2208      	movs	r2, #8
 8002844:	305c      	adds	r0, #92	@ 0x5c
 8002846:	f000 f921 	bl	8002a8c <memset>
 800284a:	4b0b      	ldr	r3, [pc, #44]	@ (8002878 <std+0x50>)
 800284c:	6224      	str	r4, [r4, #32]
 800284e:	6263      	str	r3, [r4, #36]	@ 0x24
 8002850:	4b0a      	ldr	r3, [pc, #40]	@ (800287c <std+0x54>)
 8002852:	62a3      	str	r3, [r4, #40]	@ 0x28
 8002854:	4b0a      	ldr	r3, [pc, #40]	@ (8002880 <std+0x58>)
 8002856:	62e3      	str	r3, [r4, #44]	@ 0x2c
 8002858:	4b0a      	ldr	r3, [pc, #40]	@ (8002884 <std+0x5c>)
 800285a:	6323      	str	r3, [r4, #48]	@ 0x30
 800285c:	4b0a      	ldr	r3, [pc, #40]	@ (8002888 <std+0x60>)
 800285e:	429c      	cmp	r4, r3
 8002860:	d005      	beq.n	800286e <std+0x46>
 8002862:	4b0a      	ldr	r3, [pc, #40]	@ (800288c <std+0x64>)
 8002864:	429c      	cmp	r4, r3
 8002866:	d002      	beq.n	800286e <std+0x46>
 8002868:	4b09      	ldr	r3, [pc, #36]	@ (8002890 <std+0x68>)
 800286a:	429c      	cmp	r4, r3
 800286c:	d103      	bne.n	8002876 <std+0x4e>
 800286e:	0020      	movs	r0, r4
 8002870:	3058      	adds	r0, #88	@ 0x58
 8002872:	f000 f98b 	bl	8002b8c <__retarget_lock_init_recursive>
 8002876:	bd10      	pop	{r4, pc}
 8002878:	080029f5 	.word	0x080029f5
 800287c:	08002a1d 	.word	0x08002a1d
 8002880:	08002a55 	.word	0x08002a55
 8002884:	08002a81 	.word	0x08002a81
 8002888:	20000454 	.word	0x20000454
 800288c:	200004bc 	.word	0x200004bc
 8002890:	20000524 	.word	0x20000524

08002894 <stdio_exit_handler>:
 8002894:	b510      	push	{r4, lr}
 8002896:	4a03      	ldr	r2, [pc, #12]	@ (80028a4 <stdio_exit_handler+0x10>)
 8002898:	4903      	ldr	r1, [pc, #12]	@ (80028a8 <stdio_exit_handler+0x14>)
 800289a:	4804      	ldr	r0, [pc, #16]	@ (80028ac <stdio_exit_handler+0x18>)
 800289c:	f000 f86c 	bl	8002978 <_fwalk_sglue>
 80028a0:	bd10      	pop	{r4, pc}
 80028a2:	46c0      	nop			@ (mov r8, r8)
 80028a4:	2000000c 	.word	0x2000000c
 80028a8:	080034b9 	.word	0x080034b9
 80028ac:	2000001c 	.word	0x2000001c

080028b0 <cleanup_stdio>:
 80028b0:	6841      	ldr	r1, [r0, #4]
 80028b2:	4b0b      	ldr	r3, [pc, #44]	@ (80028e0 <cleanup_stdio+0x30>)
 80028b4:	b510      	push	{r4, lr}
 80028b6:	0004      	movs	r4, r0
 80028b8:	4299      	cmp	r1, r3
 80028ba:	d001      	beq.n	80028c0 <cleanup_stdio+0x10>
 80028bc:	f000 fdfc 	bl	80034b8 <_fflush_r>
 80028c0:	68a1      	ldr	r1, [r4, #8]
 80028c2:	4b08      	ldr	r3, [pc, #32]	@ (80028e4 <cleanup_stdio+0x34>)
 80028c4:	4299      	cmp	r1, r3
 80028c6:	d002      	beq.n	80028ce <cleanup_stdio+0x1e>
 80028c8:	0020      	movs	r0, r4
 80028ca:	f000 fdf5 	bl	80034b8 <_fflush_r>
 80028ce:	68e1      	ldr	r1, [r4, #12]
 80028d0:	4b05      	ldr	r3, [pc, #20]	@ (80028e8 <cleanup_stdio+0x38>)
 80028d2:	4299      	cmp	r1, r3
 80028d4:	d002      	beq.n	80028dc <cleanup_stdio+0x2c>
 80028d6:	0020      	movs	r0, r4
 80028d8:	f000 fdee 	bl	80034b8 <_fflush_r>
 80028dc:	bd10      	pop	{r4, pc}
 80028de:	46c0      	nop			@ (mov r8, r8)
 80028e0:	20000454 	.word	0x20000454
 80028e4:	200004bc 	.word	0x200004bc
 80028e8:	20000524 	.word	0x20000524

080028ec <global_stdio_init.part.0>:
 80028ec:	b510      	push	{r4, lr}
 80028ee:	4b09      	ldr	r3, [pc, #36]	@ (8002914 <global_stdio_init.part.0+0x28>)
 80028f0:	4a09      	ldr	r2, [pc, #36]	@ (8002918 <global_stdio_init.part.0+0x2c>)
 80028f2:	2104      	movs	r1, #4
 80028f4:	601a      	str	r2, [r3, #0]
 80028f6:	4809      	ldr	r0, [pc, #36]	@ (800291c <global_stdio_init.part.0+0x30>)
 80028f8:	2200      	movs	r2, #0
 80028fa:	f7ff ff95 	bl	8002828 <std>
 80028fe:	2201      	movs	r2, #1
 8002900:	2109      	movs	r1, #9
 8002902:	4807      	ldr	r0, [pc, #28]	@ (8002920 <global_stdio_init.part.0+0x34>)
 8002904:	f7ff ff90 	bl	8002828 <std>
 8002908:	2202      	movs	r2, #2
 800290a:	2112      	movs	r1, #18
 800290c:	4805      	ldr	r0, [pc, #20]	@ (8002924 <global_stdio_init.part.0+0x38>)
 800290e:	f7ff ff8b 	bl	8002828 <std>
 8002912:	bd10      	pop	{r4, pc}
 8002914:	2000058c 	.word	0x2000058c
 8002918:	08002895 	.word	0x08002895
 800291c:	20000454 	.word	0x20000454
 8002920:	200004bc 	.word	0x200004bc
 8002924:	20000524 	.word	0x20000524

08002928 <__sfp_lock_acquire>:
 8002928:	b510      	push	{r4, lr}
 800292a:	4802      	ldr	r0, [pc, #8]	@ (8002934 <__sfp_lock_acquire+0xc>)
 800292c:	f000 f92f 	bl	8002b8e <__retarget_lock_acquire_recursive>
 8002930:	bd10      	pop	{r4, pc}
 8002932:	46c0      	nop			@ (mov r8, r8)
 8002934:	20000595 	.word	0x20000595

08002938 <__sfp_lock_release>:
 8002938:	b510      	push	{r4, lr}
 800293a:	4802      	ldr	r0, [pc, #8]	@ (8002944 <__sfp_lock_release+0xc>)
 800293c:	f000 f928 	bl	8002b90 <__retarget_lock_release_recursive>
 8002940:	bd10      	pop	{r4, pc}
 8002942:	46c0      	nop			@ (mov r8, r8)
 8002944:	20000595 	.word	0x20000595

08002948 <__sinit>:
 8002948:	b510      	push	{r4, lr}
 800294a:	0004      	movs	r4, r0
 800294c:	f7ff ffec 	bl	8002928 <__sfp_lock_acquire>
 8002950:	6a23      	ldr	r3, [r4, #32]
 8002952:	2b00      	cmp	r3, #0
 8002954:	d002      	beq.n	800295c <__sinit+0x14>
 8002956:	f7ff ffef 	bl	8002938 <__sfp_lock_release>
 800295a:	bd10      	pop	{r4, pc}
 800295c:	4b04      	ldr	r3, [pc, #16]	@ (8002970 <__sinit+0x28>)
 800295e:	6223      	str	r3, [r4, #32]
 8002960:	4b04      	ldr	r3, [pc, #16]	@ (8002974 <__sinit+0x2c>)
 8002962:	681b      	ldr	r3, [r3, #0]
 8002964:	2b00      	cmp	r3, #0
 8002966:	d1f6      	bne.n	8002956 <__sinit+0xe>
 8002968:	f7ff ffc0 	bl	80028ec <global_stdio_init.part.0>
 800296c:	e7f3      	b.n	8002956 <__sinit+0xe>
 800296e:	46c0      	nop			@ (mov r8, r8)
 8002970:	080028b1 	.word	0x080028b1
 8002974:	2000058c 	.word	0x2000058c

08002978 <_fwalk_sglue>:
 8002978:	b5f7      	push	{r0, r1, r2, r4, r5, r6, r7, lr}
 800297a:	0014      	movs	r4, r2
 800297c:	2600      	movs	r6, #0
 800297e:	9000      	str	r0, [sp, #0]
 8002980:	9101      	str	r1, [sp, #4]
 8002982:	68a5      	ldr	r5, [r4, #8]
 8002984:	6867      	ldr	r7, [r4, #4]
 8002986:	3f01      	subs	r7, #1
 8002988:	d504      	bpl.n	8002994 <_fwalk_sglue+0x1c>
 800298a:	6824      	ldr	r4, [r4, #0]
 800298c:	2c00      	cmp	r4, #0
 800298e:	d1f8      	bne.n	8002982 <_fwalk_sglue+0xa>
 8002990:	0030      	movs	r0, r6
 8002992:	bdfe      	pop	{r1, r2, r3, r4, r5, r6, r7, pc}
 8002994:	89ab      	ldrh	r3, [r5, #12]
 8002996:	2b01      	cmp	r3, #1
 8002998:	d908      	bls.n	80029ac <_fwalk_sglue+0x34>
 800299a:	220e      	movs	r2, #14
 800299c:	5eab      	ldrsh	r3, [r5, r2]
 800299e:	3301      	adds	r3, #1
 80029a0:	d004      	beq.n	80029ac <_fwalk_sglue+0x34>
 80029a2:	0029      	movs	r1, r5
 80029a4:	9800      	ldr	r0, [sp, #0]
 80029a6:	9b01      	ldr	r3, [sp, #4]
 80029a8:	4798      	blx	r3
 80029aa:	4306      	orrs	r6, r0
 80029ac:	3568      	adds	r5, #104	@ 0x68
 80029ae:	e7ea      	b.n	8002986 <_fwalk_sglue+0xe>

080029b0 <siprintf>:
 80029b0:	b40e      	push	{r1, r2, r3}
 80029b2:	b510      	push	{r4, lr}
 80029b4:	2400      	movs	r4, #0
 80029b6:	b09d      	sub	sp, #116	@ 0x74
 80029b8:	9002      	str	r0, [sp, #8]
 80029ba:	9006      	str	r0, [sp, #24]
 80029bc:	480a      	ldr	r0, [pc, #40]	@ (80029e8 <siprintf+0x38>)
 80029be:	ab1f      	add	r3, sp, #124	@ 0x7c
 80029c0:	9007      	str	r0, [sp, #28]
 80029c2:	9004      	str	r0, [sp, #16]
 80029c4:	4809      	ldr	r0, [pc, #36]	@ (80029ec <siprintf+0x3c>)
 80029c6:	cb04      	ldmia	r3!, {r2}
 80029c8:	9005      	str	r0, [sp, #20]
 80029ca:	4809      	ldr	r0, [pc, #36]	@ (80029f0 <siprintf+0x40>)
 80029cc:	a902      	add	r1, sp, #8
 80029ce:	6800      	ldr	r0, [r0, #0]
 80029d0:	9301      	str	r3, [sp, #4]
 80029d2:	664c      	str	r4, [r1, #100]	@ 0x64
 80029d4:	f000 fa66 	bl	8002ea4 <_svfiprintf_r>
 80029d8:	9b02      	ldr	r3, [sp, #8]
 80029da:	701c      	strb	r4, [r3, #0]
 80029dc:	b01d      	add	sp, #116	@ 0x74
 80029de:	bc10      	pop	{r4}
 80029e0:	bc08      	pop	{r3}
 80029e2:	b003      	add	sp, #12
 80029e4:	4718      	bx	r3
 80029e6:	46c0      	nop			@ (mov r8, r8)
 80029e8:	7fffffff 	.word	0x7fffffff
 80029ec:	ffff0208 	.word	0xffff0208
 80029f0:	20000018 	.word	0x20000018

080029f4 <__sread>:
 80029f4:	b570      	push	{r4, r5, r6, lr}
 80029f6:	000c      	movs	r4, r1
 80029f8:	250e      	movs	r5, #14
 80029fa:	5f49      	ldrsh	r1, [r1, r5]
 80029fc:	f000 f874 	bl	8002ae8 <_read_r>
 8002a00:	2800      	cmp	r0, #0
 8002a02:	db03      	blt.n	8002a0c <__sread+0x18>
 8002a04:	6d63      	ldr	r3, [r4, #84]	@ 0x54
 8002a06:	181b      	adds	r3, r3, r0
 8002a08:	6563      	str	r3, [r4, #84]	@ 0x54
 8002a0a:	bd70      	pop	{r4, r5, r6, pc}
 8002a0c:	89a3      	ldrh	r3, [r4, #12]
 8002a0e:	4a02      	ldr	r2, [pc, #8]	@ (8002a18 <__sread+0x24>)
 8002a10:	4013      	ands	r3, r2
 8002a12:	81a3      	strh	r3, [r4, #12]
 8002a14:	e7f9      	b.n	8002a0a <__sread+0x16>
 8002a16:	46c0      	nop			@ (mov r8, r8)
 8002a18:	ffffefff 	.word	0xffffefff

08002a1c <__swrite>:
 8002a1c:	b5f8      	push	{r3, r4, r5, r6, r7, lr}
 8002a1e:	001f      	movs	r7, r3
 8002a20:	898b      	ldrh	r3, [r1, #12]
 8002a22:	0005      	movs	r5, r0
 8002a24:	000c      	movs	r4, r1
 8002a26:	0016      	movs	r6, r2
 8002a28:	05db      	lsls	r3, r3, #23
 8002a2a:	d505      	bpl.n	8002a38 <__swrite+0x1c>
 8002a2c:	230e      	movs	r3, #14
 8002a2e:	5ec9      	ldrsh	r1, [r1, r3]
 8002a30:	2200      	movs	r2, #0
 8002a32:	2302      	movs	r3, #2
 8002a34:	f000 f844 	bl	8002ac0 <_lseek_r>
 8002a38:	89a3      	ldrh	r3, [r4, #12]
 8002a3a:	4a05      	ldr	r2, [pc, #20]	@ (8002a50 <__swrite+0x34>)
 8002a3c:	0028      	movs	r0, r5
 8002a3e:	4013      	ands	r3, r2
 8002a40:	81a3      	strh	r3, [r4, #12]
 8002a42:	0032      	movs	r2, r6
 8002a44:	230e      	movs	r3, #14
 8002a46:	5ee1      	ldrsh	r1, [r4, r3]
 8002a48:	003b      	movs	r3, r7
 8002a4a:	f000 f861 	bl	8002b10 <_write_r>
 8002a4e:	bdf8      	pop	{r3, r4, r5, r6, r7, pc}
 8002a50:	ffffefff 	.word	0xffffefff

08002a54 <__sseek>:
 8002a54:	b570      	push	{r4, r5, r6, lr}
 8002a56:	000c      	movs	r4, r1
 8002a58:	250e      	movs	r5, #14
 8002a5a:	5f49      	ldrsh	r1, [r1, r5]
 8002a5c:	f000 f830 	bl	8002ac0 <_lseek_r>
 8002a60:	220c      	movs	r2, #12
 8002a62:	5ea3      	ldrsh	r3, [r4, r2]
 8002a64:	1c42      	adds	r2, r0, #1
 8002a66:	d103      	bne.n	8002a70 <__sseek+0x1c>
 8002a68:	4a04      	ldr	r2, [pc, #16]	@ (8002a7c <__sseek+0x28>)
 8002a6a:	4013      	ands	r3, r2
 8002a6c:	81a3      	strh	r3, [r4, #12]
 8002a6e:	bd70      	pop	{r4, r5, r6, pc}
 8002a70:	2280      	movs	r2, #128	@ 0x80
 8002a72:	0152      	lsls	r2, r2, #5
 8002a74:	4313      	orrs	r3, r2
 8002a76:	81a3      	strh	r3, [r4, #12]
 8002a78:	6560      	str	r0, [r4, #84]	@ 0x54
 8002a7a:	e7f8      	b.n	8002a6e <__sseek+0x1a>
 8002a7c:	ffffefff 	.word	0xffffefff

08002a80 <__sclose>:
 8002a80:	b510      	push	{r4, lr}
 8002a82:	230e      	movs	r3, #14
 8002a84:	5ec9      	ldrsh	r1, [r1, r3]
 8002a86:	f000 f809 	bl	8002a9c <_close_r>
 8002a8a:	bd10      	pop	{r4, pc}

08002a8c <memset>:
 8002a8c:	0003      	movs	r3, r0
 8002a8e:	1882      	adds	r2, r0, r2
 8002a90:	4293      	cmp	r3, r2
 8002a92:	d100      	bne.n	8002a96 <memset+0xa>
 8002a94:	4770      	bx	lr
 8002a96:	7019      	strb	r1, [r3, #0]
 8002a98:	3301      	adds	r3, #1
 8002a9a:	e7f9      	b.n	8002a90 <memset+0x4>

08002a9c <_close_r>:
 8002a9c:	2300      	movs	r3, #0
 8002a9e:	b570      	push	{r4, r5, r6, lr}
 8002aa0:	4d06      	ldr	r5, [pc, #24]	@ (8002abc <_close_r+0x20>)
 8002aa2:	0004      	movs	r4, r0
 8002aa4:	0008      	movs	r0, r1
 8002aa6:	602b      	str	r3, [r5, #0]
 8002aa8:	f7ff fe1e 	bl	80026e8 <_close>
 8002aac:	1c43      	adds	r3, r0, #1
 8002aae:	d103      	bne.n	8002ab8 <_close_r+0x1c>
 8002ab0:	682b      	ldr	r3, [r5, #0]
 8002ab2:	2b00      	cmp	r3, #0
 8002ab4:	d000      	beq.n	8002ab8 <_close_r+0x1c>
 8002ab6:	6023      	str	r3, [r4, #0]
 8002ab8:	bd70      	pop	{r4, r5, r6, pc}
 8002aba:	46c0      	nop			@ (mov r8, r8)
 8002abc:	20000590 	.word	0x20000590

08002ac0 <_lseek_r>:
 8002ac0:	b570      	push	{r4, r5, r6, lr}
 8002ac2:	0004      	movs	r4, r0
 8002ac4:	0008      	movs	r0, r1
 8002ac6:	0011      	movs	r1, r2
 8002ac8:	001a      	movs	r2, r3
 8002aca:	2300      	movs	r3, #0
 8002acc:	4d05      	ldr	r5, [pc, #20]	@ (8002ae4 <_lseek_r+0x24>)
 8002ace:	602b      	str	r3, [r5, #0]
 8002ad0:	f7ff fe14 	bl	80026fc <_lseek>
 8002ad4:	1c43      	adds	r3, r0, #1
 8002ad6:	d103      	bne.n	8002ae0 <_lseek_r+0x20>
 8002ad8:	682b      	ldr	r3, [r5, #0]
 8002ada:	2b00      	cmp	r3, #0
 8002adc:	d000      	beq.n	8002ae0 <_lseek_r+0x20>
 8002ade:	6023      	str	r3, [r4, #0]
 8002ae0:	bd70      	pop	{r4, r5, r6, pc}
 8002ae2:	46c0      	nop			@ (mov r8, r8)
 8002ae4:	20000590 	.word	0x20000590

08002ae8 <_read_r>:
 8002ae8:	b570      	push	{r4, r5, r6, lr}
 8002aea:	0004      	movs	r4, r0
 8002aec:	0008      	movs	r0, r1
 8002aee:	0011      	movs	r1, r2
 8002af0:	001a      	movs	r2, r3
 8002af2:	2300      	movs	r3, #0
 8002af4:	4d05      	ldr	r5, [pc, #20]	@ (8002b0c <_read_r+0x24>)
 8002af6:	602b      	str	r3, [r5, #0]
 8002af8:	f7ff fdda 	bl	80026b0 <_read>
 8002afc:	1c43      	adds	r3, r0, #1
 8002afe:	d103      	bne.n	8002b08 <_read_r+0x20>
 8002b00:	682b      	ldr	r3, [r5, #0]
 8002b02:	2b00      	cmp	r3, #0
 8002b04:	d000      	beq.n	8002b08 <_read_r+0x20>
 8002b06:	6023      	str	r3, [r4, #0]
 8002b08:	bd70      	pop	{r4, r5, r6, pc}
 8002b0a:	46c0      	nop			@ (mov r8, r8)
 8002b0c:	20000590 	.word	0x20000590

08002b10 <_write_r>:
 8002b10:	b570      	push	{r4, r5, r6, lr}
 8002b12:	0004      	movs	r4, r0
 8002b14:	0008      	movs	r0, r1
 8002b16:	0011      	movs	r1, r2
 8002b18:	001a      	movs	r2, r3
 8002b1a:	2300      	movs	r3, #0
 8002b1c:	4d05      	ldr	r5, [pc, #20]	@ (8002b34 <_write_r+0x24>)
 8002b1e:	602b      	str	r3, [r5, #0]
 8002b20:	f7ff fdd4 	bl	80026cc <_write>
 8002b24:	1c43      	adds	r3, r0, #1
 8002b26:	d103      	bne.n	8002b30 <_write_r+0x20>
 8002b28:	682b      	ldr	r3, [r5, #0]
 8002b2a:	2b00      	cmp	r3, #0
 8002b2c:	d000      	beq.n	8002b30 <_write_r+0x20>
 8002b2e:	6023      	str	r3, [r4, #0]
 8002b30:	bd70      	pop	{r4, r5, r6, pc}
 8002b32:	46c0      	nop			@ (mov r8, r8)
 8002b34:	20000590 	.word	0x20000590

08002b38 <__errno>:
 8002b38:	4b01      	ldr	r3, [pc, #4]	@ (8002b40 <__errno+0x8>)
 8002b3a:	6818      	ldr	r0, [r3, #0]
 8002b3c:	4770      	bx	lr
 8002b3e:	46c0      	nop			@ (mov r8, r8)
 8002b40:	20000018 	.word	0x20000018

08002b44 <__libc_init_array>:
 8002b44:	b570      	push	{r4, r5, r6, lr}
 8002b46:	2600      	movs	r6, #0
 8002b48:	4c0c      	ldr	r4, [pc, #48]	@ (8002b7c <__libc_init_array+0x38>)
 8002b4a:	4d0d      	ldr	r5, [pc, #52]	@ (8002b80 <__libc_init_array+0x3c>)
 8002b4c:	1b64      	subs	r4, r4, r5
 8002b4e:	10a4      	asrs	r4, r4, #2
 8002b50:	42a6      	cmp	r6, r4
 8002b52:	d109      	bne.n	8002b68 <__libc_init_array+0x24>
 8002b54:	2600      	movs	r6, #0
 8002b56:	f001 f911 	bl	8003d7c <_init>
 8002b5a:	4c0a      	ldr	r4, [pc, #40]	@ (8002b84 <__libc_init_array+0x40>)
 8002b5c:	4d0a      	ldr	r5, [pc, #40]	@ (8002b88 <__libc_init_array+0x44>)
 8002b5e:	1b64      	subs	r4, r4, r5
 8002b60:	10a4      	asrs	r4, r4, #2
 8002b62:	42a6      	cmp	r6, r4
 8002b64:	d105      	bne.n	8002b72 <__libc_init_array+0x2e>
 8002b66:	bd70      	pop	{r4, r5, r6, pc}
 8002b68:	00b3      	lsls	r3, r6, #2
 8002b6a:	58eb      	ldr	r3, [r5, r3]
 8002b6c:	4798      	blx	r3
 8002b6e:	3601      	adds	r6, #1
 8002b70:	e7ee      	b.n	8002b50 <__libc_init_array+0xc>
 8002b72:	00b3      	lsls	r3, r6, #2
 8002b74:	58eb      	ldr	r3, [r5, r3]
 8002b76:	4798      	blx	r3
 8002b78:	3601      	adds	r6, #1
 8002b7a:	e7f2      	b.n	8002b62 <__libc_init_array+0x1e>
 8002b7c:	08003fe4 	.word	0x08003fe4
 8002b80:	08003fe4 	.word	0x08003fe4
 8002b84:	08003fe8 	.word	0x08003fe8
 8002b88:	08003fe4 	.word	0x08003fe4

08002b8c <__retarget_lock_init_recursive>:
 8002b8c:	4770      	bx	lr

08002b8e <__retarget_lock_acquire_recursive>:
 8002b8e:	4770      	bx	lr

08002b90 <__retarget_lock_release_recursive>:
 8002b90:	4770      	bx	lr
	...

08002b94 <__assert_func>:
 8002b94:	b57f      	push	{r0, r1, r2, r3, r4, r5, r6, lr}
 8002b96:	0014      	movs	r4, r2
 8002b98:	001a      	movs	r2, r3
 8002b9a:	4b09      	ldr	r3, [pc, #36]	@ (8002bc0 <__assert_func+0x2c>)
 8002b9c:	0005      	movs	r5, r0
 8002b9e:	681b      	ldr	r3, [r3, #0]
 8002ba0:	000e      	movs	r6, r1
 8002ba2:	68d8      	ldr	r0, [r3, #12]
 8002ba4:	4b07      	ldr	r3, [pc, #28]	@ (8002bc4 <__assert_func+0x30>)
 8002ba6:	2c00      	cmp	r4, #0
 8002ba8:	d101      	bne.n	8002bae <__assert_func+0x1a>
 8002baa:	4b07      	ldr	r3, [pc, #28]	@ (8002bc8 <__assert_func+0x34>)
 8002bac:	001c      	movs	r4, r3
 8002bae:	4907      	ldr	r1, [pc, #28]	@ (8002bcc <__assert_func+0x38>)
 8002bb0:	9301      	str	r3, [sp, #4]
 8002bb2:	9402      	str	r4, [sp, #8]
 8002bb4:	002b      	movs	r3, r5
 8002bb6:	9600      	str	r6, [sp, #0]
 8002bb8:	f000 fcaa 	bl	8003510 <fiprintf>
 8002bbc:	f000 fcf0 	bl	80035a0 <abort>
 8002bc0:	20000018 	.word	0x20000018
 8002bc4:	08003f6d 	.word	0x08003f6d
 8002bc8:	08003fa8 	.word	0x08003fa8
 8002bcc:	08003f7a 	.word	0x08003f7a

08002bd0 <_free_r>:
 8002bd0:	b570      	push	{r4, r5, r6, lr}
 8002bd2:	0005      	movs	r5, r0
 8002bd4:	1e0c      	subs	r4, r1, #0
 8002bd6:	d010      	beq.n	8002bfa <_free_r+0x2a>
 8002bd8:	3c04      	subs	r4, #4
 8002bda:	6823      	ldr	r3, [r4, #0]
 8002bdc:	2b00      	cmp	r3, #0
 8002bde:	da00      	bge.n	8002be2 <_free_r+0x12>
 8002be0:	18e4      	adds	r4, r4, r3
 8002be2:	0028      	movs	r0, r5
 8002be4:	f000 f8ea 	bl	8002dbc <__malloc_lock>
 8002be8:	4a1d      	ldr	r2, [pc, #116]	@ (8002c60 <_free_r+0x90>)
 8002bea:	6813      	ldr	r3, [r2, #0]
 8002bec:	2b00      	cmp	r3, #0
 8002bee:	d105      	bne.n	8002bfc <_free_r+0x2c>
 8002bf0:	6063      	str	r3, [r4, #4]
 8002bf2:	6014      	str	r4, [r2, #0]
 8002bf4:	0028      	movs	r0, r5
 8002bf6:	f000 f8e9 	bl	8002dcc <__malloc_unlock>
 8002bfa:	bd70      	pop	{r4, r5, r6, pc}
 8002bfc:	42a3      	cmp	r3, r4
 8002bfe:	d908      	bls.n	8002c12 <_free_r+0x42>
 8002c00:	6820      	ldr	r0, [r4, #0]
 8002c02:	1821      	adds	r1, r4, r0
 8002c04:	428b      	cmp	r3, r1
 8002c06:	d1f3      	bne.n	8002bf0 <_free_r+0x20>
 8002c08:	6819      	ldr	r1, [r3, #0]
 8002c0a:	685b      	ldr	r3, [r3, #4]
 8002c0c:	1809      	adds	r1, r1, r0
 8002c0e:	6021      	str	r1, [r4, #0]
 8002c10:	e7ee      	b.n	8002bf0 <_free_r+0x20>
 8002c12:	001a      	movs	r2, r3
 8002c14:	685b      	ldr	r3, [r3, #4]
 8002c16:	2b00      	cmp	r3, #0
 8002c18:	d001      	beq.n	8002c1e <_free_r+0x4e>
 8002c1a:	42a3      	cmp	r3, r4
 8002c1c:	d9f9      	bls.n	8002c12 <_free_r+0x42>
 8002c1e:	6811      	ldr	r1, [r2, #0]
 8002c20:	1850      	adds	r0, r2, r1
 8002c22:	42a0      	cmp	r0, r4
 8002c24:	d10b      	bne.n	8002c3e <_free_r+0x6e>
 8002c26:	6820      	ldr	r0, [r4, #0]
 8002c28:	1809      	adds	r1, r1, r0
 8002c2a:	1850      	adds	r0, r2, r1
 8002c2c:	6011      	str	r1, [r2, #0]
 8002c2e:	4283      	cmp	r3, r0
 8002c30:	d1e0      	bne.n	8002bf4 <_free_r+0x24>
 8002c32:	6818      	ldr	r0, [r3, #0]
 8002c34:	685b      	ldr	r3, [r3, #4]
 8002c36:	1841      	adds	r1, r0, r1
 8002c38:	6011      	str	r1, [r2, #0]
 8002c3a:	6053      	str	r3, [r2, #4]
 8002c3c:	e7da      	b.n	8002bf4 <_free_r+0x24>
 8002c3e:	42a0      	cmp	r0, r4
 8002c40:	d902      	bls.n	8002c48 <_free_r+0x78>
 8002c42:	230c      	movs	r3, #12
 8002c44:	602b      	str	r3, [r5, #0]
 8002c46:	e7d5      	b.n	8002bf4 <_free_r+0x24>
 8002c48:	6820      	ldr	r0, [r4, #0]
 8002c4a:	1821      	adds	r1, r4, r0
 8002c4c:	428b      	cmp	r3, r1
 8002c4e:	d103      	bne.n	8002c58 <_free_r+0x88>
 8002c50:	6819      	ldr	r1, [r3, #0]
 8002c52:	685b      	ldr	r3, [r3, #4]
 8002c54:	1809      	adds	r1, r1, r0
 8002c56:	6021      	str	r1, [r4, #0]
 8002c58:	6063      	str	r3, [r4, #4]
 8002c5a:	6054      	str	r4, [r2, #4]
 8002c5c:	e7ca      	b.n	8002bf4 <_free_r+0x24>
 8002c5e:	46c0      	nop			@ (mov r8, r8)
 8002c60:	2000059c 	.word	0x2000059c

08002c64 <malloc>:
 8002c64:	b510      	push	{r4, lr}
 8002c66:	4b03      	ldr	r3, [pc, #12]	@ (8002c74 <malloc+0x10>)
 8002c68:	0001      	movs	r1, r0
 8002c6a:	6818      	ldr	r0, [r3, #0]
 8002c6c:	f000 f826 	bl	8002cbc <_malloc_r>
 8002c70:	bd10      	pop	{r4, pc}
 8002c72:	46c0      	nop			@ (mov r8, r8)
 8002c74:	20000018 	.word	0x20000018

08002c78 <sbrk_aligned>:
 8002c78:	b570      	push	{r4, r5, r6, lr}
 8002c7a:	4e0f      	ldr	r6, [pc, #60]	@ (8002cb8 <sbrk_aligned+0x40>)
 8002c7c:	000d      	movs	r5, r1
 8002c7e:	6831      	ldr	r1, [r6, #0]
 8002c80:	0004      	movs	r4, r0
 8002c82:	2900      	cmp	r1, #0
 8002c84:	d102      	bne.n	8002c8c <sbrk_aligned+0x14>
 8002c86:	f000 fc65 	bl	8003554 <_sbrk_r>
 8002c8a:	6030      	str	r0, [r6, #0]
 8002c8c:	0029      	movs	r1, r5
 8002c8e:	0020      	movs	r0, r4
 8002c90:	f000 fc60 	bl	8003554 <_sbrk_r>
 8002c94:	1c43      	adds	r3, r0, #1
 8002c96:	d103      	bne.n	8002ca0 <sbrk_aligned+0x28>
 8002c98:	2501      	movs	r5, #1
 8002c9a:	426d      	negs	r5, r5
 8002c9c:	0028      	movs	r0, r5
 8002c9e:	bd70      	pop	{r4, r5, r6, pc}
 8002ca0:	2303      	movs	r3, #3
 8002ca2:	1cc5      	adds	r5, r0, #3
 8002ca4:	439d      	bics	r5, r3
 8002ca6:	42a8      	cmp	r0, r5
 8002ca8:	d0f8      	beq.n	8002c9c <sbrk_aligned+0x24>
 8002caa:	1a29      	subs	r1, r5, r0
 8002cac:	0020      	movs	r0, r4
 8002cae:	f000 fc51 	bl	8003554 <_sbrk_r>
 8002cb2:	3001      	adds	r0, #1
 8002cb4:	d1f2      	bne.n	8002c9c <sbrk_aligned+0x24>
 8002cb6:	e7ef      	b.n	8002c98 <sbrk_aligned+0x20>
 8002cb8:	20000598 	.word	0x20000598

08002cbc <_malloc_r>:
 8002cbc:	b5f7      	push	{r0, r1, r2, r4, r5, r6, r7, lr}
 8002cbe:	2203      	movs	r2, #3
 8002cc0:	1ccb      	adds	r3, r1, #3
 8002cc2:	4393      	bics	r3, r2
 8002cc4:	3308      	adds	r3, #8
 8002cc6:	0005      	movs	r5, r0
 8002cc8:	001f      	movs	r7, r3
 8002cca:	2b0c      	cmp	r3, #12
 8002ccc:	d234      	bcs.n	8002d38 <_malloc_r+0x7c>
 8002cce:	270c      	movs	r7, #12
 8002cd0:	42b9      	cmp	r1, r7
 8002cd2:	d833      	bhi.n	8002d3c <_malloc_r+0x80>
 8002cd4:	0028      	movs	r0, r5
 8002cd6:	f000 f871 	bl	8002dbc <__malloc_lock>
 8002cda:	4e37      	ldr	r6, [pc, #220]	@ (8002db8 <_malloc_r+0xfc>)
 8002cdc:	6833      	ldr	r3, [r6, #0]
 8002cde:	001c      	movs	r4, r3
 8002ce0:	2c00      	cmp	r4, #0
 8002ce2:	d12f      	bne.n	8002d44 <_malloc_r+0x88>
 8002ce4:	0039      	movs	r1, r7
 8002ce6:	0028      	movs	r0, r5
 8002ce8:	f7ff ffc6 	bl	8002c78 <sbrk_aligned>
 8002cec:	0004      	movs	r4, r0
 8002cee:	1c43      	adds	r3, r0, #1
 8002cf0:	d15f      	bne.n	8002db2 <_malloc_r+0xf6>
 8002cf2:	6834      	ldr	r4, [r6, #0]
 8002cf4:	9400      	str	r4, [sp, #0]
 8002cf6:	9b00      	ldr	r3, [sp, #0]
 8002cf8:	2b00      	cmp	r3, #0
 8002cfa:	d14a      	bne.n	8002d92 <_malloc_r+0xd6>
 8002cfc:	2c00      	cmp	r4, #0
 8002cfe:	d052      	beq.n	8002da6 <_malloc_r+0xea>
 8002d00:	6823      	ldr	r3, [r4, #0]
 8002d02:	0028      	movs	r0, r5
 8002d04:	18e3      	adds	r3, r4, r3
 8002d06:	9900      	ldr	r1, [sp, #0]
 8002d08:	9301      	str	r3, [sp, #4]
 8002d0a:	f000 fc23 	bl	8003554 <_sbrk_r>
 8002d0e:	9b01      	ldr	r3, [sp, #4]
 8002d10:	4283      	cmp	r3, r0
 8002d12:	d148      	bne.n	8002da6 <_malloc_r+0xea>
 8002d14:	6823      	ldr	r3, [r4, #0]
 8002d16:	0028      	movs	r0, r5
 8002d18:	1aff      	subs	r7, r7, r3
 8002d1a:	0039      	movs	r1, r7
 8002d1c:	f7ff ffac 	bl	8002c78 <sbrk_aligned>
 8002d20:	3001      	adds	r0, #1
 8002d22:	d040      	beq.n	8002da6 <_malloc_r+0xea>
 8002d24:	6823      	ldr	r3, [r4, #0]
 8002d26:	19db      	adds	r3, r3, r7
 8002d28:	6023      	str	r3, [r4, #0]
 8002d2a:	6833      	ldr	r3, [r6, #0]
 8002d2c:	685a      	ldr	r2, [r3, #4]
 8002d2e:	2a00      	cmp	r2, #0
 8002d30:	d133      	bne.n	8002d9a <_malloc_r+0xde>
 8002d32:	9b00      	ldr	r3, [sp, #0]
 8002d34:	6033      	str	r3, [r6, #0]
 8002d36:	e019      	b.n	8002d6c <_malloc_r+0xb0>
 8002d38:	2b00      	cmp	r3, #0
 8002d3a:	dac9      	bge.n	8002cd0 <_malloc_r+0x14>
 8002d3c:	230c      	movs	r3, #12
 8002d3e:	602b      	str	r3, [r5, #0]
 8002d40:	2000      	movs	r0, #0
 8002d42:	bdfe      	pop	{r1, r2, r3, r4, r5, r6, r7, pc}
 8002d44:	6821      	ldr	r1, [r4, #0]
 8002d46:	1bc9      	subs	r1, r1, r7
 8002d48:	d420      	bmi.n	8002d8c <_malloc_r+0xd0>
 8002d4a:	290b      	cmp	r1, #11
 8002d4c:	d90a      	bls.n	8002d64 <_malloc_r+0xa8>
 8002d4e:	19e2      	adds	r2, r4, r7
 8002d50:	6027      	str	r7, [r4, #0]
 8002d52:	42a3      	cmp	r3, r4
 8002d54:	d104      	bne.n	8002d60 <_malloc_r+0xa4>
 8002d56:	6032      	str	r2, [r6, #0]
 8002d58:	6863      	ldr	r3, [r4, #4]
 8002d5a:	6011      	str	r1, [r2, #0]
 8002d5c:	6053      	str	r3, [r2, #4]
 8002d5e:	e005      	b.n	8002d6c <_malloc_r+0xb0>
 8002d60:	605a      	str	r2, [r3, #4]
 8002d62:	e7f9      	b.n	8002d58 <_malloc_r+0x9c>
 8002d64:	6862      	ldr	r2, [r4, #4]
 8002d66:	42a3      	cmp	r3, r4
 8002d68:	d10e      	bne.n	8002d88 <_malloc_r+0xcc>
 8002d6a:	6032      	str	r2, [r6, #0]
 8002d6c:	0028      	movs	r0, r5
 8002d6e:	f000 f82d 	bl	8002dcc <__malloc_unlock>
 8002d72:	0020      	movs	r0, r4
 8002d74:	2207      	movs	r2, #7
 8002d76:	300b      	adds	r0, #11
 8002d78:	1d23      	adds	r3, r4, #4
 8002d7a:	4390      	bics	r0, r2
 8002d7c:	1ac2      	subs	r2, r0, r3
 8002d7e:	4298      	cmp	r0, r3
 8002d80:	d0df      	beq.n	8002d42 <_malloc_r+0x86>
 8002d82:	1a1b      	subs	r3, r3, r0
 8002d84:	50a3      	str	r3, [r4, r2]
 8002d86:	e7dc      	b.n	8002d42 <_malloc_r+0x86>
 8002d88:	605a      	str	r2, [r3, #4]
 8002d8a:	e7ef      	b.n	8002d6c <_malloc_r+0xb0>
 8002d8c:	0023      	movs	r3, r4
 8002d8e:	6864      	ldr	r4, [r4, #4]
 8002d90:	e7a6      	b.n	8002ce0 <_malloc_r+0x24>
 8002d92:	9c00      	ldr	r4, [sp, #0]
 8002d94:	6863      	ldr	r3, [r4, #4]
 8002d96:	9300      	str	r3, [sp, #0]
 8002d98:	e7ad      	b.n	8002cf6 <_malloc_r+0x3a>
 8002d9a:	001a      	movs	r2, r3
 8002d9c:	685b      	ldr	r3, [r3, #4]
 8002d9e:	42a3      	cmp	r3, r4
 8002da0:	d1fb      	bne.n	8002d9a <_malloc_r+0xde>
 8002da2:	2300      	movs	r3, #0
 8002da4:	e7da      	b.n	8002d5c <_malloc_r+0xa0>
 8002da6:	230c      	movs	r3, #12
 8002da8:	0028      	movs	r0, r5
 8002daa:	602b      	str	r3, [r5, #0]
 8002dac:	f000 f80e 	bl	8002dcc <__malloc_unlock>
 8002db0:	e7c6      	b.n	8002d40 <_malloc_r+0x84>
 8002db2:	6007      	str	r7, [r0, #0]
 8002db4:	e7da      	b.n	8002d6c <_malloc_r+0xb0>
 8002db6:	46c0      	nop			@ (mov r8, r8)
 8002db8:	2000059c 	.word	0x2000059c

08002dbc <__malloc_lock>:
 8002dbc:	b510      	push	{r4, lr}
 8002dbe:	4802      	ldr	r0, [pc, #8]	@ (8002dc8 <__malloc_lock+0xc>)
 8002dc0:	f7ff fee5 	bl	8002b8e <__retarget_lock_acquire_recursive>
 8002dc4:	bd10      	pop	{r4, pc}
 8002dc6:	46c0      	nop			@ (mov r8, r8)
 8002dc8:	20000594 	.word	0x20000594

08002dcc <__malloc_unlock>:
 8002dcc:	b510      	push	{r4, lr}
 8002dce:	4802      	ldr	r0, [pc, #8]	@ (8002dd8 <__malloc_unlock+0xc>)
 8002dd0:	f7ff fede 	bl	8002b90 <__retarget_lock_release_recursive>
 8002dd4:	bd10      	pop	{r4, pc}
 8002dd6:	46c0      	nop			@ (mov r8, r8)
 8002dd8:	20000594 	.word	0x20000594

08002ddc <__ssputs_r>:
 8002ddc:	b5f0      	push	{r4, r5, r6, r7, lr}
 8002dde:	688e      	ldr	r6, [r1, #8]
 8002de0:	b085      	sub	sp, #20
 8002de2:	001f      	movs	r7, r3
 8002de4:	000c      	movs	r4, r1
 8002de6:	0033      	movs	r3, r6
 8002de8:	9002      	str	r0, [sp, #8]
 8002dea:	9203      	str	r2, [sp, #12]
 8002dec:	42be      	cmp	r6, r7
 8002dee:	d854      	bhi.n	8002e9a <__ssputs_r+0xbe>
 8002df0:	220c      	movs	r2, #12
 8002df2:	5e88      	ldrsh	r0, [r1, r2]
 8002df4:	2290      	movs	r2, #144	@ 0x90
 8002df6:	00d2      	lsls	r2, r2, #3
 8002df8:	4210      	tst	r0, r2
 8002dfa:	d02c      	beq.n	8002e56 <__ssputs_r+0x7a>
 8002dfc:	2203      	movs	r2, #3
 8002dfe:	6909      	ldr	r1, [r1, #16]
 8002e00:	6823      	ldr	r3, [r4, #0]
 8002e02:	1a5b      	subs	r3, r3, r1
 8002e04:	9301      	str	r3, [sp, #4]
 8002e06:	6963      	ldr	r3, [r4, #20]
 8002e08:	4353      	muls	r3, r2
 8002e0a:	9a01      	ldr	r2, [sp, #4]
 8002e0c:	0fdd      	lsrs	r5, r3, #31
 8002e0e:	18ed      	adds	r5, r5, r3
 8002e10:	1c7b      	adds	r3, r7, #1
 8002e12:	106d      	asrs	r5, r5, #1
 8002e14:	189b      	adds	r3, r3, r2
 8002e16:	002a      	movs	r2, r5
 8002e18:	42ab      	cmp	r3, r5
 8002e1a:	d901      	bls.n	8002e20 <__ssputs_r+0x44>
 8002e1c:	001d      	movs	r5, r3
 8002e1e:	001a      	movs	r2, r3
 8002e20:	0540      	lsls	r0, r0, #21
 8002e22:	d527      	bpl.n	8002e74 <__ssputs_r+0x98>
 8002e24:	0011      	movs	r1, r2
 8002e26:	9802      	ldr	r0, [sp, #8]
 8002e28:	f7ff ff48 	bl	8002cbc <_malloc_r>
 8002e2c:	1e06      	subs	r6, r0, #0
 8002e2e:	d02a      	beq.n	8002e86 <__ssputs_r+0xaa>
 8002e30:	9a01      	ldr	r2, [sp, #4]
 8002e32:	6921      	ldr	r1, [r4, #16]
 8002e34:	f000 fbab 	bl	800358e <memcpy>
 8002e38:	89a2      	ldrh	r2, [r4, #12]
 8002e3a:	4b19      	ldr	r3, [pc, #100]	@ (8002ea0 <__ssputs_r+0xc4>)
 8002e3c:	401a      	ands	r2, r3
 8002e3e:	2380      	movs	r3, #128	@ 0x80
 8002e40:	4313      	orrs	r3, r2
 8002e42:	81a3      	strh	r3, [r4, #12]
 8002e44:	9b01      	ldr	r3, [sp, #4]
 8002e46:	6126      	str	r6, [r4, #16]
 8002e48:	18f6      	adds	r6, r6, r3
 8002e4a:	6026      	str	r6, [r4, #0]
 8002e4c:	6165      	str	r5, [r4, #20]
 8002e4e:	003e      	movs	r6, r7
 8002e50:	1aed      	subs	r5, r5, r3
 8002e52:	003b      	movs	r3, r7
 8002e54:	60a5      	str	r5, [r4, #8]
 8002e56:	001f      	movs	r7, r3
 8002e58:	003a      	movs	r2, r7
 8002e5a:	9903      	ldr	r1, [sp, #12]
 8002e5c:	6820      	ldr	r0, [r4, #0]
 8002e5e:	f000 fb67 	bl	8003530 <memmove>
 8002e62:	2000      	movs	r0, #0
 8002e64:	68a3      	ldr	r3, [r4, #8]
 8002e66:	1b9b      	subs	r3, r3, r6
 8002e68:	60a3      	str	r3, [r4, #8]
 8002e6a:	6823      	ldr	r3, [r4, #0]
 8002e6c:	19db      	adds	r3, r3, r7
 8002e6e:	6023      	str	r3, [r4, #0]
 8002e70:	b005      	add	sp, #20
 8002e72:	bdf0      	pop	{r4, r5, r6, r7, pc}
 8002e74:	9802      	ldr	r0, [sp, #8]
 8002e76:	f000 fb9a 	bl	80035ae <_realloc_r>
 8002e7a:	1e06      	subs	r6, r0, #0
 8002e7c:	d1e2      	bne.n	8002e44 <__ssputs_r+0x68>
 8002e7e:	6921      	ldr	r1, [r4, #16]
 8002e80:	9802      	ldr	r0, [sp, #8]
 8002e82:	f7ff fea5 	bl	8002bd0 <_free_r>
 8002e86:	230c      	movs	r3, #12
 8002e88:	2001      	movs	r0, #1
 8002e8a:	9a02      	ldr	r2, [sp, #8]
 8002e8c:	4240      	negs	r0, r0
 8002e8e:	6013      	str	r3, [r2, #0]
 8002e90:	89a2      	ldrh	r2, [r4, #12]
 8002e92:	3334      	adds	r3, #52	@ 0x34
 8002e94:	4313      	orrs	r3, r2
 8002e96:	81a3      	strh	r3, [r4, #12]
 8002e98:	e7ea      	b.n	8002e70 <__ssputs_r+0x94>
 8002e9a:	003e      	movs	r6, r7
 8002e9c:	e7dc      	b.n	8002e58 <__ssputs_r+0x7c>
 8002e9e:	46c0      	nop			@ (mov r8, r8)
 8002ea0:	fffffb7f 	.word	0xfffffb7f

08002ea4 <_svfiprintf_r>:
 8002ea4:	b5f0      	push	{r4, r5, r6, r7, lr}
 8002ea6:	b09f      	sub	sp, #124	@ 0x7c
 8002ea8:	9002      	str	r0, [sp, #8]
 8002eaa:	001c      	movs	r4, r3
 8002eac:	898b      	ldrh	r3, [r1, #12]
 8002eae:	000e      	movs	r6, r1
 8002eb0:	0015      	movs	r5, r2
 8002eb2:	061b      	lsls	r3, r3, #24
 8002eb4:	d511      	bpl.n	8002eda <_svfiprintf_r+0x36>
 8002eb6:	690b      	ldr	r3, [r1, #16]
 8002eb8:	2b00      	cmp	r3, #0
 8002eba:	d10e      	bne.n	8002eda <_svfiprintf_r+0x36>
 8002ebc:	2140      	movs	r1, #64	@ 0x40
 8002ebe:	f7ff fefd 	bl	8002cbc <_malloc_r>
 8002ec2:	6030      	str	r0, [r6, #0]
 8002ec4:	6130      	str	r0, [r6, #16]
 8002ec6:	2800      	cmp	r0, #0
 8002ec8:	d105      	bne.n	8002ed6 <_svfiprintf_r+0x32>
 8002eca:	230c      	movs	r3, #12
 8002ecc:	9a02      	ldr	r2, [sp, #8]
 8002ece:	6013      	str	r3, [r2, #0]
 8002ed0:	2001      	movs	r0, #1
 8002ed2:	4240      	negs	r0, r0
 8002ed4:	e0d4      	b.n	8003080 <_svfiprintf_r+0x1dc>
 8002ed6:	2340      	movs	r3, #64	@ 0x40
 8002ed8:	6173      	str	r3, [r6, #20]
 8002eda:	2300      	movs	r3, #0
 8002edc:	2129      	movs	r1, #41	@ 0x29
 8002ede:	aa02      	add	r2, sp, #8
 8002ee0:	1852      	adds	r2, r2, r1
 8002ee2:	930b      	str	r3, [sp, #44]	@ 0x2c
 8002ee4:	3320      	adds	r3, #32
 8002ee6:	7013      	strb	r3, [r2, #0]
 8002ee8:	3101      	adds	r1, #1
 8002eea:	aa02      	add	r2, sp, #8
 8002eec:	3310      	adds	r3, #16
 8002eee:	1852      	adds	r2, r2, r1
 8002ef0:	7013      	strb	r3, [r2, #0]
 8002ef2:	9405      	str	r4, [sp, #20]
 8002ef4:	002c      	movs	r4, r5
 8002ef6:	7823      	ldrb	r3, [r4, #0]
 8002ef8:	2b00      	cmp	r3, #0
 8002efa:	d001      	beq.n	8002f00 <_svfiprintf_r+0x5c>
 8002efc:	2b25      	cmp	r3, #37	@ 0x25
 8002efe:	d148      	bne.n	8002f92 <_svfiprintf_r+0xee>
 8002f00:	1b67      	subs	r7, r4, r5
 8002f02:	42ac      	cmp	r4, r5
 8002f04:	d00b      	beq.n	8002f1e <_svfiprintf_r+0x7a>
 8002f06:	003b      	movs	r3, r7
 8002f08:	002a      	movs	r2, r5
 8002f0a:	0031      	movs	r1, r6
 8002f0c:	9802      	ldr	r0, [sp, #8]
 8002f0e:	f7ff ff65 	bl	8002ddc <__ssputs_r>
 8002f12:	3001      	adds	r0, #1
 8002f14:	d100      	bne.n	8002f18 <_svfiprintf_r+0x74>
 8002f16:	e0ae      	b.n	8003076 <_svfiprintf_r+0x1d2>
 8002f18:	9b0b      	ldr	r3, [sp, #44]	@ 0x2c
 8002f1a:	19db      	adds	r3, r3, r7
 8002f1c:	930b      	str	r3, [sp, #44]	@ 0x2c
 8002f1e:	7823      	ldrb	r3, [r4, #0]
 8002f20:	2b00      	cmp	r3, #0
 8002f22:	d100      	bne.n	8002f26 <_svfiprintf_r+0x82>
 8002f24:	e0a7      	b.n	8003076 <_svfiprintf_r+0x1d2>
 8002f26:	2201      	movs	r2, #1
 8002f28:	2153      	movs	r1, #83	@ 0x53
 8002f2a:	2300      	movs	r3, #0
 8002f2c:	4252      	negs	r2, r2
 8002f2e:	9207      	str	r2, [sp, #28]
 8002f30:	aa02      	add	r2, sp, #8
 8002f32:	1852      	adds	r2, r2, r1
 8002f34:	1c65      	adds	r5, r4, #1
 8002f36:	9306      	str	r3, [sp, #24]
 8002f38:	9309      	str	r3, [sp, #36]	@ 0x24
 8002f3a:	9308      	str	r3, [sp, #32]
 8002f3c:	7013      	strb	r3, [r2, #0]
 8002f3e:	931c      	str	r3, [sp, #112]	@ 0x70
 8002f40:	4f55      	ldr	r7, [pc, #340]	@ (8003098 <_svfiprintf_r+0x1f4>)
 8002f42:	7829      	ldrb	r1, [r5, #0]
 8002f44:	2205      	movs	r2, #5
 8002f46:	0038      	movs	r0, r7
 8002f48:	f000 fb16 	bl	8003578 <memchr>
 8002f4c:	1c6c      	adds	r4, r5, #1
 8002f4e:	9906      	ldr	r1, [sp, #24]
 8002f50:	ab06      	add	r3, sp, #24
 8002f52:	2800      	cmp	r0, #0
 8002f54:	d11f      	bne.n	8002f96 <_svfiprintf_r+0xf2>
 8002f56:	06ca      	lsls	r2, r1, #27
 8002f58:	d504      	bpl.n	8002f64 <_svfiprintf_r+0xc0>
 8002f5a:	2753      	movs	r7, #83	@ 0x53
 8002f5c:	2220      	movs	r2, #32
 8002f5e:	a802      	add	r0, sp, #8
 8002f60:	19c0      	adds	r0, r0, r7
 8002f62:	7002      	strb	r2, [r0, #0]
 8002f64:	070a      	lsls	r2, r1, #28
 8002f66:	d504      	bpl.n	8002f72 <_svfiprintf_r+0xce>
 8002f68:	2753      	movs	r7, #83	@ 0x53
 8002f6a:	222b      	movs	r2, #43	@ 0x2b
 8002f6c:	a802      	add	r0, sp, #8
 8002f6e:	19c0      	adds	r0, r0, r7
 8002f70:	7002      	strb	r2, [r0, #0]
 8002f72:	782a      	ldrb	r2, [r5, #0]
 8002f74:	2a2a      	cmp	r2, #42	@ 0x2a
 8002f76:	d015      	beq.n	8002fa4 <_svfiprintf_r+0x100>
 8002f78:	002c      	movs	r4, r5
 8002f7a:	2000      	movs	r0, #0
 8002f7c:	270a      	movs	r7, #10
 8002f7e:	68da      	ldr	r2, [r3, #12]
 8002f80:	7821      	ldrb	r1, [r4, #0]
 8002f82:	1c65      	adds	r5, r4, #1
 8002f84:	3930      	subs	r1, #48	@ 0x30
 8002f86:	2909      	cmp	r1, #9
 8002f88:	d950      	bls.n	800302c <_svfiprintf_r+0x188>
 8002f8a:	2800      	cmp	r0, #0
 8002f8c:	d011      	beq.n	8002fb2 <_svfiprintf_r+0x10e>
 8002f8e:	9209      	str	r2, [sp, #36]	@ 0x24
 8002f90:	e00f      	b.n	8002fb2 <_svfiprintf_r+0x10e>
 8002f92:	3401      	adds	r4, #1
 8002f94:	e7af      	b.n	8002ef6 <_svfiprintf_r+0x52>
 8002f96:	2301      	movs	r3, #1
 8002f98:	1bc0      	subs	r0, r0, r7
 8002f9a:	4083      	lsls	r3, r0
 8002f9c:	430b      	orrs	r3, r1
 8002f9e:	0025      	movs	r5, r4
 8002fa0:	9306      	str	r3, [sp, #24]
 8002fa2:	e7cd      	b.n	8002f40 <_svfiprintf_r+0x9c>
 8002fa4:	9a05      	ldr	r2, [sp, #20]
 8002fa6:	1d10      	adds	r0, r2, #4
 8002fa8:	6812      	ldr	r2, [r2, #0]
 8002faa:	9005      	str	r0, [sp, #20]
 8002fac:	2a00      	cmp	r2, #0
 8002fae:	db37      	blt.n	8003020 <_svfiprintf_r+0x17c>
 8002fb0:	60da      	str	r2, [r3, #12]
 8002fb2:	7822      	ldrb	r2, [r4, #0]
 8002fb4:	2a2e      	cmp	r2, #46	@ 0x2e
 8002fb6:	d10c      	bne.n	8002fd2 <_svfiprintf_r+0x12e>
 8002fb8:	7862      	ldrb	r2, [r4, #1]
 8002fba:	2a2a      	cmp	r2, #42	@ 0x2a
 8002fbc:	d13b      	bne.n	8003036 <_svfiprintf_r+0x192>
 8002fbe:	9a05      	ldr	r2, [sp, #20]
 8002fc0:	3402      	adds	r4, #2
 8002fc2:	1d11      	adds	r1, r2, #4
 8002fc4:	6812      	ldr	r2, [r2, #0]
 8002fc6:	9105      	str	r1, [sp, #20]
 8002fc8:	2a00      	cmp	r2, #0
 8002fca:	da01      	bge.n	8002fd0 <_svfiprintf_r+0x12c>
 8002fcc:	2201      	movs	r2, #1
 8002fce:	4252      	negs	r2, r2
 8002fd0:	605a      	str	r2, [r3, #4]
 8002fd2:	4d32      	ldr	r5, [pc, #200]	@ (800309c <_svfiprintf_r+0x1f8>)
 8002fd4:	2203      	movs	r2, #3
 8002fd6:	0028      	movs	r0, r5
 8002fd8:	7821      	ldrb	r1, [r4, #0]
 8002fda:	f000 facd 	bl	8003578 <memchr>
 8002fde:	af06      	add	r7, sp, #24
 8002fe0:	2800      	cmp	r0, #0
 8002fe2:	d006      	beq.n	8002ff2 <_svfiprintf_r+0x14e>
 8002fe4:	2340      	movs	r3, #64	@ 0x40
 8002fe6:	1b40      	subs	r0, r0, r5
 8002fe8:	4083      	lsls	r3, r0
 8002fea:	9a06      	ldr	r2, [sp, #24]
 8002fec:	3401      	adds	r4, #1
 8002fee:	4313      	orrs	r3, r2
 8002ff0:	9306      	str	r3, [sp, #24]
 8002ff2:	7821      	ldrb	r1, [r4, #0]
 8002ff4:	2206      	movs	r2, #6
 8002ff6:	482a      	ldr	r0, [pc, #168]	@ (80030a0 <_svfiprintf_r+0x1fc>)
 8002ff8:	1c65      	adds	r5, r4, #1
 8002ffa:	7639      	strb	r1, [r7, #24]
 8002ffc:	f000 fabc 	bl	8003578 <memchr>
 8003000:	2800      	cmp	r0, #0
 8003002:	d03f      	beq.n	8003084 <_svfiprintf_r+0x1e0>
 8003004:	4b27      	ldr	r3, [pc, #156]	@ (80030a4 <_svfiprintf_r+0x200>)
 8003006:	2b00      	cmp	r3, #0
 8003008:	d129      	bne.n	800305e <_svfiprintf_r+0x1ba>
 800300a:	2207      	movs	r2, #7
 800300c:	9b05      	ldr	r3, [sp, #20]
 800300e:	3307      	adds	r3, #7
 8003010:	4393      	bics	r3, r2
 8003012:	3308      	adds	r3, #8
 8003014:	9305      	str	r3, [sp, #20]
 8003016:	9b0b      	ldr	r3, [sp, #44]	@ 0x2c
 8003018:	9903      	ldr	r1, [sp, #12]
 800301a:	185b      	adds	r3, r3, r1
 800301c:	930b      	str	r3, [sp, #44]	@ 0x2c
 800301e:	e769      	b.n	8002ef4 <_svfiprintf_r+0x50>
 8003020:	4252      	negs	r2, r2
 8003022:	60da      	str	r2, [r3, #12]
 8003024:	2202      	movs	r2, #2
 8003026:	430a      	orrs	r2, r1
 8003028:	9206      	str	r2, [sp, #24]
 800302a:	e7c2      	b.n	8002fb2 <_svfiprintf_r+0x10e>
 800302c:	437a      	muls	r2, r7
 800302e:	002c      	movs	r4, r5
 8003030:	2001      	movs	r0, #1
 8003032:	1852      	adds	r2, r2, r1
 8003034:	e7a4      	b.n	8002f80 <_svfiprintf_r+0xdc>
 8003036:	2200      	movs	r2, #0
 8003038:	200a      	movs	r0, #10
 800303a:	605a      	str	r2, [r3, #4]
 800303c:	0011      	movs	r1, r2
 800303e:	0013      	movs	r3, r2
 8003040:	3401      	adds	r4, #1
 8003042:	7822      	ldrb	r2, [r4, #0]
 8003044:	1c65      	adds	r5, r4, #1
 8003046:	3a30      	subs	r2, #48	@ 0x30
 8003048:	2a09      	cmp	r2, #9
 800304a:	d903      	bls.n	8003054 <_svfiprintf_r+0x1b0>
 800304c:	2b00      	cmp	r3, #0
 800304e:	d0c0      	beq.n	8002fd2 <_svfiprintf_r+0x12e>
 8003050:	9107      	str	r1, [sp, #28]
 8003052:	e7be      	b.n	8002fd2 <_svfiprintf_r+0x12e>
 8003054:	4341      	muls	r1, r0
 8003056:	002c      	movs	r4, r5
 8003058:	2301      	movs	r3, #1
 800305a:	1889      	adds	r1, r1, r2
 800305c:	e7f1      	b.n	8003042 <_svfiprintf_r+0x19e>
 800305e:	aa05      	add	r2, sp, #20
 8003060:	9200      	str	r2, [sp, #0]
 8003062:	0039      	movs	r1, r7
 8003064:	0032      	movs	r2, r6
 8003066:	4b10      	ldr	r3, [pc, #64]	@ (80030a8 <_svfiprintf_r+0x204>)
 8003068:	9802      	ldr	r0, [sp, #8]
 800306a:	e000      	b.n	800306e <_svfiprintf_r+0x1ca>
 800306c:	bf00      	nop
 800306e:	9003      	str	r0, [sp, #12]
 8003070:	9b03      	ldr	r3, [sp, #12]
 8003072:	3301      	adds	r3, #1
 8003074:	d1cf      	bne.n	8003016 <_svfiprintf_r+0x172>
 8003076:	89b3      	ldrh	r3, [r6, #12]
 8003078:	980b      	ldr	r0, [sp, #44]	@ 0x2c
 800307a:	065b      	lsls	r3, r3, #25
 800307c:	d500      	bpl.n	8003080 <_svfiprintf_r+0x1dc>
 800307e:	e727      	b.n	8002ed0 <_svfiprintf_r+0x2c>
 8003080:	b01f      	add	sp, #124	@ 0x7c
 8003082:	bdf0      	pop	{r4, r5, r6, r7, pc}
 8003084:	aa05      	add	r2, sp, #20
 8003086:	9200      	str	r2, [sp, #0]
 8003088:	0039      	movs	r1, r7
 800308a:	0032      	movs	r2, r6
 800308c:	4b06      	ldr	r3, [pc, #24]	@ (80030a8 <_svfiprintf_r+0x204>)
 800308e:	9802      	ldr	r0, [sp, #8]
 8003090:	f000 f87c 	bl	800318c <_printf_i>
 8003094:	e7eb      	b.n	800306e <_svfiprintf_r+0x1ca>
 8003096:	46c0      	nop			@ (mov r8, r8)
 8003098:	08003fa9 	.word	0x08003fa9
 800309c:	08003faf 	.word	0x08003faf
 80030a0:	08003fb3 	.word	0x08003fb3
 80030a4:	00000000 	.word	0x00000000
 80030a8:	08002ddd 	.word	0x08002ddd

080030ac <_printf_common>:
 80030ac:	b5f7      	push	{r0, r1, r2, r4, r5, r6, r7, lr}
 80030ae:	0016      	movs	r6, r2
 80030b0:	9301      	str	r3, [sp, #4]
 80030b2:	688a      	ldr	r2, [r1, #8]
 80030b4:	690b      	ldr	r3, [r1, #16]
 80030b6:	000c      	movs	r4, r1
 80030b8:	9000      	str	r0, [sp, #0]
 80030ba:	4293      	cmp	r3, r2
 80030bc:	da00      	bge.n	80030c0 <_printf_common+0x14>
 80030be:	0013      	movs	r3, r2
 80030c0:	0022      	movs	r2, r4
 80030c2:	6033      	str	r3, [r6, #0]
 80030c4:	3243      	adds	r2, #67	@ 0x43
 80030c6:	7812      	ldrb	r2, [r2, #0]
 80030c8:	2a00      	cmp	r2, #0
 80030ca:	d001      	beq.n	80030d0 <_printf_common+0x24>
 80030cc:	3301      	adds	r3, #1
 80030ce:	6033      	str	r3, [r6, #0]
 80030d0:	6823      	ldr	r3, [r4, #0]
 80030d2:	069b      	lsls	r3, r3, #26
 80030d4:	d502      	bpl.n	80030dc <_printf_common+0x30>
 80030d6:	6833      	ldr	r3, [r6, #0]
 80030d8:	3302      	adds	r3, #2
 80030da:	6033      	str	r3, [r6, #0]
 80030dc:	6822      	ldr	r2, [r4, #0]
 80030de:	2306      	movs	r3, #6
 80030e0:	0015      	movs	r5, r2
 80030e2:	401d      	ands	r5, r3
 80030e4:	421a      	tst	r2, r3
 80030e6:	d027      	beq.n	8003138 <_printf_common+0x8c>
 80030e8:	0023      	movs	r3, r4
 80030ea:	3343      	adds	r3, #67	@ 0x43
 80030ec:	781b      	ldrb	r3, [r3, #0]
 80030ee:	1e5a      	subs	r2, r3, #1
 80030f0:	4193      	sbcs	r3, r2
 80030f2:	6822      	ldr	r2, [r4, #0]
 80030f4:	0692      	lsls	r2, r2, #26
 80030f6:	d430      	bmi.n	800315a <_printf_common+0xae>
 80030f8:	0022      	movs	r2, r4
 80030fa:	9901      	ldr	r1, [sp, #4]
 80030fc:	9800      	ldr	r0, [sp, #0]
 80030fe:	9d08      	ldr	r5, [sp, #32]
 8003100:	3243      	adds	r2, #67	@ 0x43
 8003102:	47a8      	blx	r5
 8003104:	3001      	adds	r0, #1
 8003106:	d025      	beq.n	8003154 <_printf_common+0xa8>
 8003108:	2206      	movs	r2, #6
 800310a:	6823      	ldr	r3, [r4, #0]
 800310c:	2500      	movs	r5, #0
 800310e:	4013      	ands	r3, r2
 8003110:	2b04      	cmp	r3, #4
 8003112:	d105      	bne.n	8003120 <_printf_common+0x74>
 8003114:	6833      	ldr	r3, [r6, #0]
 8003116:	68e5      	ldr	r5, [r4, #12]
 8003118:	1aed      	subs	r5, r5, r3
 800311a:	43eb      	mvns	r3, r5
 800311c:	17db      	asrs	r3, r3, #31
 800311e:	401d      	ands	r5, r3
 8003120:	68a3      	ldr	r3, [r4, #8]
 8003122:	6922      	ldr	r2, [r4, #16]
 8003124:	4293      	cmp	r3, r2
 8003126:	dd01      	ble.n	800312c <_printf_common+0x80>
 8003128:	1a9b      	subs	r3, r3, r2
 800312a:	18ed      	adds	r5, r5, r3
 800312c:	2600      	movs	r6, #0
 800312e:	42b5      	cmp	r5, r6
 8003130:	d120      	bne.n	8003174 <_printf_common+0xc8>
 8003132:	2000      	movs	r0, #0
 8003134:	e010      	b.n	8003158 <_printf_common+0xac>
 8003136:	3501      	adds	r5, #1
 8003138:	68e3      	ldr	r3, [r4, #12]
 800313a:	6832      	ldr	r2, [r6, #0]
 800313c:	1a9b      	subs	r3, r3, r2
 800313e:	42ab      	cmp	r3, r5
 8003140:	ddd2      	ble.n	80030e8 <_printf_common+0x3c>
 8003142:	0022      	movs	r2, r4
 8003144:	2301      	movs	r3, #1
 8003146:	9901      	ldr	r1, [sp, #4]
 8003148:	9800      	ldr	r0, [sp, #0]
 800314a:	9f08      	ldr	r7, [sp, #32]
 800314c:	3219      	adds	r2, #25
 800314e:	47b8      	blx	r7
 8003150:	3001      	adds	r0, #1
 8003152:	d1f0      	bne.n	8003136 <_printf_common+0x8a>
 8003154:	2001      	movs	r0, #1
 8003156:	4240      	negs	r0, r0
 8003158:	bdfe      	pop	{r1, r2, r3, r4, r5, r6, r7, pc}
 800315a:	2030      	movs	r0, #48	@ 0x30
 800315c:	18e1      	adds	r1, r4, r3
 800315e:	3143      	adds	r1, #67	@ 0x43
 8003160:	7008      	strb	r0, [r1, #0]
 8003162:	0021      	movs	r1, r4
 8003164:	1c5a      	adds	r2, r3, #1
 8003166:	3145      	adds	r1, #69	@ 0x45
 8003168:	7809      	ldrb	r1, [r1, #0]
 800316a:	18a2      	adds	r2, r4, r2
 800316c:	3243      	adds	r2, #67	@ 0x43
 800316e:	3302      	adds	r3, #2
 8003170:	7011      	strb	r1, [r2, #0]
 8003172:	e7c1      	b.n	80030f8 <_printf_common+0x4c>
 8003174:	0022      	movs	r2, r4
 8003176:	2301      	movs	r3, #1
 8003178:	9901      	ldr	r1, [sp, #4]
 800317a:	9800      	ldr	r0, [sp, #0]
 800317c:	9f08      	ldr	r7, [sp, #32]
 800317e:	321a      	adds	r2, #26
 8003180:	47b8      	blx	r7
 8003182:	3001      	adds	r0, #1
 8003184:	d0e6      	beq.n	8003154 <_printf_common+0xa8>
 8003186:	3601      	adds	r6, #1
 8003188:	e7d1      	b.n	800312e <_printf_common+0x82>
	...

0800318c <_printf_i>:
 800318c:	b5f0      	push	{r4, r5, r6, r7, lr}
 800318e:	b08b      	sub	sp, #44	@ 0x2c
 8003190:	9206      	str	r2, [sp, #24]
 8003192:	000a      	movs	r2, r1
 8003194:	3243      	adds	r2, #67	@ 0x43
 8003196:	9307      	str	r3, [sp, #28]
 8003198:	9005      	str	r0, [sp, #20]
 800319a:	9203      	str	r2, [sp, #12]
 800319c:	7e0a      	ldrb	r2, [r1, #24]
 800319e:	000c      	movs	r4, r1
 80031a0:	9b10      	ldr	r3, [sp, #64]	@ 0x40
 80031a2:	2a78      	cmp	r2, #120	@ 0x78
 80031a4:	d809      	bhi.n	80031ba <_printf_i+0x2e>
 80031a6:	2a62      	cmp	r2, #98	@ 0x62
 80031a8:	d80b      	bhi.n	80031c2 <_printf_i+0x36>
 80031aa:	2a00      	cmp	r2, #0
 80031ac:	d100      	bne.n	80031b0 <_printf_i+0x24>
 80031ae:	e0ba      	b.n	8003326 <_printf_i+0x19a>
 80031b0:	497a      	ldr	r1, [pc, #488]	@ (800339c <_printf_i+0x210>)
 80031b2:	9104      	str	r1, [sp, #16]
 80031b4:	2a58      	cmp	r2, #88	@ 0x58
 80031b6:	d100      	bne.n	80031ba <_printf_i+0x2e>
 80031b8:	e08e      	b.n	80032d8 <_printf_i+0x14c>
 80031ba:	0025      	movs	r5, r4
 80031bc:	3542      	adds	r5, #66	@ 0x42
 80031be:	702a      	strb	r2, [r5, #0]
 80031c0:	e022      	b.n	8003208 <_printf_i+0x7c>
 80031c2:	0010      	movs	r0, r2
 80031c4:	3863      	subs	r0, #99	@ 0x63
 80031c6:	2815      	cmp	r0, #21
 80031c8:	d8f7      	bhi.n	80031ba <_printf_i+0x2e>
 80031ca:	f7fc ff81 	bl	80000d0 <__gnu_thumb1_case_shi>
 80031ce:	0016      	.short	0x0016
 80031d0:	fff6001f 	.word	0xfff6001f
 80031d4:	fff6fff6 	.word	0xfff6fff6
 80031d8:	001ffff6 	.word	0x001ffff6
 80031dc:	fff6fff6 	.word	0xfff6fff6
 80031e0:	fff6fff6 	.word	0xfff6fff6
 80031e4:	0036009f 	.word	0x0036009f
 80031e8:	fff6007e 	.word	0xfff6007e
 80031ec:	00b0fff6 	.word	0x00b0fff6
 80031f0:	0036fff6 	.word	0x0036fff6
 80031f4:	fff6fff6 	.word	0xfff6fff6
 80031f8:	0082      	.short	0x0082
 80031fa:	0025      	movs	r5, r4
 80031fc:	681a      	ldr	r2, [r3, #0]
 80031fe:	3542      	adds	r5, #66	@ 0x42
 8003200:	1d11      	adds	r1, r2, #4
 8003202:	6019      	str	r1, [r3, #0]
 8003204:	6813      	ldr	r3, [r2, #0]
 8003206:	702b      	strb	r3, [r5, #0]
 8003208:	2301      	movs	r3, #1
 800320a:	e09e      	b.n	800334a <_printf_i+0x1be>
 800320c:	6818      	ldr	r0, [r3, #0]
 800320e:	6809      	ldr	r1, [r1, #0]
 8003210:	1d02      	adds	r2, r0, #4
 8003212:	060d      	lsls	r5, r1, #24
 8003214:	d50b      	bpl.n	800322e <_printf_i+0xa2>
 8003216:	6806      	ldr	r6, [r0, #0]
 8003218:	601a      	str	r2, [r3, #0]
 800321a:	2e00      	cmp	r6, #0
 800321c:	da03      	bge.n	8003226 <_printf_i+0x9a>
 800321e:	232d      	movs	r3, #45	@ 0x2d
 8003220:	9a03      	ldr	r2, [sp, #12]
 8003222:	4276      	negs	r6, r6
 8003224:	7013      	strb	r3, [r2, #0]
 8003226:	4b5d      	ldr	r3, [pc, #372]	@ (800339c <_printf_i+0x210>)
 8003228:	270a      	movs	r7, #10
 800322a:	9304      	str	r3, [sp, #16]
 800322c:	e018      	b.n	8003260 <_printf_i+0xd4>
 800322e:	6806      	ldr	r6, [r0, #0]
 8003230:	601a      	str	r2, [r3, #0]
 8003232:	0649      	lsls	r1, r1, #25
 8003234:	d5f1      	bpl.n	800321a <_printf_i+0x8e>
 8003236:	b236      	sxth	r6, r6
 8003238:	e7ef      	b.n	800321a <_printf_i+0x8e>
 800323a:	6808      	ldr	r0, [r1, #0]
 800323c:	6819      	ldr	r1, [r3, #0]
 800323e:	c940      	ldmia	r1!, {r6}
 8003240:	0605      	lsls	r5, r0, #24
 8003242:	d402      	bmi.n	800324a <_printf_i+0xbe>
 8003244:	0640      	lsls	r0, r0, #25
 8003246:	d500      	bpl.n	800324a <_printf_i+0xbe>
 8003248:	b2b6      	uxth	r6, r6
 800324a:	6019      	str	r1, [r3, #0]
 800324c:	4b53      	ldr	r3, [pc, #332]	@ (800339c <_printf_i+0x210>)
 800324e:	270a      	movs	r7, #10
 8003250:	9304      	str	r3, [sp, #16]
 8003252:	2a6f      	cmp	r2, #111	@ 0x6f
 8003254:	d100      	bne.n	8003258 <_printf_i+0xcc>
 8003256:	3f02      	subs	r7, #2
 8003258:	0023      	movs	r3, r4
 800325a:	2200      	movs	r2, #0
 800325c:	3343      	adds	r3, #67	@ 0x43
 800325e:	701a      	strb	r2, [r3, #0]
 8003260:	6863      	ldr	r3, [r4, #4]
 8003262:	60a3      	str	r3, [r4, #8]
 8003264:	2b00      	cmp	r3, #0
 8003266:	db06      	blt.n	8003276 <_printf_i+0xea>
 8003268:	2104      	movs	r1, #4
 800326a:	6822      	ldr	r2, [r4, #0]
 800326c:	9d03      	ldr	r5, [sp, #12]
 800326e:	438a      	bics	r2, r1
 8003270:	6022      	str	r2, [r4, #0]
 8003272:	4333      	orrs	r3, r6
 8003274:	d00c      	beq.n	8003290 <_printf_i+0x104>
 8003276:	9d03      	ldr	r5, [sp, #12]
 8003278:	0030      	movs	r0, r6
 800327a:	0039      	movs	r1, r7
 800327c:	f7fc ffb8 	bl	80001f0 <__aeabi_uidivmod>
 8003280:	9b04      	ldr	r3, [sp, #16]
 8003282:	3d01      	subs	r5, #1
 8003284:	5c5b      	ldrb	r3, [r3, r1]
 8003286:	702b      	strb	r3, [r5, #0]
 8003288:	0033      	movs	r3, r6
 800328a:	0006      	movs	r6, r0
 800328c:	429f      	cmp	r7, r3
 800328e:	d9f3      	bls.n	8003278 <_printf_i+0xec>
 8003290:	2f08      	cmp	r7, #8
 8003292:	d109      	bne.n	80032a8 <_printf_i+0x11c>
 8003294:	6823      	ldr	r3, [r4, #0]
 8003296:	07db      	lsls	r3, r3, #31
 8003298:	d506      	bpl.n	80032a8 <_printf_i+0x11c>
 800329a:	6862      	ldr	r2, [r4, #4]
 800329c:	6923      	ldr	r3, [r4, #16]
 800329e:	429a      	cmp	r2, r3
 80032a0:	dc02      	bgt.n	80032a8 <_printf_i+0x11c>
 80032a2:	2330      	movs	r3, #48	@ 0x30
 80032a4:	3d01      	subs	r5, #1
 80032a6:	702b      	strb	r3, [r5, #0]
 80032a8:	9b03      	ldr	r3, [sp, #12]
 80032aa:	1b5b      	subs	r3, r3, r5
 80032ac:	6123      	str	r3, [r4, #16]
 80032ae:	9b07      	ldr	r3, [sp, #28]
 80032b0:	0021      	movs	r1, r4
 80032b2:	9300      	str	r3, [sp, #0]
 80032b4:	9805      	ldr	r0, [sp, #20]
 80032b6:	9b06      	ldr	r3, [sp, #24]
 80032b8:	aa09      	add	r2, sp, #36	@ 0x24
 80032ba:	f7ff fef7 	bl	80030ac <_printf_common>
 80032be:	3001      	adds	r0, #1
 80032c0:	d148      	bne.n	8003354 <_printf_i+0x1c8>
 80032c2:	2001      	movs	r0, #1
 80032c4:	4240      	negs	r0, r0
 80032c6:	b00b      	add	sp, #44	@ 0x2c
 80032c8:	bdf0      	pop	{r4, r5, r6, r7, pc}
 80032ca:	2220      	movs	r2, #32
 80032cc:	6809      	ldr	r1, [r1, #0]
 80032ce:	430a      	orrs	r2, r1
 80032d0:	6022      	str	r2, [r4, #0]
 80032d2:	2278      	movs	r2, #120	@ 0x78
 80032d4:	4932      	ldr	r1, [pc, #200]	@ (80033a0 <_printf_i+0x214>)
 80032d6:	9104      	str	r1, [sp, #16]
 80032d8:	0021      	movs	r1, r4
 80032da:	3145      	adds	r1, #69	@ 0x45
 80032dc:	700a      	strb	r2, [r1, #0]
 80032de:	6819      	ldr	r1, [r3, #0]
 80032e0:	6822      	ldr	r2, [r4, #0]
 80032e2:	c940      	ldmia	r1!, {r6}
 80032e4:	0610      	lsls	r0, r2, #24
 80032e6:	d402      	bmi.n	80032ee <_printf_i+0x162>
 80032e8:	0650      	lsls	r0, r2, #25
 80032ea:	d500      	bpl.n	80032ee <_printf_i+0x162>
 80032ec:	b2b6      	uxth	r6, r6
 80032ee:	6019      	str	r1, [r3, #0]
 80032f0:	07d3      	lsls	r3, r2, #31
 80032f2:	d502      	bpl.n	80032fa <_printf_i+0x16e>
 80032f4:	2320      	movs	r3, #32
 80032f6:	4313      	orrs	r3, r2
 80032f8:	6023      	str	r3, [r4, #0]
 80032fa:	2e00      	cmp	r6, #0
 80032fc:	d001      	beq.n	8003302 <_printf_i+0x176>
 80032fe:	2710      	movs	r7, #16
 8003300:	e7aa      	b.n	8003258 <_printf_i+0xcc>
 8003302:	2220      	movs	r2, #32
 8003304:	6823      	ldr	r3, [r4, #0]
 8003306:	4393      	bics	r3, r2
 8003308:	6023      	str	r3, [r4, #0]
 800330a:	e7f8      	b.n	80032fe <_printf_i+0x172>
 800330c:	681a      	ldr	r2, [r3, #0]
 800330e:	680d      	ldr	r5, [r1, #0]
 8003310:	1d10      	adds	r0, r2, #4
 8003312:	6949      	ldr	r1, [r1, #20]
 8003314:	6018      	str	r0, [r3, #0]
 8003316:	6813      	ldr	r3, [r2, #0]
 8003318:	062e      	lsls	r6, r5, #24
 800331a:	d501      	bpl.n	8003320 <_printf_i+0x194>
 800331c:	6019      	str	r1, [r3, #0]
 800331e:	e002      	b.n	8003326 <_printf_i+0x19a>
 8003320:	066d      	lsls	r5, r5, #25
 8003322:	d5fb      	bpl.n	800331c <_printf_i+0x190>
 8003324:	8019      	strh	r1, [r3, #0]
 8003326:	2300      	movs	r3, #0
 8003328:	9d03      	ldr	r5, [sp, #12]
 800332a:	6123      	str	r3, [r4, #16]
 800332c:	e7bf      	b.n	80032ae <_printf_i+0x122>
 800332e:	681a      	ldr	r2, [r3, #0]
 8003330:	1d11      	adds	r1, r2, #4
 8003332:	6019      	str	r1, [r3, #0]
 8003334:	6815      	ldr	r5, [r2, #0]
 8003336:	2100      	movs	r1, #0
 8003338:	0028      	movs	r0, r5
 800333a:	6862      	ldr	r2, [r4, #4]
 800333c:	f000 f91c 	bl	8003578 <memchr>
 8003340:	2800      	cmp	r0, #0
 8003342:	d001      	beq.n	8003348 <_printf_i+0x1bc>
 8003344:	1b40      	subs	r0, r0, r5
 8003346:	6060      	str	r0, [r4, #4]
 8003348:	6863      	ldr	r3, [r4, #4]
 800334a:	6123      	str	r3, [r4, #16]
 800334c:	2300      	movs	r3, #0
 800334e:	9a03      	ldr	r2, [sp, #12]
 8003350:	7013      	strb	r3, [r2, #0]
 8003352:	e7ac      	b.n	80032ae <_printf_i+0x122>
 8003354:	002a      	movs	r2, r5
 8003356:	6923      	ldr	r3, [r4, #16]
 8003358:	9906      	ldr	r1, [sp, #24]
 800335a:	9805      	ldr	r0, [sp, #20]
 800335c:	9d07      	ldr	r5, [sp, #28]
 800335e:	47a8      	blx	r5
 8003360:	3001      	adds	r0, #1
 8003362:	d0ae      	beq.n	80032c2 <_printf_i+0x136>
 8003364:	6823      	ldr	r3, [r4, #0]
 8003366:	079b      	lsls	r3, r3, #30
 8003368:	d415      	bmi.n	8003396 <_printf_i+0x20a>
 800336a:	9b09      	ldr	r3, [sp, #36]	@ 0x24
 800336c:	68e0      	ldr	r0, [r4, #12]
 800336e:	4298      	cmp	r0, r3
 8003370:	daa9      	bge.n	80032c6 <_printf_i+0x13a>
 8003372:	0018      	movs	r0, r3
 8003374:	e7a7      	b.n	80032c6 <_printf_i+0x13a>
 8003376:	0022      	movs	r2, r4
 8003378:	2301      	movs	r3, #1
 800337a:	9906      	ldr	r1, [sp, #24]
 800337c:	9805      	ldr	r0, [sp, #20]
 800337e:	9e07      	ldr	r6, [sp, #28]
 8003380:	3219      	adds	r2, #25
 8003382:	47b0      	blx	r6
 8003384:	3001      	adds	r0, #1
 8003386:	d09c      	beq.n	80032c2 <_printf_i+0x136>
 8003388:	3501      	adds	r5, #1
 800338a:	68e3      	ldr	r3, [r4, #12]
 800338c:	9a09      	ldr	r2, [sp, #36]	@ 0x24
 800338e:	1a9b      	subs	r3, r3, r2
 8003390:	42ab      	cmp	r3, r5
 8003392:	dcf0      	bgt.n	8003376 <_printf_i+0x1ea>
 8003394:	e7e9      	b.n	800336a <_printf_i+0x1de>
 8003396:	2500      	movs	r5, #0
 8003398:	e7f7      	b.n	800338a <_printf_i+0x1fe>
 800339a:	46c0      	nop			@ (mov r8, r8)
 800339c:	08003fba 	.word	0x08003fba
 80033a0:	08003fcb 	.word	0x08003fcb

080033a4 <__sflush_r>:
 80033a4:	b5f7      	push	{r0, r1, r2, r4, r5, r6, r7, lr}
 80033a6:	220c      	movs	r2, #12
 80033a8:	5e8b      	ldrsh	r3, [r1, r2]
 80033aa:	0005      	movs	r5, r0
 80033ac:	000c      	movs	r4, r1
 80033ae:	071a      	lsls	r2, r3, #28
 80033b0:	d45a      	bmi.n	8003468 <__sflush_r+0xc4>
 80033b2:	684a      	ldr	r2, [r1, #4]
 80033b4:	2a00      	cmp	r2, #0
 80033b6:	dc02      	bgt.n	80033be <__sflush_r+0x1a>
 80033b8:	6c0a      	ldr	r2, [r1, #64]	@ 0x40
 80033ba:	2a00      	cmp	r2, #0
 80033bc:	dd4f      	ble.n	800345e <__sflush_r+0xba>
 80033be:	6ae7      	ldr	r7, [r4, #44]	@ 0x2c
 80033c0:	2f00      	cmp	r7, #0
 80033c2:	d04c      	beq.n	800345e <__sflush_r+0xba>
 80033c4:	2200      	movs	r2, #0
 80033c6:	2180      	movs	r1, #128	@ 0x80
 80033c8:	682e      	ldr	r6, [r5, #0]
 80033ca:	602a      	str	r2, [r5, #0]
 80033cc:	001a      	movs	r2, r3
 80033ce:	0149      	lsls	r1, r1, #5
 80033d0:	400a      	ands	r2, r1
 80033d2:	420b      	tst	r3, r1
 80033d4:	d034      	beq.n	8003440 <__sflush_r+0x9c>
 80033d6:	6d62      	ldr	r2, [r4, #84]	@ 0x54
 80033d8:	89a3      	ldrh	r3, [r4, #12]
 80033da:	075b      	lsls	r3, r3, #29
 80033dc:	d506      	bpl.n	80033ec <__sflush_r+0x48>
 80033de:	6863      	ldr	r3, [r4, #4]
 80033e0:	1ad2      	subs	r2, r2, r3
 80033e2:	6b63      	ldr	r3, [r4, #52]	@ 0x34
 80033e4:	2b00      	cmp	r3, #0
 80033e6:	d001      	beq.n	80033ec <__sflush_r+0x48>
 80033e8:	6c23      	ldr	r3, [r4, #64]	@ 0x40
 80033ea:	1ad2      	subs	r2, r2, r3
 80033ec:	2300      	movs	r3, #0
 80033ee:	0028      	movs	r0, r5
 80033f0:	6ae7      	ldr	r7, [r4, #44]	@ 0x2c
 80033f2:	6a21      	ldr	r1, [r4, #32]
 80033f4:	47b8      	blx	r7
 80033f6:	230c      	movs	r3, #12
 80033f8:	5ee2      	ldrsh	r2, [r4, r3]
 80033fa:	1c43      	adds	r3, r0, #1
 80033fc:	d106      	bne.n	800340c <__sflush_r+0x68>
 80033fe:	6829      	ldr	r1, [r5, #0]
 8003400:	291d      	cmp	r1, #29
 8003402:	d82e      	bhi.n	8003462 <__sflush_r+0xbe>
 8003404:	4b2b      	ldr	r3, [pc, #172]	@ (80034b4 <__sflush_r+0x110>)
 8003406:	40cb      	lsrs	r3, r1
 8003408:	07db      	lsls	r3, r3, #31
 800340a:	d52a      	bpl.n	8003462 <__sflush_r+0xbe>
 800340c:	2300      	movs	r3, #0
 800340e:	6063      	str	r3, [r4, #4]
 8003410:	6923      	ldr	r3, [r4, #16]
 8003412:	6023      	str	r3, [r4, #0]
 8003414:	04d2      	lsls	r2, r2, #19
 8003416:	d505      	bpl.n	8003424 <__sflush_r+0x80>
 8003418:	1c43      	adds	r3, r0, #1
 800341a:	d102      	bne.n	8003422 <__sflush_r+0x7e>
 800341c:	682b      	ldr	r3, [r5, #0]
 800341e:	2b00      	cmp	r3, #0
 8003420:	d100      	bne.n	8003424 <__sflush_r+0x80>
 8003422:	6560      	str	r0, [r4, #84]	@ 0x54
 8003424:	6b61      	ldr	r1, [r4, #52]	@ 0x34
 8003426:	602e      	str	r6, [r5, #0]
 8003428:	2900      	cmp	r1, #0
 800342a:	d018      	beq.n	800345e <__sflush_r+0xba>
 800342c:	0023      	movs	r3, r4
 800342e:	3344      	adds	r3, #68	@ 0x44
 8003430:	4299      	cmp	r1, r3
 8003432:	d002      	beq.n	800343a <__sflush_r+0x96>
 8003434:	0028      	movs	r0, r5
 8003436:	f7ff fbcb 	bl	8002bd0 <_free_r>
 800343a:	2300      	movs	r3, #0
 800343c:	6363      	str	r3, [r4, #52]	@ 0x34
 800343e:	e00e      	b.n	800345e <__sflush_r+0xba>
 8003440:	2301      	movs	r3, #1
 8003442:	0028      	movs	r0, r5
 8003444:	6a21      	ldr	r1, [r4, #32]
 8003446:	47b8      	blx	r7
 8003448:	0002      	movs	r2, r0
 800344a:	1c43      	adds	r3, r0, #1
 800344c:	d1c4      	bne.n	80033d8 <__sflush_r+0x34>
 800344e:	682b      	ldr	r3, [r5, #0]
 8003450:	2b00      	cmp	r3, #0
 8003452:	d0c1      	beq.n	80033d8 <__sflush_r+0x34>
 8003454:	2b1d      	cmp	r3, #29
 8003456:	d001      	beq.n	800345c <__sflush_r+0xb8>
 8003458:	2b16      	cmp	r3, #22
 800345a:	d11d      	bne.n	8003498 <__sflush_r+0xf4>
 800345c:	602e      	str	r6, [r5, #0]
 800345e:	2000      	movs	r0, #0
 8003460:	e021      	b.n	80034a6 <__sflush_r+0x102>
 8003462:	2340      	movs	r3, #64	@ 0x40
 8003464:	4313      	orrs	r3, r2
 8003466:	e01b      	b.n	80034a0 <__sflush_r+0xfc>
 8003468:	690e      	ldr	r6, [r1, #16]
 800346a:	2e00      	cmp	r6, #0
 800346c:	d0f7      	beq.n	800345e <__sflush_r+0xba>
 800346e:	680f      	ldr	r7, [r1, #0]
 8003470:	600e      	str	r6, [r1, #0]
 8003472:	1bba      	subs	r2, r7, r6
 8003474:	9201      	str	r2, [sp, #4]
 8003476:	2200      	movs	r2, #0
 8003478:	079b      	lsls	r3, r3, #30
 800347a:	d100      	bne.n	800347e <__sflush_r+0xda>
 800347c:	694a      	ldr	r2, [r1, #20]
 800347e:	60a2      	str	r2, [r4, #8]
 8003480:	9b01      	ldr	r3, [sp, #4]
 8003482:	2b00      	cmp	r3, #0
 8003484:	ddeb      	ble.n	800345e <__sflush_r+0xba>
 8003486:	6aa3      	ldr	r3, [r4, #40]	@ 0x28
 8003488:	0032      	movs	r2, r6
 800348a:	001f      	movs	r7, r3
 800348c:	0028      	movs	r0, r5
 800348e:	9b01      	ldr	r3, [sp, #4]
 8003490:	6a21      	ldr	r1, [r4, #32]
 8003492:	47b8      	blx	r7
 8003494:	2800      	cmp	r0, #0
 8003496:	dc07      	bgt.n	80034a8 <__sflush_r+0x104>
 8003498:	2340      	movs	r3, #64	@ 0x40
 800349a:	89a2      	ldrh	r2, [r4, #12]
 800349c:	4313      	orrs	r3, r2
 800349e:	b21b      	sxth	r3, r3
 80034a0:	2001      	movs	r0, #1
 80034a2:	81a3      	strh	r3, [r4, #12]
 80034a4:	4240      	negs	r0, r0
 80034a6:	bdfe      	pop	{r1, r2, r3, r4, r5, r6, r7, pc}
 80034a8:	9b01      	ldr	r3, [sp, #4]
 80034aa:	1836      	adds	r6, r6, r0
 80034ac:	1a1b      	subs	r3, r3, r0
 80034ae:	9301      	str	r3, [sp, #4]
 80034b0:	e7e6      	b.n	8003480 <__sflush_r+0xdc>
 80034b2:	46c0      	nop			@ (mov r8, r8)
 80034b4:	20400001 	.word	0x20400001

080034b8 <_fflush_r>:
 80034b8:	690b      	ldr	r3, [r1, #16]
 80034ba:	b570      	push	{r4, r5, r6, lr}
 80034bc:	0005      	movs	r5, r0
 80034be:	000c      	movs	r4, r1
 80034c0:	2b00      	cmp	r3, #0
 80034c2:	d102      	bne.n	80034ca <_fflush_r+0x12>
 80034c4:	2500      	movs	r5, #0
 80034c6:	0028      	movs	r0, r5
 80034c8:	bd70      	pop	{r4, r5, r6, pc}
 80034ca:	2800      	cmp	r0, #0
 80034cc:	d004      	beq.n	80034d8 <_fflush_r+0x20>
 80034ce:	6a03      	ldr	r3, [r0, #32]
 80034d0:	2b00      	cmp	r3, #0
 80034d2:	d101      	bne.n	80034d8 <_fflush_r+0x20>
 80034d4:	f7ff fa38 	bl	8002948 <__sinit>
 80034d8:	220c      	movs	r2, #12
 80034da:	5ea3      	ldrsh	r3, [r4, r2]
 80034dc:	2b00      	cmp	r3, #0
 80034de:	d0f1      	beq.n	80034c4 <_fflush_r+0xc>
 80034e0:	6e62      	ldr	r2, [r4, #100]	@ 0x64
 80034e2:	07d2      	lsls	r2, r2, #31
 80034e4:	d404      	bmi.n	80034f0 <_fflush_r+0x38>
 80034e6:	059b      	lsls	r3, r3, #22
 80034e8:	d402      	bmi.n	80034f0 <_fflush_r+0x38>
 80034ea:	6da0      	ldr	r0, [r4, #88]	@ 0x58
 80034ec:	f7ff fb4f 	bl	8002b8e <__retarget_lock_acquire_recursive>
 80034f0:	0028      	movs	r0, r5
 80034f2:	0021      	movs	r1, r4
 80034f4:	f7ff ff56 	bl	80033a4 <__sflush_r>
 80034f8:	6e63      	ldr	r3, [r4, #100]	@ 0x64
 80034fa:	0005      	movs	r5, r0
 80034fc:	07db      	lsls	r3, r3, #31
 80034fe:	d4e2      	bmi.n	80034c6 <_fflush_r+0xe>
 8003500:	89a3      	ldrh	r3, [r4, #12]
 8003502:	059b      	lsls	r3, r3, #22
 8003504:	d4df      	bmi.n	80034c6 <_fflush_r+0xe>
 8003506:	6da0      	ldr	r0, [r4, #88]	@ 0x58
 8003508:	f7ff fb42 	bl	8002b90 <__retarget_lock_release_recursive>
 800350c:	e7db      	b.n	80034c6 <_fflush_r+0xe>
	...

08003510 <fiprintf>:
 8003510:	b40e      	push	{r1, r2, r3}
 8003512:	b517      	push	{r0, r1, r2, r4, lr}
 8003514:	4c05      	ldr	r4, [pc, #20]	@ (800352c <fiprintf+0x1c>)
 8003516:	ab05      	add	r3, sp, #20
 8003518:	cb04      	ldmia	r3!, {r2}
 800351a:	0001      	movs	r1, r0
 800351c:	6820      	ldr	r0, [r4, #0]
 800351e:	9301      	str	r3, [sp, #4]
 8003520:	f000 f89c 	bl	800365c <_vfiprintf_r>
 8003524:	bc1e      	pop	{r1, r2, r3, r4}
 8003526:	bc08      	pop	{r3}
 8003528:	b003      	add	sp, #12
 800352a:	4718      	bx	r3
 800352c:	20000018 	.word	0x20000018

08003530 <memmove>:
 8003530:	b510      	push	{r4, lr}
 8003532:	4288      	cmp	r0, r1
 8003534:	d902      	bls.n	800353c <memmove+0xc>
 8003536:	188b      	adds	r3, r1, r2
 8003538:	4298      	cmp	r0, r3
 800353a:	d308      	bcc.n	800354e <memmove+0x1e>
 800353c:	2300      	movs	r3, #0
 800353e:	429a      	cmp	r2, r3
 8003540:	d007      	beq.n	8003552 <memmove+0x22>
 8003542:	5ccc      	ldrb	r4, [r1, r3]
 8003544:	54c4      	strb	r4, [r0, r3]
 8003546:	3301      	adds	r3, #1
 8003548:	e7f9      	b.n	800353e <memmove+0xe>
 800354a:	5c8b      	ldrb	r3, [r1, r2]
 800354c:	5483      	strb	r3, [r0, r2]
 800354e:	3a01      	subs	r2, #1
 8003550:	d2fb      	bcs.n	800354a <memmove+0x1a>
 8003552:	bd10      	pop	{r4, pc}

08003554 <_sbrk_r>:
 8003554:	2300      	movs	r3, #0
 8003556:	b570      	push	{r4, r5, r6, lr}
 8003558:	4d06      	ldr	r5, [pc, #24]	@ (8003574 <_sbrk_r+0x20>)
 800355a:	0004      	movs	r4, r0
 800355c:	0008      	movs	r0, r1
 800355e:	602b      	str	r3, [r5, #0]
 8003560:	f7ff f8ce 	bl	8002700 <_sbrk>
 8003564:	1c43      	adds	r3, r0, #1
 8003566:	d103      	bne.n	8003570 <_sbrk_r+0x1c>
 8003568:	682b      	ldr	r3, [r5, #0]
 800356a:	2b00      	cmp	r3, #0
 800356c:	d000      	beq.n	8003570 <_sbrk_r+0x1c>
 800356e:	6023      	str	r3, [r4, #0]
 8003570:	bd70      	pop	{r4, r5, r6, pc}
 8003572:	46c0      	nop			@ (mov r8, r8)
 8003574:	20000590 	.word	0x20000590

08003578 <memchr>:
 8003578:	b2c9      	uxtb	r1, r1
 800357a:	1882      	adds	r2, r0, r2
 800357c:	4290      	cmp	r0, r2
 800357e:	d101      	bne.n	8003584 <memchr+0xc>
 8003580:	2000      	movs	r0, #0
 8003582:	4770      	bx	lr
 8003584:	7803      	ldrb	r3, [r0, #0]
 8003586:	428b      	cmp	r3, r1
 8003588:	d0fb      	beq.n	8003582 <memchr+0xa>
 800358a:	3001      	adds	r0, #1
 800358c:	e7f6      	b.n	800357c <memchr+0x4>

0800358e <memcpy>:
 800358e:	2300      	movs	r3, #0
 8003590:	b510      	push	{r4, lr}
 8003592:	429a      	cmp	r2, r3
 8003594:	d100      	bne.n	8003598 <memcpy+0xa>
 8003596:	bd10      	pop	{r4, pc}
 8003598:	5ccc      	ldrb	r4, [r1, r3]
 800359a:	54c4      	strb	r4, [r0, r3]
 800359c:	3301      	adds	r3, #1
 800359e:	e7f8      	b.n	8003592 <memcpy+0x4>

080035a0 <abort>:
 80035a0:	2006      	movs	r0, #6
 80035a2:	b510      	push	{r4, lr}
 80035a4:	f000 fa40 	bl	8003a28 <raise>
 80035a8:	2001      	movs	r0, #1
 80035aa:	f7ff f87b 	bl	80026a4 <_exit>

080035ae <_realloc_r>:
 80035ae:	b5f7      	push	{r0, r1, r2, r4, r5, r6, r7, lr}
 80035b0:	0006      	movs	r6, r0
 80035b2:	000c      	movs	r4, r1
 80035b4:	0015      	movs	r5, r2
 80035b6:	2900      	cmp	r1, #0
 80035b8:	d105      	bne.n	80035c6 <_realloc_r+0x18>
 80035ba:	0011      	movs	r1, r2
 80035bc:	f7ff fb7e 	bl	8002cbc <_malloc_r>
 80035c0:	0004      	movs	r4, r0
 80035c2:	0020      	movs	r0, r4
 80035c4:	bdfe      	pop	{r1, r2, r3, r4, r5, r6, r7, pc}
 80035c6:	2a00      	cmp	r2, #0
 80035c8:	d103      	bne.n	80035d2 <_realloc_r+0x24>
 80035ca:	f7ff fb01 	bl	8002bd0 <_free_r>
 80035ce:	002c      	movs	r4, r5
 80035d0:	e7f7      	b.n	80035c2 <_realloc_r+0x14>
 80035d2:	f000 fa49 	bl	8003a68 <_malloc_usable_size_r>
 80035d6:	0007      	movs	r7, r0
 80035d8:	4285      	cmp	r5, r0
 80035da:	d802      	bhi.n	80035e2 <_realloc_r+0x34>
 80035dc:	0843      	lsrs	r3, r0, #1
 80035de:	42ab      	cmp	r3, r5
 80035e0:	d3ef      	bcc.n	80035c2 <_realloc_r+0x14>
 80035e2:	0029      	movs	r1, r5
 80035e4:	0030      	movs	r0, r6
 80035e6:	f7ff fb69 	bl	8002cbc <_malloc_r>
 80035ea:	9001      	str	r0, [sp, #4]
 80035ec:	2800      	cmp	r0, #0
 80035ee:	d101      	bne.n	80035f4 <_realloc_r+0x46>
 80035f0:	9c01      	ldr	r4, [sp, #4]
 80035f2:	e7e6      	b.n	80035c2 <_realloc_r+0x14>
 80035f4:	002a      	movs	r2, r5
 80035f6:	42bd      	cmp	r5, r7
 80035f8:	d900      	bls.n	80035fc <_realloc_r+0x4e>
 80035fa:	003a      	movs	r2, r7
 80035fc:	0021      	movs	r1, r4
 80035fe:	9801      	ldr	r0, [sp, #4]
 8003600:	f7ff ffc5 	bl	800358e <memcpy>
 8003604:	0021      	movs	r1, r4
 8003606:	0030      	movs	r0, r6
 8003608:	f7ff fae2 	bl	8002bd0 <_free_r>
 800360c:	e7f0      	b.n	80035f0 <_realloc_r+0x42>

0800360e <__sfputc_r>:
 800360e:	6893      	ldr	r3, [r2, #8]
 8003610:	b510      	push	{r4, lr}
 8003612:	3b01      	subs	r3, #1
 8003614:	6093      	str	r3, [r2, #8]
 8003616:	2b00      	cmp	r3, #0
 8003618:	da04      	bge.n	8003624 <__sfputc_r+0x16>
 800361a:	6994      	ldr	r4, [r2, #24]
 800361c:	42a3      	cmp	r3, r4
 800361e:	db07      	blt.n	8003630 <__sfputc_r+0x22>
 8003620:	290a      	cmp	r1, #10
 8003622:	d005      	beq.n	8003630 <__sfputc_r+0x22>
 8003624:	6813      	ldr	r3, [r2, #0]
 8003626:	1c58      	adds	r0, r3, #1
 8003628:	6010      	str	r0, [r2, #0]
 800362a:	7019      	strb	r1, [r3, #0]
 800362c:	0008      	movs	r0, r1
 800362e:	bd10      	pop	{r4, pc}
 8003630:	f000 f934 	bl	800389c <__swbuf_r>
 8003634:	0001      	movs	r1, r0
 8003636:	e7f9      	b.n	800362c <__sfputc_r+0x1e>

08003638 <__sfputs_r>:
 8003638:	b5f8      	push	{r3, r4, r5, r6, r7, lr}
 800363a:	0006      	movs	r6, r0
 800363c:	000f      	movs	r7, r1
 800363e:	0014      	movs	r4, r2
 8003640:	18d5      	adds	r5, r2, r3
 8003642:	42ac      	cmp	r4, r5
 8003644:	d101      	bne.n	800364a <__sfputs_r+0x12>
 8003646:	2000      	movs	r0, #0
 8003648:	e007      	b.n	800365a <__sfputs_r+0x22>
 800364a:	7821      	ldrb	r1, [r4, #0]
 800364c:	003a      	movs	r2, r7
 800364e:	0030      	movs	r0, r6
 8003650:	f7ff ffdd 	bl	800360e <__sfputc_r>
 8003654:	3401      	adds	r4, #1
 8003656:	1c43      	adds	r3, r0, #1
 8003658:	d1f3      	bne.n	8003642 <__sfputs_r+0xa>
 800365a:	bdf8      	pop	{r3, r4, r5, r6, r7, pc}

0800365c <_vfiprintf_r>:
 800365c:	b5f0      	push	{r4, r5, r6, r7, lr}
 800365e:	b09f      	sub	sp, #124	@ 0x7c
 8003660:	000d      	movs	r5, r1
 8003662:	0016      	movs	r6, r2
 8003664:	001c      	movs	r4, r3
 8003666:	9002      	str	r0, [sp, #8]
 8003668:	2800      	cmp	r0, #0
 800366a:	d004      	beq.n	8003676 <_vfiprintf_r+0x1a>
 800366c:	6a03      	ldr	r3, [r0, #32]
 800366e:	2b00      	cmp	r3, #0
 8003670:	d101      	bne.n	8003676 <_vfiprintf_r+0x1a>
 8003672:	f7ff f969 	bl	8002948 <__sinit>
 8003676:	6e6b      	ldr	r3, [r5, #100]	@ 0x64
 8003678:	07db      	lsls	r3, r3, #31
 800367a:	d405      	bmi.n	8003688 <_vfiprintf_r+0x2c>
 800367c:	89ab      	ldrh	r3, [r5, #12]
 800367e:	059b      	lsls	r3, r3, #22
 8003680:	d402      	bmi.n	8003688 <_vfiprintf_r+0x2c>
 8003682:	6da8      	ldr	r0, [r5, #88]	@ 0x58
 8003684:	f7ff fa83 	bl	8002b8e <__retarget_lock_acquire_recursive>
 8003688:	89ab      	ldrh	r3, [r5, #12]
 800368a:	071b      	lsls	r3, r3, #28
 800368c:	d502      	bpl.n	8003694 <_vfiprintf_r+0x38>
 800368e:	692b      	ldr	r3, [r5, #16]
 8003690:	2b00      	cmp	r3, #0
 8003692:	d113      	bne.n	80036bc <_vfiprintf_r+0x60>
 8003694:	0029      	movs	r1, r5
 8003696:	9802      	ldr	r0, [sp, #8]
 8003698:	f000 f942 	bl	8003920 <__swsetup_r>
 800369c:	2800      	cmp	r0, #0
 800369e:	d00d      	beq.n	80036bc <_vfiprintf_r+0x60>
 80036a0:	6e6b      	ldr	r3, [r5, #100]	@ 0x64
 80036a2:	07db      	lsls	r3, r3, #31
 80036a4:	d503      	bpl.n	80036ae <_vfiprintf_r+0x52>
 80036a6:	2001      	movs	r0, #1
 80036a8:	4240      	negs	r0, r0
 80036aa:	b01f      	add	sp, #124	@ 0x7c
 80036ac:	bdf0      	pop	{r4, r5, r6, r7, pc}
 80036ae:	89ab      	ldrh	r3, [r5, #12]
 80036b0:	059b      	lsls	r3, r3, #22
 80036b2:	d4f8      	bmi.n	80036a6 <_vfiprintf_r+0x4a>
 80036b4:	6da8      	ldr	r0, [r5, #88]	@ 0x58
 80036b6:	f7ff fa6b 	bl	8002b90 <__retarget_lock_release_recursive>
 80036ba:	e7f4      	b.n	80036a6 <_vfiprintf_r+0x4a>
 80036bc:	2300      	movs	r3, #0
 80036be:	2129      	movs	r1, #41	@ 0x29
 80036c0:	aa02      	add	r2, sp, #8
 80036c2:	1852      	adds	r2, r2, r1
 80036c4:	930b      	str	r3, [sp, #44]	@ 0x2c
 80036c6:	3320      	adds	r3, #32
 80036c8:	7013      	strb	r3, [r2, #0]
 80036ca:	3101      	adds	r1, #1
 80036cc:	aa02      	add	r2, sp, #8
 80036ce:	3310      	adds	r3, #16
 80036d0:	1852      	adds	r2, r2, r1
 80036d2:	7013      	strb	r3, [r2, #0]
 80036d4:	9405      	str	r4, [sp, #20]
 80036d6:	0034      	movs	r4, r6
 80036d8:	7823      	ldrb	r3, [r4, #0]
 80036da:	2b00      	cmp	r3, #0
 80036dc:	d001      	beq.n	80036e2 <_vfiprintf_r+0x86>
 80036de:	2b25      	cmp	r3, #37	@ 0x25
 80036e0:	d148      	bne.n	8003774 <_vfiprintf_r+0x118>
 80036e2:	1ba7      	subs	r7, r4, r6
 80036e4:	42b4      	cmp	r4, r6
 80036e6:	d00b      	beq.n	8003700 <_vfiprintf_r+0xa4>
 80036e8:	003b      	movs	r3, r7
 80036ea:	0032      	movs	r2, r6
 80036ec:	0029      	movs	r1, r5
 80036ee:	9802      	ldr	r0, [sp, #8]
 80036f0:	f7ff ffa2 	bl	8003638 <__sfputs_r>
 80036f4:	3001      	adds	r0, #1
 80036f6:	d100      	bne.n	80036fa <_vfiprintf_r+0x9e>
 80036f8:	e0ae      	b.n	8003858 <_vfiprintf_r+0x1fc>
 80036fa:	9b0b      	ldr	r3, [sp, #44]	@ 0x2c
 80036fc:	19db      	adds	r3, r3, r7
 80036fe:	930b      	str	r3, [sp, #44]	@ 0x2c
 8003700:	7823      	ldrb	r3, [r4, #0]
 8003702:	2b00      	cmp	r3, #0
 8003704:	d100      	bne.n	8003708 <_vfiprintf_r+0xac>
 8003706:	e0a7      	b.n	8003858 <_vfiprintf_r+0x1fc>
 8003708:	2201      	movs	r2, #1
 800370a:	2153      	movs	r1, #83	@ 0x53
 800370c:	2300      	movs	r3, #0
 800370e:	4252      	negs	r2, r2
 8003710:	9207      	str	r2, [sp, #28]
 8003712:	aa02      	add	r2, sp, #8
 8003714:	1852      	adds	r2, r2, r1
 8003716:	1c66      	adds	r6, r4, #1
 8003718:	9306      	str	r3, [sp, #24]
 800371a:	9309      	str	r3, [sp, #36]	@ 0x24
 800371c:	9308      	str	r3, [sp, #32]
 800371e:	7013      	strb	r3, [r2, #0]
 8003720:	931c      	str	r3, [sp, #112]	@ 0x70
 8003722:	4f59      	ldr	r7, [pc, #356]	@ (8003888 <_vfiprintf_r+0x22c>)
 8003724:	7831      	ldrb	r1, [r6, #0]
 8003726:	2205      	movs	r2, #5
 8003728:	0038      	movs	r0, r7
 800372a:	f7ff ff25 	bl	8003578 <memchr>
 800372e:	1c74      	adds	r4, r6, #1
 8003730:	9906      	ldr	r1, [sp, #24]
 8003732:	ab06      	add	r3, sp, #24
 8003734:	2800      	cmp	r0, #0
 8003736:	d11f      	bne.n	8003778 <_vfiprintf_r+0x11c>
 8003738:	06ca      	lsls	r2, r1, #27
 800373a:	d504      	bpl.n	8003746 <_vfiprintf_r+0xea>
 800373c:	2753      	movs	r7, #83	@ 0x53
 800373e:	2220      	movs	r2, #32
 8003740:	a802      	add	r0, sp, #8
 8003742:	19c0      	adds	r0, r0, r7
 8003744:	7002      	strb	r2, [r0, #0]
 8003746:	070a      	lsls	r2, r1, #28
 8003748:	d504      	bpl.n	8003754 <_vfiprintf_r+0xf8>
 800374a:	2753      	movs	r7, #83	@ 0x53
 800374c:	222b      	movs	r2, #43	@ 0x2b
 800374e:	a802      	add	r0, sp, #8
 8003750:	19c0      	adds	r0, r0, r7
 8003752:	7002      	strb	r2, [r0, #0]
 8003754:	7832      	ldrb	r2, [r6, #0]
 8003756:	2a2a      	cmp	r2, #42	@ 0x2a
 8003758:	d015      	beq.n	8003786 <_vfiprintf_r+0x12a>
 800375a:	0034      	movs	r4, r6
 800375c:	2000      	movs	r0, #0
 800375e:	270a      	movs	r7, #10
 8003760:	68da      	ldr	r2, [r3, #12]
 8003762:	7821      	ldrb	r1, [r4, #0]
 8003764:	1c66      	adds	r6, r4, #1
 8003766:	3930      	subs	r1, #48	@ 0x30
 8003768:	2909      	cmp	r1, #9
 800376a:	d950      	bls.n	800380e <_vfiprintf_r+0x1b2>
 800376c:	2800      	cmp	r0, #0
 800376e:	d011      	beq.n	8003794 <_vfiprintf_r+0x138>
 8003770:	9209      	str	r2, [sp, #36]	@ 0x24
 8003772:	e00f      	b.n	8003794 <_vfiprintf_r+0x138>
 8003774:	3401      	adds	r4, #1
 8003776:	e7af      	b.n	80036d8 <_vfiprintf_r+0x7c>
 8003778:	2301      	movs	r3, #1
 800377a:	1bc0      	subs	r0, r0, r7
 800377c:	4083      	lsls	r3, r0
 800377e:	430b      	orrs	r3, r1
 8003780:	0026      	movs	r6, r4
 8003782:	9306      	str	r3, [sp, #24]
 8003784:	e7cd      	b.n	8003722 <_vfiprintf_r+0xc6>
 8003786:	9a05      	ldr	r2, [sp, #20]
 8003788:	1d10      	adds	r0, r2, #4
 800378a:	6812      	ldr	r2, [r2, #0]
 800378c:	9005      	str	r0, [sp, #20]
 800378e:	2a00      	cmp	r2, #0
 8003790:	db37      	blt.n	8003802 <_vfiprintf_r+0x1a6>
 8003792:	60da      	str	r2, [r3, #12]
 8003794:	7822      	ldrb	r2, [r4, #0]
 8003796:	2a2e      	cmp	r2, #46	@ 0x2e
 8003798:	d10c      	bne.n	80037b4 <_vfiprintf_r+0x158>
 800379a:	7862      	ldrb	r2, [r4, #1]
 800379c:	2a2a      	cmp	r2, #42	@ 0x2a
 800379e:	d13b      	bne.n	8003818 <_vfiprintf_r+0x1bc>
 80037a0:	9a05      	ldr	r2, [sp, #20]
 80037a2:	3402      	adds	r4, #2
 80037a4:	1d11      	adds	r1, r2, #4
 80037a6:	6812      	ldr	r2, [r2, #0]
 80037a8:	9105      	str	r1, [sp, #20]
 80037aa:	2a00      	cmp	r2, #0
 80037ac:	da01      	bge.n	80037b2 <_vfiprintf_r+0x156>
 80037ae:	2201      	movs	r2, #1
 80037b0:	4252      	negs	r2, r2
 80037b2:	605a      	str	r2, [r3, #4]
 80037b4:	4e35      	ldr	r6, [pc, #212]	@ (800388c <_vfiprintf_r+0x230>)
 80037b6:	2203      	movs	r2, #3
 80037b8:	0030      	movs	r0, r6
 80037ba:	7821      	ldrb	r1, [r4, #0]
 80037bc:	f7ff fedc 	bl	8003578 <memchr>
 80037c0:	af06      	add	r7, sp, #24
 80037c2:	2800      	cmp	r0, #0
 80037c4:	d006      	beq.n	80037d4 <_vfiprintf_r+0x178>
 80037c6:	2340      	movs	r3, #64	@ 0x40
 80037c8:	1b80      	subs	r0, r0, r6
 80037ca:	4083      	lsls	r3, r0
 80037cc:	9a06      	ldr	r2, [sp, #24]
 80037ce:	3401      	adds	r4, #1
 80037d0:	4313      	orrs	r3, r2
 80037d2:	9306      	str	r3, [sp, #24]
 80037d4:	7821      	ldrb	r1, [r4, #0]
 80037d6:	2206      	movs	r2, #6
 80037d8:	482d      	ldr	r0, [pc, #180]	@ (8003890 <_vfiprintf_r+0x234>)
 80037da:	1c66      	adds	r6, r4, #1
 80037dc:	7639      	strb	r1, [r7, #24]
 80037de:	f7ff fecb 	bl	8003578 <memchr>
 80037e2:	2800      	cmp	r0, #0
 80037e4:	d047      	beq.n	8003876 <_vfiprintf_r+0x21a>
 80037e6:	4b2b      	ldr	r3, [pc, #172]	@ (8003894 <_vfiprintf_r+0x238>)
 80037e8:	2b00      	cmp	r3, #0
 80037ea:	d129      	bne.n	8003840 <_vfiprintf_r+0x1e4>
 80037ec:	2207      	movs	r2, #7
 80037ee:	9b05      	ldr	r3, [sp, #20]
 80037f0:	3307      	adds	r3, #7
 80037f2:	4393      	bics	r3, r2
 80037f4:	3308      	adds	r3, #8
 80037f6:	9305      	str	r3, [sp, #20]
 80037f8:	9b0b      	ldr	r3, [sp, #44]	@ 0x2c
 80037fa:	9903      	ldr	r1, [sp, #12]
 80037fc:	185b      	adds	r3, r3, r1
 80037fe:	930b      	str	r3, [sp, #44]	@ 0x2c
 8003800:	e769      	b.n	80036d6 <_vfiprintf_r+0x7a>
 8003802:	4252      	negs	r2, r2
 8003804:	60da      	str	r2, [r3, #12]
 8003806:	2202      	movs	r2, #2
 8003808:	430a      	orrs	r2, r1
 800380a:	9206      	str	r2, [sp, #24]
 800380c:	e7c2      	b.n	8003794 <_vfiprintf_r+0x138>
 800380e:	437a      	muls	r2, r7
 8003810:	0034      	movs	r4, r6
 8003812:	2001      	movs	r0, #1
 8003814:	1852      	adds	r2, r2, r1
 8003816:	e7a4      	b.n	8003762 <_vfiprintf_r+0x106>
 8003818:	2200      	movs	r2, #0
 800381a:	200a      	movs	r0, #10
 800381c:	605a      	str	r2, [r3, #4]
 800381e:	0011      	movs	r1, r2
 8003820:	0013      	movs	r3, r2
 8003822:	3401      	adds	r4, #1
 8003824:	7822      	ldrb	r2, [r4, #0]
 8003826:	1c66      	adds	r6, r4, #1
 8003828:	3a30      	subs	r2, #48	@ 0x30
 800382a:	2a09      	cmp	r2, #9
 800382c:	d903      	bls.n	8003836 <_vfiprintf_r+0x1da>
 800382e:	2b00      	cmp	r3, #0
 8003830:	d0c0      	beq.n	80037b4 <_vfiprintf_r+0x158>
 8003832:	9107      	str	r1, [sp, #28]
 8003834:	e7be      	b.n	80037b4 <_vfiprintf_r+0x158>
 8003836:	4341      	muls	r1, r0
 8003838:	0034      	movs	r4, r6
 800383a:	2301      	movs	r3, #1
 800383c:	1889      	adds	r1, r1, r2
 800383e:	e7f1      	b.n	8003824 <_vfiprintf_r+0x1c8>
 8003840:	aa05      	add	r2, sp, #20
 8003842:	9200      	str	r2, [sp, #0]
 8003844:	0039      	movs	r1, r7
 8003846:	002a      	movs	r2, r5
 8003848:	4b13      	ldr	r3, [pc, #76]	@ (8003898 <_vfiprintf_r+0x23c>)
 800384a:	9802      	ldr	r0, [sp, #8]
 800384c:	e000      	b.n	8003850 <_vfiprintf_r+0x1f4>
 800384e:	bf00      	nop
 8003850:	9003      	str	r0, [sp, #12]
 8003852:	9b03      	ldr	r3, [sp, #12]
 8003854:	3301      	adds	r3, #1
 8003856:	d1cf      	bne.n	80037f8 <_vfiprintf_r+0x19c>
 8003858:	6e6b      	ldr	r3, [r5, #100]	@ 0x64
 800385a:	07db      	lsls	r3, r3, #31
 800385c:	d405      	bmi.n	800386a <_vfiprintf_r+0x20e>
 800385e:	89ab      	ldrh	r3, [r5, #12]
 8003860:	059b      	lsls	r3, r3, #22
 8003862:	d402      	bmi.n	800386a <_vfiprintf_r+0x20e>
 8003864:	6da8      	ldr	r0, [r5, #88]	@ 0x58
 8003866:	f7ff f993 	bl	8002b90 <__retarget_lock_release_recursive>
 800386a:	89ab      	ldrh	r3, [r5, #12]
 800386c:	065b      	lsls	r3, r3, #25
 800386e:	d500      	bpl.n	8003872 <_vfiprintf_r+0x216>
 8003870:	e719      	b.n	80036a6 <_vfiprintf_r+0x4a>
 8003872:	980b      	ldr	r0, [sp, #44]	@ 0x2c
 8003874:	e719      	b.n	80036aa <_vfiprintf_r+0x4e>
 8003876:	aa05      	add	r2, sp, #20
 8003878:	9200      	str	r2, [sp, #0]
 800387a:	0039      	movs	r1, r7
 800387c:	002a      	movs	r2, r5
 800387e:	4b06      	ldr	r3, [pc, #24]	@ (8003898 <_vfiprintf_r+0x23c>)
 8003880:	9802      	ldr	r0, [sp, #8]
 8003882:	f7ff fc83 	bl	800318c <_printf_i>
 8003886:	e7e3      	b.n	8003850 <_vfiprintf_r+0x1f4>
 8003888:	08003fa9 	.word	0x08003fa9
 800388c:	08003faf 	.word	0x08003faf
 8003890:	08003fb3 	.word	0x08003fb3
 8003894:	00000000 	.word	0x00000000
 8003898:	08003639 	.word	0x08003639

0800389c <__swbuf_r>:
 800389c:	b5f8      	push	{r3, r4, r5, r6, r7, lr}
 800389e:	0006      	movs	r6, r0
 80038a0:	000d      	movs	r5, r1
 80038a2:	0014      	movs	r4, r2
 80038a4:	2800      	cmp	r0, #0
 80038a6:	d004      	beq.n	80038b2 <__swbuf_r+0x16>
 80038a8:	6a03      	ldr	r3, [r0, #32]
 80038aa:	2b00      	cmp	r3, #0
 80038ac:	d101      	bne.n	80038b2 <__swbuf_r+0x16>
 80038ae:	f7ff f84b 	bl	8002948 <__sinit>
 80038b2:	69a3      	ldr	r3, [r4, #24]
 80038b4:	60a3      	str	r3, [r4, #8]
 80038b6:	89a3      	ldrh	r3, [r4, #12]
 80038b8:	071b      	lsls	r3, r3, #28
 80038ba:	d502      	bpl.n	80038c2 <__swbuf_r+0x26>
 80038bc:	6923      	ldr	r3, [r4, #16]
 80038be:	2b00      	cmp	r3, #0
 80038c0:	d109      	bne.n	80038d6 <__swbuf_r+0x3a>
 80038c2:	0021      	movs	r1, r4
 80038c4:	0030      	movs	r0, r6
 80038c6:	f000 f82b 	bl	8003920 <__swsetup_r>
 80038ca:	2800      	cmp	r0, #0
 80038cc:	d003      	beq.n	80038d6 <__swbuf_r+0x3a>
 80038ce:	2501      	movs	r5, #1
 80038d0:	426d      	negs	r5, r5
 80038d2:	0028      	movs	r0, r5
 80038d4:	bdf8      	pop	{r3, r4, r5, r6, r7, pc}
 80038d6:	6923      	ldr	r3, [r4, #16]
 80038d8:	6820      	ldr	r0, [r4, #0]
 80038da:	b2ef      	uxtb	r7, r5
 80038dc:	1ac0      	subs	r0, r0, r3
 80038de:	6963      	ldr	r3, [r4, #20]
 80038e0:	b2ed      	uxtb	r5, r5
 80038e2:	4283      	cmp	r3, r0
 80038e4:	dc05      	bgt.n	80038f2 <__swbuf_r+0x56>
 80038e6:	0021      	movs	r1, r4
 80038e8:	0030      	movs	r0, r6
 80038ea:	f7ff fde5 	bl	80034b8 <_fflush_r>
 80038ee:	2800      	cmp	r0, #0
 80038f0:	d1ed      	bne.n	80038ce <__swbuf_r+0x32>
 80038f2:	68a3      	ldr	r3, [r4, #8]
 80038f4:	3001      	adds	r0, #1
 80038f6:	3b01      	subs	r3, #1
 80038f8:	60a3      	str	r3, [r4, #8]
 80038fa:	6823      	ldr	r3, [r4, #0]
 80038fc:	1c5a      	adds	r2, r3, #1
 80038fe:	6022      	str	r2, [r4, #0]
 8003900:	701f      	strb	r7, [r3, #0]
 8003902:	6963      	ldr	r3, [r4, #20]
 8003904:	4283      	cmp	r3, r0
 8003906:	d004      	beq.n	8003912 <__swbuf_r+0x76>
 8003908:	89a3      	ldrh	r3, [r4, #12]
 800390a:	07db      	lsls	r3, r3, #31
 800390c:	d5e1      	bpl.n	80038d2 <__swbuf_r+0x36>
 800390e:	2d0a      	cmp	r5, #10
 8003910:	d1df      	bne.n	80038d2 <__swbuf_r+0x36>
 8003912:	0021      	movs	r1, r4
 8003914:	0030      	movs	r0, r6
 8003916:	f7ff fdcf 	bl	80034b8 <_fflush_r>
 800391a:	2800      	cmp	r0, #0
 800391c:	d0d9      	beq.n	80038d2 <__swbuf_r+0x36>
 800391e:	e7d6      	b.n	80038ce <__swbuf_r+0x32>

08003920 <__swsetup_r>:
 8003920:	4b2b      	ldr	r3, [pc, #172]	@ (80039d0 <__swsetup_r+0xb0>)
 8003922:	b570      	push	{r4, r5, r6, lr}
 8003924:	0005      	movs	r5, r0
 8003926:	6818      	ldr	r0, [r3, #0]
 8003928:	000c      	movs	r4, r1
 800392a:	2800      	cmp	r0, #0
 800392c:	d004      	beq.n	8003938 <__swsetup_r+0x18>
 800392e:	6a03      	ldr	r3, [r0, #32]
 8003930:	2b00      	cmp	r3, #0
 8003932:	d101      	bne.n	8003938 <__swsetup_r+0x18>
 8003934:	f7ff f808 	bl	8002948 <__sinit>
 8003938:	220c      	movs	r2, #12
 800393a:	5ea3      	ldrsh	r3, [r4, r2]
 800393c:	071a      	lsls	r2, r3, #28
 800393e:	d422      	bmi.n	8003986 <__swsetup_r+0x66>
 8003940:	06da      	lsls	r2, r3, #27
 8003942:	d407      	bmi.n	8003954 <__swsetup_r+0x34>
 8003944:	2209      	movs	r2, #9
 8003946:	602a      	str	r2, [r5, #0]
 8003948:	3237      	adds	r2, #55	@ 0x37
 800394a:	2001      	movs	r0, #1
 800394c:	4313      	orrs	r3, r2
 800394e:	81a3      	strh	r3, [r4, #12]
 8003950:	4240      	negs	r0, r0
 8003952:	bd70      	pop	{r4, r5, r6, pc}
 8003954:	075a      	lsls	r2, r3, #29
 8003956:	d513      	bpl.n	8003980 <__swsetup_r+0x60>
 8003958:	6b61      	ldr	r1, [r4, #52]	@ 0x34
 800395a:	2900      	cmp	r1, #0
 800395c:	d008      	beq.n	8003970 <__swsetup_r+0x50>
 800395e:	0023      	movs	r3, r4
 8003960:	3344      	adds	r3, #68	@ 0x44
 8003962:	4299      	cmp	r1, r3
 8003964:	d002      	beq.n	800396c <__swsetup_r+0x4c>
 8003966:	0028      	movs	r0, r5
 8003968:	f7ff f932 	bl	8002bd0 <_free_r>
 800396c:	2300      	movs	r3, #0
 800396e:	6363      	str	r3, [r4, #52]	@ 0x34
 8003970:	2224      	movs	r2, #36	@ 0x24
 8003972:	89a3      	ldrh	r3, [r4, #12]
 8003974:	4393      	bics	r3, r2
 8003976:	2200      	movs	r2, #0
 8003978:	6062      	str	r2, [r4, #4]
 800397a:	6922      	ldr	r2, [r4, #16]
 800397c:	b21b      	sxth	r3, r3
 800397e:	6022      	str	r2, [r4, #0]
 8003980:	2208      	movs	r2, #8
 8003982:	4313      	orrs	r3, r2
 8003984:	81a3      	strh	r3, [r4, #12]
 8003986:	6922      	ldr	r2, [r4, #16]
 8003988:	2a00      	cmp	r2, #0
 800398a:	d107      	bne.n	800399c <__swsetup_r+0x7c>
 800398c:	059a      	lsls	r2, r3, #22
 800398e:	d501      	bpl.n	8003994 <__swsetup_r+0x74>
 8003990:	061b      	lsls	r3, r3, #24
 8003992:	d503      	bpl.n	800399c <__swsetup_r+0x7c>
 8003994:	0021      	movs	r1, r4
 8003996:	0028      	movs	r0, r5
 8003998:	f000 f898 	bl	8003acc <__smakebuf_r>
 800399c:	230c      	movs	r3, #12
 800399e:	5ee2      	ldrsh	r2, [r4, r3]
 80039a0:	2101      	movs	r1, #1
 80039a2:	0013      	movs	r3, r2
 80039a4:	400b      	ands	r3, r1
 80039a6:	420a      	tst	r2, r1
 80039a8:	d00c      	beq.n	80039c4 <__swsetup_r+0xa4>
 80039aa:	2300      	movs	r3, #0
 80039ac:	60a3      	str	r3, [r4, #8]
 80039ae:	6963      	ldr	r3, [r4, #20]
 80039b0:	425b      	negs	r3, r3
 80039b2:	61a3      	str	r3, [r4, #24]
 80039b4:	2000      	movs	r0, #0
 80039b6:	6923      	ldr	r3, [r4, #16]
 80039b8:	4283      	cmp	r3, r0
 80039ba:	d1ca      	bne.n	8003952 <__swsetup_r+0x32>
 80039bc:	0613      	lsls	r3, r2, #24
 80039be:	d5c8      	bpl.n	8003952 <__swsetup_r+0x32>
 80039c0:	2340      	movs	r3, #64	@ 0x40
 80039c2:	e7c2      	b.n	800394a <__swsetup_r+0x2a>
 80039c4:	0791      	lsls	r1, r2, #30
 80039c6:	d400      	bmi.n	80039ca <__swsetup_r+0xaa>
 80039c8:	6963      	ldr	r3, [r4, #20]
 80039ca:	60a3      	str	r3, [r4, #8]
 80039cc:	e7f2      	b.n	80039b4 <__swsetup_r+0x94>
 80039ce:	46c0      	nop			@ (mov r8, r8)
 80039d0:	20000018 	.word	0x20000018

080039d4 <_raise_r>:
 80039d4:	b570      	push	{r4, r5, r6, lr}
 80039d6:	0004      	movs	r4, r0
 80039d8:	000d      	movs	r5, r1
 80039da:	291f      	cmp	r1, #31
 80039dc:	d904      	bls.n	80039e8 <_raise_r+0x14>
 80039de:	2316      	movs	r3, #22
 80039e0:	6003      	str	r3, [r0, #0]
 80039e2:	2001      	movs	r0, #1
 80039e4:	4240      	negs	r0, r0
 80039e6:	bd70      	pop	{r4, r5, r6, pc}
 80039e8:	6bc3      	ldr	r3, [r0, #60]	@ 0x3c
 80039ea:	2b00      	cmp	r3, #0
 80039ec:	d004      	beq.n	80039f8 <_raise_r+0x24>
 80039ee:	008a      	lsls	r2, r1, #2
 80039f0:	189b      	adds	r3, r3, r2
 80039f2:	681a      	ldr	r2, [r3, #0]
 80039f4:	2a00      	cmp	r2, #0
 80039f6:	d108      	bne.n	8003a0a <_raise_r+0x36>
 80039f8:	0020      	movs	r0, r4
 80039fa:	f000 f831 	bl	8003a60 <_getpid_r>
 80039fe:	002a      	movs	r2, r5
 8003a00:	0001      	movs	r1, r0
 8003a02:	0020      	movs	r0, r4
 8003a04:	f000 f81a 	bl	8003a3c <_kill_r>
 8003a08:	e7ed      	b.n	80039e6 <_raise_r+0x12>
 8003a0a:	2a01      	cmp	r2, #1
 8003a0c:	d009      	beq.n	8003a22 <_raise_r+0x4e>
 8003a0e:	1c51      	adds	r1, r2, #1
 8003a10:	d103      	bne.n	8003a1a <_raise_r+0x46>
 8003a12:	2316      	movs	r3, #22
 8003a14:	6003      	str	r3, [r0, #0]
 8003a16:	2001      	movs	r0, #1
 8003a18:	e7e5      	b.n	80039e6 <_raise_r+0x12>
 8003a1a:	2100      	movs	r1, #0
 8003a1c:	0028      	movs	r0, r5
 8003a1e:	6019      	str	r1, [r3, #0]
 8003a20:	4790      	blx	r2
 8003a22:	2000      	movs	r0, #0
 8003a24:	e7df      	b.n	80039e6 <_raise_r+0x12>
	...

08003a28 <raise>:
 8003a28:	b510      	push	{r4, lr}
 8003a2a:	4b03      	ldr	r3, [pc, #12]	@ (8003a38 <raise+0x10>)
 8003a2c:	0001      	movs	r1, r0
 8003a2e:	6818      	ldr	r0, [r3, #0]
 8003a30:	f7ff ffd0 	bl	80039d4 <_raise_r>
 8003a34:	bd10      	pop	{r4, pc}
 8003a36:	46c0      	nop			@ (mov r8, r8)
 8003a38:	20000018 	.word	0x20000018

08003a3c <_kill_r>:
 8003a3c:	2300      	movs	r3, #0
 8003a3e:	b570      	push	{r4, r5, r6, lr}
 8003a40:	4d06      	ldr	r5, [pc, #24]	@ (8003a5c <_kill_r+0x20>)
 8003a42:	0004      	movs	r4, r0
 8003a44:	0008      	movs	r0, r1
 8003a46:	0011      	movs	r1, r2
 8003a48:	602b      	str	r3, [r5, #0]
 8003a4a:	f7fe fe23 	bl	8002694 <_kill>
 8003a4e:	1c43      	adds	r3, r0, #1
 8003a50:	d103      	bne.n	8003a5a <_kill_r+0x1e>
 8003a52:	682b      	ldr	r3, [r5, #0]
 8003a54:	2b00      	cmp	r3, #0
 8003a56:	d000      	beq.n	8003a5a <_kill_r+0x1e>
 8003a58:	6023      	str	r3, [r4, #0]
 8003a5a:	bd70      	pop	{r4, r5, r6, pc}
 8003a5c:	20000590 	.word	0x20000590

08003a60 <_getpid_r>:
 8003a60:	b510      	push	{r4, lr}
 8003a62:	f7fe fe15 	bl	8002690 <_getpid>
 8003a66:	bd10      	pop	{r4, pc}

08003a68 <_malloc_usable_size_r>:
 8003a68:	1f0b      	subs	r3, r1, #4
 8003a6a:	681b      	ldr	r3, [r3, #0]
 8003a6c:	1f18      	subs	r0, r3, #4
 8003a6e:	2b00      	cmp	r3, #0
 8003a70:	da01      	bge.n	8003a76 <_malloc_usable_size_r+0xe>
 8003a72:	580b      	ldr	r3, [r1, r0]
 8003a74:	18c0      	adds	r0, r0, r3
 8003a76:	4770      	bx	lr

08003a78 <__swhatbuf_r>:
 8003a78:	b5f0      	push	{r4, r5, r6, r7, lr}
 8003a7a:	000e      	movs	r6, r1
 8003a7c:	001d      	movs	r5, r3
 8003a7e:	230e      	movs	r3, #14
 8003a80:	5ec9      	ldrsh	r1, [r1, r3]
 8003a82:	0014      	movs	r4, r2
 8003a84:	b097      	sub	sp, #92	@ 0x5c
 8003a86:	2900      	cmp	r1, #0
 8003a88:	da0c      	bge.n	8003aa4 <__swhatbuf_r+0x2c>
 8003a8a:	89b2      	ldrh	r2, [r6, #12]
 8003a8c:	2380      	movs	r3, #128	@ 0x80
 8003a8e:	0011      	movs	r1, r2
 8003a90:	4019      	ands	r1, r3
 8003a92:	421a      	tst	r2, r3
 8003a94:	d114      	bne.n	8003ac0 <__swhatbuf_r+0x48>
 8003a96:	2380      	movs	r3, #128	@ 0x80
 8003a98:	00db      	lsls	r3, r3, #3
 8003a9a:	2000      	movs	r0, #0
 8003a9c:	6029      	str	r1, [r5, #0]
 8003a9e:	6023      	str	r3, [r4, #0]
 8003aa0:	b017      	add	sp, #92	@ 0x5c
 8003aa2:	bdf0      	pop	{r4, r5, r6, r7, pc}
 8003aa4:	466a      	mov	r2, sp
 8003aa6:	f000 f84b 	bl	8003b40 <_fstat_r>
 8003aaa:	2800      	cmp	r0, #0
 8003aac:	dbed      	blt.n	8003a8a <__swhatbuf_r+0x12>
 8003aae:	23f0      	movs	r3, #240	@ 0xf0
 8003ab0:	9901      	ldr	r1, [sp, #4]
 8003ab2:	021b      	lsls	r3, r3, #8
 8003ab4:	4019      	ands	r1, r3
 8003ab6:	4b04      	ldr	r3, [pc, #16]	@ (8003ac8 <__swhatbuf_r+0x50>)
 8003ab8:	18c9      	adds	r1, r1, r3
 8003aba:	424b      	negs	r3, r1
 8003abc:	4159      	adcs	r1, r3
 8003abe:	e7ea      	b.n	8003a96 <__swhatbuf_r+0x1e>
 8003ac0:	2100      	movs	r1, #0
 8003ac2:	2340      	movs	r3, #64	@ 0x40
 8003ac4:	e7e9      	b.n	8003a9a <__swhatbuf_r+0x22>
 8003ac6:	46c0      	nop			@ (mov r8, r8)
 8003ac8:	ffffe000 	.word	0xffffe000

08003acc <__smakebuf_r>:
 8003acc:	b5f7      	push	{r0, r1, r2, r4, r5, r6, r7, lr}
 8003ace:	2602      	movs	r6, #2
 8003ad0:	898b      	ldrh	r3, [r1, #12]
 8003ad2:	0005      	movs	r5, r0
 8003ad4:	000c      	movs	r4, r1
 8003ad6:	4233      	tst	r3, r6
 8003ad8:	d006      	beq.n	8003ae8 <__smakebuf_r+0x1c>
 8003ada:	0023      	movs	r3, r4
 8003adc:	3347      	adds	r3, #71	@ 0x47
 8003ade:	6023      	str	r3, [r4, #0]
 8003ae0:	6123      	str	r3, [r4, #16]
 8003ae2:	2301      	movs	r3, #1
 8003ae4:	6163      	str	r3, [r4, #20]
 8003ae6:	bdf7      	pop	{r0, r1, r2, r4, r5, r6, r7, pc}
 8003ae8:	466a      	mov	r2, sp
 8003aea:	ab01      	add	r3, sp, #4
 8003aec:	f7ff ffc4 	bl	8003a78 <__swhatbuf_r>
 8003af0:	9f00      	ldr	r7, [sp, #0]
 8003af2:	0028      	movs	r0, r5
 8003af4:	0039      	movs	r1, r7
 8003af6:	f7ff f8e1 	bl	8002cbc <_malloc_r>
 8003afa:	220c      	movs	r2, #12
 8003afc:	5ea3      	ldrsh	r3, [r4, r2]
 8003afe:	2800      	cmp	r0, #0
 8003b00:	d106      	bne.n	8003b10 <__smakebuf_r+0x44>
 8003b02:	059a      	lsls	r2, r3, #22
 8003b04:	d4ef      	bmi.n	8003ae6 <__smakebuf_r+0x1a>
 8003b06:	2203      	movs	r2, #3
 8003b08:	4393      	bics	r3, r2
 8003b0a:	431e      	orrs	r6, r3
 8003b0c:	81a6      	strh	r6, [r4, #12]
 8003b0e:	e7e4      	b.n	8003ada <__smakebuf_r+0xe>
 8003b10:	2280      	movs	r2, #128	@ 0x80
 8003b12:	4313      	orrs	r3, r2
 8003b14:	81a3      	strh	r3, [r4, #12]
 8003b16:	9b01      	ldr	r3, [sp, #4]
 8003b18:	6020      	str	r0, [r4, #0]
 8003b1a:	6120      	str	r0, [r4, #16]
 8003b1c:	6167      	str	r7, [r4, #20]
 8003b1e:	2b00      	cmp	r3, #0
 8003b20:	d0e1      	beq.n	8003ae6 <__smakebuf_r+0x1a>
 8003b22:	0028      	movs	r0, r5
 8003b24:	230e      	movs	r3, #14
 8003b26:	5ee1      	ldrsh	r1, [r4, r3]
 8003b28:	f000 f81c 	bl	8003b64 <_isatty_r>
 8003b2c:	2800      	cmp	r0, #0
 8003b2e:	d0da      	beq.n	8003ae6 <__smakebuf_r+0x1a>
 8003b30:	2303      	movs	r3, #3
 8003b32:	89a2      	ldrh	r2, [r4, #12]
 8003b34:	439a      	bics	r2, r3
 8003b36:	3b02      	subs	r3, #2
 8003b38:	4313      	orrs	r3, r2
 8003b3a:	81a3      	strh	r3, [r4, #12]
 8003b3c:	e7d3      	b.n	8003ae6 <__smakebuf_r+0x1a>
	...

08003b40 <_fstat_r>:
 8003b40:	2300      	movs	r3, #0
 8003b42:	b570      	push	{r4, r5, r6, lr}
 8003b44:	4d06      	ldr	r5, [pc, #24]	@ (8003b60 <_fstat_r+0x20>)
 8003b46:	0004      	movs	r4, r0
 8003b48:	0008      	movs	r0, r1
 8003b4a:	0011      	movs	r1, r2
 8003b4c:	602b      	str	r3, [r5, #0]
 8003b4e:	f7fe fdce 	bl	80026ee <_fstat>
 8003b52:	1c43      	adds	r3, r0, #1
 8003b54:	d103      	bne.n	8003b5e <_fstat_r+0x1e>
 8003b56:	682b      	ldr	r3, [r5, #0]
 8003b58:	2b00      	cmp	r3, #0
 8003b5a:	d000      	beq.n	8003b5e <_fstat_r+0x1e>
 8003b5c:	6023      	str	r3, [r4, #0]
 8003b5e:	bd70      	pop	{r4, r5, r6, pc}
 8003b60:	20000590 	.word	0x20000590

08003b64 <_isatty_r>:
 8003b64:	2300      	movs	r3, #0
 8003b66:	b570      	push	{r4, r5, r6, lr}
 8003b68:	4d06      	ldr	r5, [pc, #24]	@ (8003b84 <_isatty_r+0x20>)
 8003b6a:	0004      	movs	r4, r0
 8003b6c:	0008      	movs	r0, r1
 8003b6e:	602b      	str	r3, [r5, #0]
 8003b70:	f7fe fdc2 	bl	80026f8 <_isatty>
 8003b74:	1c43      	adds	r3, r0, #1
 8003b76:	d103      	bne.n	8003b80 <_isatty_r+0x1c>
 8003b78:	682b      	ldr	r3, [r5, #0]
 8003b7a:	2b00      	cmp	r3, #0
 8003b7c:	d000      	beq.n	8003b80 <_isatty_r+0x1c>
 8003b7e:	6023      	str	r3, [r4, #0]
 8003b80:	bd70      	pop	{r4, r5, r6, pc}
 8003b82:	46c0      	nop			@ (mov r8, r8)
 8003b84:	20000590 	.word	0x20000590

08003b88 <__aeabi_lmul>:
 8003b88:	b5f0      	push	{r4, r5, r6, r7, lr}
 8003b8a:	46ce      	mov	lr, r9
 8003b8c:	4699      	mov	r9, r3
 8003b8e:	0c03      	lsrs	r3, r0, #16
 8003b90:	469c      	mov	ip, r3
 8003b92:	0413      	lsls	r3, r2, #16
 8003b94:	4647      	mov	r7, r8
 8003b96:	0c1b      	lsrs	r3, r3, #16
 8003b98:	001d      	movs	r5, r3
 8003b9a:	000e      	movs	r6, r1
 8003b9c:	4661      	mov	r1, ip
 8003b9e:	0404      	lsls	r4, r0, #16
 8003ba0:	0c24      	lsrs	r4, r4, #16
 8003ba2:	b580      	push	{r7, lr}
 8003ba4:	0007      	movs	r7, r0
 8003ba6:	0c10      	lsrs	r0, r2, #16
 8003ba8:	434b      	muls	r3, r1
 8003baa:	4365      	muls	r5, r4
 8003bac:	4341      	muls	r1, r0
 8003bae:	4360      	muls	r0, r4
 8003bb0:	0c2c      	lsrs	r4, r5, #16
 8003bb2:	18c0      	adds	r0, r0, r3
 8003bb4:	1824      	adds	r4, r4, r0
 8003bb6:	468c      	mov	ip, r1
 8003bb8:	42a3      	cmp	r3, r4
 8003bba:	d903      	bls.n	8003bc4 <__aeabi_lmul+0x3c>
 8003bbc:	2380      	movs	r3, #128	@ 0x80
 8003bbe:	025b      	lsls	r3, r3, #9
 8003bc0:	4698      	mov	r8, r3
 8003bc2:	44c4      	add	ip, r8
 8003bc4:	4649      	mov	r1, r9
 8003bc6:	4379      	muls	r1, r7
 8003bc8:	4356      	muls	r6, r2
 8003bca:	0c23      	lsrs	r3, r4, #16
 8003bcc:	042d      	lsls	r5, r5, #16
 8003bce:	0c2d      	lsrs	r5, r5, #16
 8003bd0:	1989      	adds	r1, r1, r6
 8003bd2:	4463      	add	r3, ip
 8003bd4:	0424      	lsls	r4, r4, #16
 8003bd6:	1960      	adds	r0, r4, r5
 8003bd8:	18c9      	adds	r1, r1, r3
 8003bda:	bcc0      	pop	{r6, r7}
 8003bdc:	46b9      	mov	r9, r7
 8003bde:	46b0      	mov	r8, r6
 8003be0:	bdf0      	pop	{r4, r5, r6, r7, pc}
 8003be2:	46c0      	nop			@ (mov r8, r8)

08003be4 <__udivmoddi4>:
 8003be4:	b5f0      	push	{r4, r5, r6, r7, lr}
 8003be6:	4657      	mov	r7, sl
 8003be8:	464e      	mov	r6, r9
 8003bea:	4645      	mov	r5, r8
 8003bec:	46de      	mov	lr, fp
 8003bee:	b5e0      	push	{r5, r6, r7, lr}
 8003bf0:	0004      	movs	r4, r0
 8003bf2:	000d      	movs	r5, r1
 8003bf4:	4692      	mov	sl, r2
 8003bf6:	4699      	mov	r9, r3
 8003bf8:	b083      	sub	sp, #12
 8003bfa:	428b      	cmp	r3, r1
 8003bfc:	d830      	bhi.n	8003c60 <__udivmoddi4+0x7c>
 8003bfe:	d02d      	beq.n	8003c5c <__udivmoddi4+0x78>
 8003c00:	4649      	mov	r1, r9
 8003c02:	4650      	mov	r0, sl
 8003c04:	f7fc fc04 	bl	8000410 <__clzdi2>
 8003c08:	0029      	movs	r1, r5
 8003c0a:	0006      	movs	r6, r0
 8003c0c:	0020      	movs	r0, r4
 8003c0e:	f7fc fbff 	bl	8000410 <__clzdi2>
 8003c12:	1a33      	subs	r3, r6, r0
 8003c14:	4698      	mov	r8, r3
 8003c16:	3b20      	subs	r3, #32
 8003c18:	d434      	bmi.n	8003c84 <__udivmoddi4+0xa0>
 8003c1a:	469b      	mov	fp, r3
 8003c1c:	4653      	mov	r3, sl
 8003c1e:	465a      	mov	r2, fp
 8003c20:	4093      	lsls	r3, r2
 8003c22:	4642      	mov	r2, r8
 8003c24:	001f      	movs	r7, r3
 8003c26:	4653      	mov	r3, sl
 8003c28:	4093      	lsls	r3, r2
 8003c2a:	001e      	movs	r6, r3
 8003c2c:	42af      	cmp	r7, r5
 8003c2e:	d83b      	bhi.n	8003ca8 <__udivmoddi4+0xc4>
 8003c30:	42af      	cmp	r7, r5
 8003c32:	d100      	bne.n	8003c36 <__udivmoddi4+0x52>
 8003c34:	e079      	b.n	8003d2a <__udivmoddi4+0x146>
 8003c36:	465b      	mov	r3, fp
 8003c38:	1ba4      	subs	r4, r4, r6
 8003c3a:	41bd      	sbcs	r5, r7
 8003c3c:	2b00      	cmp	r3, #0
 8003c3e:	da00      	bge.n	8003c42 <__udivmoddi4+0x5e>
 8003c40:	e076      	b.n	8003d30 <__udivmoddi4+0x14c>
 8003c42:	2200      	movs	r2, #0
 8003c44:	2300      	movs	r3, #0
 8003c46:	9200      	str	r2, [sp, #0]
 8003c48:	9301      	str	r3, [sp, #4]
 8003c4a:	2301      	movs	r3, #1
 8003c4c:	465a      	mov	r2, fp
 8003c4e:	4093      	lsls	r3, r2
 8003c50:	9301      	str	r3, [sp, #4]
 8003c52:	2301      	movs	r3, #1
 8003c54:	4642      	mov	r2, r8
 8003c56:	4093      	lsls	r3, r2
 8003c58:	9300      	str	r3, [sp, #0]
 8003c5a:	e029      	b.n	8003cb0 <__udivmoddi4+0xcc>
 8003c5c:	4282      	cmp	r2, r0
 8003c5e:	d9cf      	bls.n	8003c00 <__udivmoddi4+0x1c>
 8003c60:	2200      	movs	r2, #0
 8003c62:	2300      	movs	r3, #0
 8003c64:	9200      	str	r2, [sp, #0]
 8003c66:	9301      	str	r3, [sp, #4]
 8003c68:	9b0c      	ldr	r3, [sp, #48]	@ 0x30
 8003c6a:	2b00      	cmp	r3, #0
 8003c6c:	d001      	beq.n	8003c72 <__udivmoddi4+0x8e>
 8003c6e:	601c      	str	r4, [r3, #0]
 8003c70:	605d      	str	r5, [r3, #4]
 8003c72:	9800      	ldr	r0, [sp, #0]
 8003c74:	9901      	ldr	r1, [sp, #4]
 8003c76:	b003      	add	sp, #12
 8003c78:	bcf0      	pop	{r4, r5, r6, r7}
 8003c7a:	46bb      	mov	fp, r7
 8003c7c:	46b2      	mov	sl, r6
 8003c7e:	46a9      	mov	r9, r5
 8003c80:	46a0      	mov	r8, r4
 8003c82:	bdf0      	pop	{r4, r5, r6, r7, pc}
 8003c84:	4642      	mov	r2, r8
 8003c86:	469b      	mov	fp, r3
 8003c88:	2320      	movs	r3, #32
 8003c8a:	1a9b      	subs	r3, r3, r2
 8003c8c:	4652      	mov	r2, sl
 8003c8e:	40da      	lsrs	r2, r3
 8003c90:	4641      	mov	r1, r8
 8003c92:	0013      	movs	r3, r2
 8003c94:	464a      	mov	r2, r9
 8003c96:	408a      	lsls	r2, r1
 8003c98:	0017      	movs	r7, r2
 8003c9a:	4642      	mov	r2, r8
 8003c9c:	431f      	orrs	r7, r3
 8003c9e:	4653      	mov	r3, sl
 8003ca0:	4093      	lsls	r3, r2
 8003ca2:	001e      	movs	r6, r3
 8003ca4:	42af      	cmp	r7, r5
 8003ca6:	d9c3      	bls.n	8003c30 <__udivmoddi4+0x4c>
 8003ca8:	2200      	movs	r2, #0
 8003caa:	2300      	movs	r3, #0
 8003cac:	9200      	str	r2, [sp, #0]
 8003cae:	9301      	str	r3, [sp, #4]
 8003cb0:	4643      	mov	r3, r8
 8003cb2:	2b00      	cmp	r3, #0
 8003cb4:	d0d8      	beq.n	8003c68 <__udivmoddi4+0x84>
 8003cb6:	07fb      	lsls	r3, r7, #31
 8003cb8:	0872      	lsrs	r2, r6, #1
 8003cba:	431a      	orrs	r2, r3
 8003cbc:	4646      	mov	r6, r8
 8003cbe:	087b      	lsrs	r3, r7, #1
 8003cc0:	e00e      	b.n	8003ce0 <__udivmoddi4+0xfc>
 8003cc2:	42ab      	cmp	r3, r5
 8003cc4:	d101      	bne.n	8003cca <__udivmoddi4+0xe6>
 8003cc6:	42a2      	cmp	r2, r4
 8003cc8:	d80c      	bhi.n	8003ce4 <__udivmoddi4+0x100>
 8003cca:	1aa4      	subs	r4, r4, r2
 8003ccc:	419d      	sbcs	r5, r3
 8003cce:	2001      	movs	r0, #1
 8003cd0:	1924      	adds	r4, r4, r4
 8003cd2:	416d      	adcs	r5, r5
 8003cd4:	2100      	movs	r1, #0
 8003cd6:	3e01      	subs	r6, #1
 8003cd8:	1824      	adds	r4, r4, r0
 8003cda:	414d      	adcs	r5, r1
 8003cdc:	2e00      	cmp	r6, #0
 8003cde:	d006      	beq.n	8003cee <__udivmoddi4+0x10a>
 8003ce0:	42ab      	cmp	r3, r5
 8003ce2:	d9ee      	bls.n	8003cc2 <__udivmoddi4+0xde>
 8003ce4:	3e01      	subs	r6, #1
 8003ce6:	1924      	adds	r4, r4, r4
 8003ce8:	416d      	adcs	r5, r5
 8003cea:	2e00      	cmp	r6, #0
 8003cec:	d1f8      	bne.n	8003ce0 <__udivmoddi4+0xfc>
 8003cee:	9800      	ldr	r0, [sp, #0]
 8003cf0:	9901      	ldr	r1, [sp, #4]
 8003cf2:	465b      	mov	r3, fp
 8003cf4:	1900      	adds	r0, r0, r4
 8003cf6:	4169      	adcs	r1, r5
 8003cf8:	2b00      	cmp	r3, #0
 8003cfa:	db24      	blt.n	8003d46 <__udivmoddi4+0x162>
 8003cfc:	002b      	movs	r3, r5
 8003cfe:	465a      	mov	r2, fp
 8003d00:	4646      	mov	r6, r8
 8003d02:	40d3      	lsrs	r3, r2
 8003d04:	002a      	movs	r2, r5
 8003d06:	001c      	movs	r4, r3
 8003d08:	40f2      	lsrs	r2, r6
 8003d0a:	465b      	mov	r3, fp
 8003d0c:	0015      	movs	r5, r2
 8003d0e:	2b00      	cmp	r3, #0
 8003d10:	db2a      	blt.n	8003d68 <__udivmoddi4+0x184>
 8003d12:	0026      	movs	r6, r4
 8003d14:	409e      	lsls	r6, r3
 8003d16:	0033      	movs	r3, r6
 8003d18:	0026      	movs	r6, r4
 8003d1a:	4647      	mov	r7, r8
 8003d1c:	40be      	lsls	r6, r7
 8003d1e:	0032      	movs	r2, r6
 8003d20:	1a80      	subs	r0, r0, r2
 8003d22:	4199      	sbcs	r1, r3
 8003d24:	9000      	str	r0, [sp, #0]
 8003d26:	9101      	str	r1, [sp, #4]
 8003d28:	e79e      	b.n	8003c68 <__udivmoddi4+0x84>
 8003d2a:	42a3      	cmp	r3, r4
 8003d2c:	d8bc      	bhi.n	8003ca8 <__udivmoddi4+0xc4>
 8003d2e:	e782      	b.n	8003c36 <__udivmoddi4+0x52>
 8003d30:	4642      	mov	r2, r8
 8003d32:	2320      	movs	r3, #32
 8003d34:	2100      	movs	r1, #0
 8003d36:	1a9b      	subs	r3, r3, r2
 8003d38:	2200      	movs	r2, #0
 8003d3a:	9100      	str	r1, [sp, #0]
 8003d3c:	9201      	str	r2, [sp, #4]
 8003d3e:	2201      	movs	r2, #1
 8003d40:	40da      	lsrs	r2, r3
 8003d42:	9201      	str	r2, [sp, #4]
 8003d44:	e785      	b.n	8003c52 <__udivmoddi4+0x6e>
 8003d46:	4642      	mov	r2, r8
 8003d48:	2320      	movs	r3, #32
 8003d4a:	1a9b      	subs	r3, r3, r2
 8003d4c:	002a      	movs	r2, r5
 8003d4e:	4646      	mov	r6, r8
 8003d50:	409a      	lsls	r2, r3
 8003d52:	0023      	movs	r3, r4
 8003d54:	40f3      	lsrs	r3, r6
 8003d56:	4646      	mov	r6, r8
 8003d58:	4313      	orrs	r3, r2
 8003d5a:	002a      	movs	r2, r5
 8003d5c:	001c      	movs	r4, r3
 8003d5e:	40f2      	lsrs	r2, r6
 8003d60:	465b      	mov	r3, fp
 8003d62:	0015      	movs	r5, r2
 8003d64:	2b00      	cmp	r3, #0
 8003d66:	dad4      	bge.n	8003d12 <__udivmoddi4+0x12e>
 8003d68:	2320      	movs	r3, #32
 8003d6a:	4642      	mov	r2, r8
 8003d6c:	002f      	movs	r7, r5
 8003d6e:	1b9b      	subs	r3, r3, r6
 8003d70:	4097      	lsls	r7, r2
 8003d72:	0026      	movs	r6, r4
 8003d74:	40de      	lsrs	r6, r3
 8003d76:	003b      	movs	r3, r7
 8003d78:	4333      	orrs	r3, r6
 8003d7a:	e7cd      	b.n	8003d18 <__udivmoddi4+0x134>

08003d7c <_init>:
 8003d7c:	b5f8      	push	{r3, r4, r5, r6, r7, lr}
 8003d7e:	46c0      	nop			@ (mov r8, r8)
 8003d80:	bcf8      	pop	{r3, r4, r5, r6, r7}
 8003d82:	bc08      	pop	{r3}
 8003d84:	469e      	mov	lr, r3
 8003d86:	4770      	bx	lr

08003d88 <_fini>:
 8003d88:	b5f8      	push	{r3, r4, r5, r6, r7, lr}
 8003d8a:	46c0      	nop			@ (mov r8, r8)
 8003d8c:	bcf8      	pop	{r3, r4, r5, r6, r7}
 8003d8e:	bc08      	pop	{r3}
 8003d90:	469e      	mov	lr, r3
 8003d92:	4770      	bx	lr
