
build/debug/SensorHall.elf:     file format elf32-littlearm

Sections:
Idx Name          Size      VMA       LMA       File off  Algn
  0 .isr_vector   000000c0  08000000  08000000  00001000  2**0
                  CONTENTS, ALLOC, LOAD, READONLY, DATA
  1 .text         00003ba8  080000c0  080000c0  000010c0  2**2
                  CONTENTS, ALLOC, LOAD, READONLY, CODE
  2 .rodata       000001fc  08003c68  08003c68  00004c68  2**2
                  CONTENTS, ALLOC, LOAD, READONLY, DATA
  3 .ARM.extab    00000000  08003e64  08003e64  00005068  2**0
                  CONTENTS, READONLY
  4 .ARM          00000008  08003e64  08003e64  00004e64  2**2
                  CONTENTS, ALLOC, LOAD, READONLY, DATA
  5 .preinit_array 00000000  08003e6c  08003e6c  00005068  2**0
                  CONTENTS, ALLOC, LOAD, DATA
  6 .init_array   00000004  08003e6c  08003e6c  00004e6c  2**2
                  CONTENTS, ALLOC, LOAD, READONLY, DATA
  7 .fini_array   00000004  08003e70  08003e70  00004e70  2**2
                  CONTENTS, ALLOC, LOAD, READONLY, DATA
  8 .data         00000068  20000000  08003e74  00005000  2**2
                  CONTENTS, ALLOC, LOAD, DATA
  9 .bss          0000052c  20000068  08003edc  00005068  2**3
                  ALLOC
 10 ._user_heap_stack 00000604  20000594  08003edc  00005594  2**0
                  ALLOC
 11 .ARM.attributes 00000028  00000000  00000000  00005068  2**0
                  CONTENTS, READONLY
 12 .comment      00000039  00000000  00000000  00005090  2**0
                  CONTENTS, READONLY
 13 .debug_info   0000fe1f  00000000  00000000  000050c9  2**0
                  CONTENTS, READONLY, DEBUGGING, OCTETS
 14 .debug_abbrev 000023f9  00000000  00000000  00014ee8  2**0
                  CONTENTS, READONLY, DEBUGGING, OCTETS
 15 .debug_loclists 00005d42  00000000  00000000  000172e1  2**0
                  CONTENTS, READONLY, DEBUGGING, OCTETS
 16 .debug_aranges 00000a10  00000000  00000000  0001d028  2**3
                  CONTENTS, READONLY, DEBUGGING, OCTETS
 17 .debug_rnglists 0000083f  00000000  00000000  0001da38  2**0
                  CONTENTS, READONLY, DEBUGGING, OCTETS
 18 .debug_line   0000be40  00000000  00000000  0001e277  2**0
                  CONTENTS, READONLY, DEBUGGING, OCTETS
 19 .debug_str    00003b82  00000000  00000000  0002a0b7  2**0
                  CONTENTS, READONLY, DEBUGGING, OCTETS
 20 .debug_frame  00001694  00000000  00000000  0002dc3c  2**2
                  CONTENTS, READONLY, DEBUGGING, OCTETS
 21 .debug_line_str 00000197  00000000  00000000  0002f2d0  2**0
                  CONTENTS, READONLY, DEBUGGING, OCTETS

Disassembly of section .text:

080000c0 <strlen>:
 80000c0:	2300      	movs	r3, #0
 80000c2:	5cc2      	ldrb	r2, [r0, r3]
 80000c4:	3301      	adds	r3, #1
 80000c6:	2a00      	cmp	r2, #0
 80000c8:	d1fb      	bne.n	80000c2 <strlen+0x2>
 80000ca:	1e58      	subs	r0, r3, #1
 80000cc:	4770      	bx	lr
	...

080000d0 <__gnu_thumb1_case_shi>:
 80000d0:	b403      	push	{r0, r1}
 80000d2:	4671      	mov	r1, lr
 80000d4:	0849      	lsrs	r1, r1, #1
 80000d6:	0040      	lsls	r0, r0, #1
 80000d8:	0049      	lsls	r1, r1, #1
 80000da:	5e09      	ldrsh	r1, [r1, r0]
 80000dc:	0049      	lsls	r1, r1, #1
 80000de:	448e      	add	lr, r1
 80000e0:	bc03      	pop	{r0, r1}
 80000e2:	4770      	bx	lr

080000e4 <__udivsi3>:
 80000e4:	2200      	movs	r2, #0
 80000e6:	0843      	lsrs	r3, r0, #1
 80000e8:	428b      	cmp	r3, r1
 80000ea:	d374      	bcc.n	80001d6 <__udivsi3+0xf2>
 80000ec:	0903      	lsrs	r3, r0, #4
 80000ee:	428b      	cmp	r3, r1
 80000f0:	d35f      	bcc.n	80001b2 <__udivsi3+0xce>
 80000f2:	0a03      	lsrs	r3, r0, #8
 80000f4:	428b      	cmp	r3, r1
 80000f6:	d344      	bcc.n	8000182 <__udivsi3+0x9e>
 80000f8:	0b03      	lsrs	r3, r0, #12
 80000fa:	428b      	cmp	r3, r1
 80000fc:	d328      	bcc.n	8000150 <__udivsi3+0x6c>
 80000fe:	0c03      	lsrs	r3, r0, #16
 8000100:	428b      	cmp	r3, r1
 8000102:	d30d      	bcc.n	8000120 <__udivsi3+0x3c>
 8000104:	22ff      	movs	r2, #255	@ 0xff
 8000106:	0209      	lsls	r1, r1, #8
 8000108:	ba12      	rev	r2, r2
 800010a:	0c03      	lsrs	r3, r0, #16
 800010c:	428b      	cmp	r3, r1
 800010e:	d302      	bcc.n	8000116 <__udivsi3+0x32>
 8000110:	1212      	asrs	r2, r2, #8
 8000112:	0209      	lsls	r1, r1, #8
 8000114:	d065      	beq.n	80001e2 <__udivsi3+0xfe>
 8000116:	0b03      	lsrs	r3, r0, #12
 8000118:	428b      	cmp	r3, r1
 800011a:	d319      	bcc.n	8000150 <__udivsi3+0x6c>
 800011c:	e000      	b.n	8000120 <__udivsi3+0x3c>
 800011e:	0a09      	lsrs	r1, r1, #8
 8000120:	0bc3      	lsrs	r3, r0, #15
 8000122:	428b      	cmp	r3, r1
 8000124:	d301      	bcc.n	800012a <__udivsi3+0x46>
 8000126:	03cb      	lsls	r3, r1, #15
 8000128:	1ac0      	subs	r0, r0, r3
 800012a:	4152      	adcs	r2, r2
 800012c:	0b83      	lsrs	r3, r0, #14
 800012e:	428b      	cmp	r3, r1
 8000130:	d301      	bcc.n	8000136 <__udivsi3+0x52>
 8000132:	038b      	lsls	r3, r1, #14
 8000134:	1ac0      	subs	r0, r0, r3
 8000136:	4152      	adcs	r2, r2
 8000138:	0b43      	lsrs	r3, r0, #13
 800013a:	428b      	cmp	r3, r1
 800013c:	d301      	bcc.n	8000142 <__udivsi3+0x5e>
 800013e:	034b      	lsls	r3, r1, #13
 8000140:	1ac0      	subs	r0, r0, r3
 8000142:	4152      	adcs	r2, r2
 8000144:	0b03      	lsrs	r3, r0, #12
 8000146:	428b      	cmp	r3, r1
 8000148:	d301      	bcc.n	800014e <__udivsi3+0x6a>
 800014a:	030b      	lsls	r3, r1, #12
 800014c:	1ac0      	subs	r0, r0, r3
 800014e:	4152      	adcs	r2, r2
 8000150:	0ac3      	lsrs	r3, r0, #11
 8000152:	428b      	cmp	r3, r1
 8000154:	d301      	bcc.n	800015a <__udivsi3+0x76>
 8000156:	02cb      	lsls	r3, r1, #11
 8000158:	1ac0      	subs	r0, r0, r3
 800015a:	4152      	adcs	r2, r2
 800015c:	0a83      	lsrs	r3, r0, #10
 800015e:	428b      	cmp	r3, r1
 8000160:	d301      	bcc.n	8000166 <__udivsi3+0x82>
 8000162:	028b      	lsls	r3, r1, #10
 8000164:	1ac0      	subs	r0, r0, r3
 8000166:	4152      	adcs	r2, r2
 8000168:	0a43      	lsrs	r3, r0, #9
 800016a:	428b      	cmp	r3, r1
 800016c:	d301      	bcc.n	8000172 <__udivsi3+0x8e>
 800016e:	024b      	lsls	r3, r1, #9
 8000170:	1ac0      	subs	r0, r0, r3
 8000172:	4152      	adcs	r2, r2
 8000174:	0a03      	lsrs	r3, r0, #8
 8000176:	428b      	cmp	r3, r1
 8000178:	d301      	bcc.n	800017e <__udivsi3+0x9a>
 800017a:	020b      	lsls	r3, r1, #8
 800017c:	1ac0      	subs	r0, r0, r3
 800017e:	4152      	adcs	r2, r2
 8000180:	d2cd      	bcs.n	800011e <__udivsi3+0x3a>
 8000182:	09c3      	lsrs	r3, r0, #7
 8000184:	428b      	cmp	r3, r1
 8000186:	d301      	bcc.n	800018c <__udivsi3+0xa8>
 8000188:	01cb      	lsls	r3, r1, #7
 800018a:	1ac0      	subs	r0, r0, r3
 800018c:	4152      	adcs	r2, r2
 800018e:	0983      	lsrs	r3, r0, #6
 8000190:	428b      	cmp	r3, r1
 8000192:	d301      	bcc.n	8000198 <__udivsi3+0xb4>
 8000194:	018b      	lsls	r3, r1, #6
 8000196:	1ac0      	subs	r0, r0, r3
 8000198:	4152      	adcs	r2, r2
 800019a:	0943      	lsrs	r3, r0, #5
 800019c:	428b      	cmp	r3, r1
 800019e:	d301      	bcc.n	80001a4 <__udivsi3+0xc0>
 80001a0:	014b      	lsls	r3, r1, #5
 80001a2:	1ac0      	subs	r0, r0, r3
 80001a4:	4152      	adcs	r2, r2
 80001a6:	0903      	lsrs	r3, r0, #4
 80001a8:	428b      	cmp	r3, r1
 80001aa:	d301      	bcc.n	80001b0 <__udivsi3+0xcc>
 80001ac:	010b      	lsls	r3, r1, #4
 80001ae:	1ac0      	subs	r0, r0, r3
 80001b0:	4152      	adcs	r2, r2
 80001b2:	08c3      	lsrs	r3, r0, #3
 80001b4:	428b      	cmp	r3, r1
 80001b6:	d301      	bcc.n	80001bc <__udivsi3+0xd8>
 80001b8:	00cb      	lsls	r3, r1, #3
 80001ba:	1ac0      	subs	r0, r0, r3
 80001bc:	4152      	adcs	r2, r2
 80001be:	0883      	lsrs	r3, r0, #2
 80001c0:	428b      	cmp	r3, r1
 80001c2:	d301      	bcc.n	80001c8 <__udivsi3+0xe4>
 80001c4:	008b      	lsls	r3, r1, #2
 80001c6:	1ac0      	subs	r0, r0, r3
 80001c8:	4152      	adcs	r2, r2
 80001ca:	0843      	lsrs	r3, r0, #1
 80001cc:	428b      	cmp	r3, r1
 80001ce:	d301      	bcc.n	80001d4 <__udivsi3+0xf0>
 80001d0:	004b      	lsls	r3, r1, #1
 80001d2:	1ac0      	subs	r0, r0, r3
 80001d4:	4152      	adcs	r2, r2
 80001d6:	1a41      	subs	r1, r0, r1
 80001d8:	d200      	bcs.n	80001dc <__udivsi3+0xf8>
 80001da:	4601      	mov	r1, r0
 80001dc:	4152      	adcs	r2, r2
 80001de:	4610      	mov	r0, r2
 80001e0:	4770      	bx	lr
 80001e2:	e7ff      	b.n	80001e4 <__udivsi3+0x100>
 80001e4:	b501      	push	{r0, lr}
 80001e6:	2000      	movs	r0, #0
 80001e8:	f000 f8f0 	bl	80003cc <__aeabi_idiv0>
 80001ec:	bd02      	pop	{r1, pc}
 80001ee:	46c0      	nop			@ (mov r8, r8)

080001f0 <__aeabi_uidivmod>:
 80001f0:	2900      	cmp	r1, #0
 80001f2:	d0f7      	beq.n	80001e4 <__udivsi3+0x100>
 80001f4:	e776      	b.n	80000e4 <__udivsi3>
 80001f6:	4770      	bx	lr

080001f8 <__divsi3>:
 80001f8:	4603      	mov	r3, r0
 80001fa:	430b      	orrs	r3, r1
 80001fc:	d47f      	bmi.n	80002fe <__divsi3+0x106>
 80001fe:	2200      	movs	r2, #0
 8000200:	0843      	lsrs	r3, r0, #1
 8000202:	428b      	cmp	r3, r1
 8000204:	d374      	bcc.n	80002f0 <__divsi3+0xf8>
 8000206:	0903      	lsrs	r3, r0, #4
 8000208:	428b      	cmp	r3, r1
 800020a:	d35f      	bcc.n	80002cc <__divsi3+0xd4>
 800020c:	0a03      	lsrs	r3, r0, #8
 800020e:	428b      	cmp	r3, r1
 8000210:	d344      	bcc.n	800029c <__divsi3+0xa4>
 8000212:	0b03      	lsrs	r3, r0, #12
 8000214:	428b      	cmp	r3, r1
 8000216:	d328      	bcc.n	800026a <__divsi3+0x72>
 8000218:	0c03      	lsrs	r3, r0, #16
 800021a:	428b      	cmp	r3, r1
 800021c:	d30d      	bcc.n	800023a <__divsi3+0x42>
 800021e:	22ff      	movs	r2, #255	@ 0xff
 8000220:	0209      	lsls	r1, r1, #8
 8000222:	ba12      	rev	r2, r2
 8000224:	0c03      	lsrs	r3, r0, #16
 8000226:	428b      	cmp	r3, r1
 8000228:	d302      	bcc.n	8000230 <__divsi3+0x38>
 800022a:	1212      	asrs	r2, r2, #8
 800022c:	0209      	lsls	r1, r1, #8
 800022e:	d065      	beq.n	80002fc <__divsi3+0x104>
 8000230:	0b03      	lsrs	r3, r0, #12
 8000232:	428b      	cmp	r3, r1
 8000234:	d319      	bcc.n	800026a <__divsi3+0x72>
 8000236:	e000      	b.n	800023a <__divsi3+0x42>
 8000238:	0a09      	lsrs	r1, r1, #8
 800023a:	0bc3      	lsrs	r3, r0, #15
 800023c:	428b      	cmp	r3, r1
 800023e:	d301      	bcc.n	8000244 <__divsi3+0x4c>
 8000240:	03cb      	lsls	r3, r1, #15
 8000242:	1ac0      	subs	r0, r0, r3
 8000244:	4152      	adcs	r2, r2
 8000246:	0b83      	lsrs	r3, r0, #14
 8000248:	428b      	cmp	r3, r1
 800024a:	d301      	bcc.n	8000250 <__divsi3+0x58>
 800024c:	038b      	lsls	r3, r1, #14
 800024e:	1ac0      	subs	r0, r0, r3
 8000250:	4152      	adcs	r2, r2
 8000252:	0b43      	lsrs	r3, r0, #13
 8000254:	428b      	cmp	r3, r1
 8000256:	d301      	bcc.n	800025c <__divsi3+0x64>
 8000258:	034b      	lsls	r3, r1, #13
 800025a:	1ac0      	subs	r0, r0, r3
 800025c:	4152      	adcs	r2, r2
 800025e:	0b03      	lsrs	r3, r0, #12
 8000260:	428b      	cmp	r3, r1
 8000262:	d301      	bcc.n	8000268 <__divsi3+0x70>
 8000264:	030b      	lsls	r3, r1, #12
 8000266:	1ac0      	subs	r0, r0, r3
 8000268:	4152      	adcs	r2, r2
 800026a:	0ac3      	lsrs	r3, r0, #11
 800026c:	428b      	cmp	r3, r1
 800026e:	d301      	bcc.n	8000274 <__divsi3+0x7c>
 8000270:	02cb      	lsls	r3, r1, #11
 8000272:	1ac0      	subs	r0, r0, r3
 8000274:	4152      	adcs	r2, r2
 8000276:	0a83      	lsrs	r3, r0, #10
 8000278:	428b      	cmp	r3, r1
 800027a:	d301      	bcc.n	8000280 <__divsi3+0x88>
 800027c:	028b      	lsls	r3, r1, #10
 800027e:	1ac0      	subs	r0, r0, r3
 8000280:	4152      	adcs	r2, r2
 8000282:	0a43      	lsrs	r3, r0, #9
 8000284:	428b      	cmp	r3, r1
 8000286:	d301      	bcc.n	800028c <__divsi3+0x94>
 8000288:	024b      	lsls	r3, r1, #9
 800028a:	1ac0      	subs	r0, r0, r3
 800028c:	4152      	adcs	r2, r2
 800028e:	0a03      	lsrs	r3, r0, #8
 8000290:	428b      	cmp	r3, r1
 8000292:	d301      	bcc.n	8000298 <__divsi3+0xa0>
 8000294:	020b      	lsls	r3, r1, #8
 8000296:	1ac0      	subs	r0, r0, r3
 8000298:	4152      	adcs	r2, r2
 800029a:	d2cd      	bcs.n	8000238 <__divsi3+0x40>
 800029c:	09c3      	lsrs	r3, r0, #7
 800029e:	428b      	cmp	r3, r1
 80002a0:	d301      	bcc.n	80002a6 <__divsi3+0xae>
 80002a2:	01cb      	lsls	r3, r1, #7
 80002a4:	1ac0      	subs	r0, r0, r3
 80002a6:	4152      	adcs	r2, r2
 80002a8:	0983      	lsrs	r3, r0, #6
 80002aa:	428b      	cmp	r3, r1
 80002ac:	d301      	bcc.n	80002b2 <__divsi3+0xba>
 80002ae:	018b      	lsls	r3, r1, #6
 80002b0:	1ac0      	subs	r0, r0, r3
 80002b2:	4152      	adcs	r2, r2
 80002b4:	0943      	lsrs	r3, r0, #5
 80002b6:	428b      	cmp	r3, r1
 80002b8:	d301      	bcc.n	80002be <__divsi3+0xc6>
 80002ba:	014b      	lsls	r3, r1, #5
 80002bc:	1ac0      	subs	r0, r0, r3
 80002be:	4152      	adcs	r2, r2
 80002c0:	0903      	lsrs	r3, r0, #4
 80002c2:	428b      	cmp	r3, r1
 80002c4:	d301      	bcc.n	80002ca <__divsi3+0xd2>
 80002c6:	010b      	lsls	r3, r1, #4
 80002c8:	1ac0      	subs	r0, r0, r3
 80002ca:	4152      	adcs	r2, r2
 80002cc:	08c3      	lsrs	r3, r0, #3
 80002ce:	428b      	cmp	r3, r1
 80002d0:	d301      	bcc.n	80002d6 <__divsi3+0xde>
 80002d2:	00cb      	lsls	r3, r1, #3
 80002d4:	1ac0      	subs	r0, r0, r3
 80002d6:	4152      	adcs	r2, r2
 80002d8:	0883      	lsrs	r3, r0, #2
 80002da:	428b      	cmp	r3, r1
 80002dc:	d301      	bcc.n	80002e2 <__divsi3+0xea>
 80002de:	008b      	lsls	r3, r1, #2
 80002e0:	1ac0      	subs	r0, r0, r3
 80002e2:	4152      	adcs	r2, r2
 80002e4:	0843      	lsrs	r3, r0, #1
 80002e6:	428b      	cmp	r3, r1
 80002e8:	d301      	bcc.n	80002ee <__divsi3+0xf6>
 80002ea:	004b      	lsls	r3, r1, #1
 80002ec:	1ac0      	subs	r0, r0, r3
 80002ee:	4152      	adcs	r2, r2
 80002f0:	1a41      	subs	r1, r0, r1
 80002f2:	d200      	bcs.n	80002f6 <__divsi3+0xfe>
 80002f4:	4601      	mov	r1, r0
 80002f6:	4152      	adcs	r2, r2
 80002f8:	4610      	mov	r0, r2
 80002fa:	4770      	bx	lr
 80002fc:	e05d      	b.n	80003ba <__divsi3+0x1c2>
 80002fe:	0fca      	lsrs	r2, r1, #31
 8000300:	d000      	beq.n	8000304 <__divsi3+0x10c>
 8000302:	4249      	negs	r1, r1
 8000304:	1003      	asrs	r3, r0, #32
 8000306:	d300      	bcc.n	800030a <__divsi3+0x112>
 8000308:	4240      	negs	r0, r0
 800030a:	4053      	eors	r3, r2
 800030c:	2200      	movs	r2, #0
 800030e:	469c      	mov	ip, r3
 8000310:	0903      	lsrs	r3, r0, #4
 8000312:	428b      	cmp	r3, r1
 8000314:	d32d      	bcc.n	8000372 <__divsi3+0x17a>
 8000316:	0a03      	lsrs	r3, r0, #8
 8000318:	428b      	cmp	r3, r1
 800031a:	d312      	bcc.n	8000342 <__divsi3+0x14a>
 800031c:	22fc      	movs	r2, #252	@ 0xfc
 800031e:	0189      	lsls	r1, r1, #6
 8000320:	ba12      	rev	r2, r2
 8000322:	0a03      	lsrs	r3, r0, #8
 8000324:	428b      	cmp	r3, r1
 8000326:	d30c      	bcc.n	8000342 <__divsi3+0x14a>
 8000328:	0189      	lsls	r1, r1, #6
 800032a:	1192      	asrs	r2, r2, #6
 800032c:	428b      	cmp	r3, r1
 800032e:	d308      	bcc.n	8000342 <__divsi3+0x14a>
 8000330:	0189      	lsls	r1, r1, #6
 8000332:	1192      	asrs	r2, r2, #6
 8000334:	428b      	cmp	r3, r1
 8000336:	d304      	bcc.n	8000342 <__divsi3+0x14a>
 8000338:	0189      	lsls	r1, r1, #6
 800033a:	d03a      	beq.n	80003b2 <__divsi3+0x1ba>
 800033c:	1192      	asrs	r2, r2, #6
 800033e:	e000      	b.n	8000342 <__divsi3+0x14a>
 8000340:	0989      	lsrs	r1, r1, #6
 8000342:	09c3      	lsrs	r3, r0, #7
 8000344:	428b      	cmp	r3, r1
 8000346:	d301      	bcc.n	800034c <__divsi3+0x154>
 8000348:	01cb      	lsls	r3, r1, #7
 800034a:	1ac0      	subs	r0, r0, r3
 800034c:	4152      	adcs	r2, r2
 800034e:	0983      	lsrs	r3, r0, #6
 8000350:	428b      	cmp	r3, r1
 8000352:	d301      	bcc.n	8000358 <__divsi3+0x160>
 8000354:	018b      	lsls	r3, r1, #6
 8000356:	1ac0      	subs	r0, r0, r3
 8000358:	4152      	adcs	r2, r2
 800035a:	0943      	lsrs	r3, r0, #5
 800035c:	428b      	cmp	r3, r1
 800035e:	d301      	bcc.n	8000364 <__divsi3+0x16c>
 8000360:	014b      	lsls	r3, r1, #5
 8000362:	1ac0      	subs	r0, r0, r3
 8000364:	4152      	adcs	r2, r2
 8000366:	0903      	lsrs	r3, r0, #4
 8000368:	428b      	cmp	r3, r1
 800036a:	d301      	bcc.n	8000370 <__divsi3+0x178>
 800036c:	010b      	lsls	r3, r1, #4
 800036e:	1ac0      	subs	r0, r0, r3
 8000370:	4152      	adcs	r2, r2
 8000372:	08c3      	lsrs	r3, r0, #3
 8000374:	428b      	cmp	r3, r1
 8000376:	d301      	bcc.n	800037c <__divsi3+0x184>
 8000378:	00cb      	lsls	r3, r1, #3
 800037a:	1ac0      	subs	r0, r0, r3
 800037c:	4152      	adcs	r2, r2
 800037e:	0883      	lsrs	r3, r0, #2
 8000380:	428b      	cmp	r3, r1
 8000382:	d301      	bcc.n	8000388 <__divsi3+0x190>
 8000384:	008b      	lsls	r3, r1, #2
 8000386:	1ac0      	subs	r0, r0, r3
 8000388:	4152      	adcs	r2, r2
 800038a:	d2d9      	bcs.n	8000340 <__divsi3+0x148>
 800038c:	0843      	lsrs	r3, r0, #1
 800038e:	428b      	cmp	r3, r1
 8000390:	d301      	bcc.n	8000396 <__divsi3+0x19e>
 8000392:	004b      	lsls	r3, r1, #1
 8000394:	1ac0      	subs	r0, r0, r3
 8000396:	4152      	adcs	r2, r2
 8000398:	1a41      	subs	r1, r0, r1
 800039a:	d200      	bcs.n	800039e <__divsi3+0x1a6>
 800039c:	4601      	mov	r1, r0
 800039e:	4663      	mov	r3, ip
 80003a0:	4152      	adcs	r2, r2
 80003a2:	105b      	asrs	r3, r3, #1
 80003a4:	4610      	mov	r0, r2
 80003a6:	d301      	bcc.n	80003ac <__divsi3+0x1b4>
 80003a8:	4240      	negs	r0, r0
 80003aa:	2b00      	cmp	r3, #0
 80003ac:	d500      	bpl.n	80003b0 <__divsi3+0x1b8>
 80003ae:	4249      	negs	r1, r1
 80003b0:	4770      	bx	lr
 80003b2:	4663      	mov	r3, ip
 80003b4:	105b      	asrs	r3, r3, #1
 80003b6:	d300      	bcc.n	80003ba <__divsi3+0x1c2>
 80003b8:	4240      	negs	r0, r0
 80003ba:	b501      	push	{r0, lr}
 80003bc:	2000      	movs	r0, #0
 80003be:	f000 f805 	bl	80003cc <__aeabi_idiv0>
 80003c2:	bd02      	pop	{r1, pc}

080003c4 <__aeabi_idivmod>:
 80003c4:	2900      	cmp	r1, #0
 80003c6:	d0f8      	beq.n	80003ba <__divsi3+0x1c2>
 80003c8:	e716      	b.n	80001f8 <__divsi3>
 80003ca:	4770      	bx	lr

080003cc <__aeabi_idiv0>:
 80003cc:	4770      	bx	lr
 80003ce:	46c0      	nop			@ (mov r8, r8)

080003d0 <__aeabi_uldivmod>:
 80003d0:	2b00      	cmp	r3, #0
 80003d2:	d111      	bne.n	80003f8 <__aeabi_uldivmod+0x28>
 80003d4:	2a00      	cmp	r2, #0
 80003d6:	d10f      	bne.n	80003f8 <__aeabi_uldivmod+0x28>
 80003d8:	2900      	cmp	r1, #0
 80003da:	d100      	bne.n	80003de <__aeabi_uldivmod+0xe>
 80003dc:	2800      	cmp	r0, #0
 80003de:	d002      	beq.n	80003e6 <__aeabi_uldivmod+0x16>
 80003e0:	2100      	movs	r1, #0
 80003e2:	43c9      	mvns	r1, r1
 80003e4:	0008      	movs	r0, r1
 80003e6:	b407      	push	{r0, r1, r2}
 80003e8:	4802      	ldr	r0, [pc, #8]	@ (80003f4 <__aeabi_uldivmod+0x24>)
 80003ea:	a102      	add	r1, pc, #8	@ (adr r1, 80003f4 <__aeabi_uldivmod+0x24>)
 80003ec:	1840      	adds	r0, r0, r1
 80003ee:	9002      	str	r0, [sp, #8]
 80003f0:	bd03      	pop	{r0, r1, pc}
 80003f2:	46c0      	nop			@ (mov r8, r8)
 80003f4:	ffffffd9 	.word	0xffffffd9
 80003f8:	b403      	push	{r0, r1}
 80003fa:	4668      	mov	r0, sp
 80003fc:	b501      	push	{r0, lr}
 80003fe:	9802      	ldr	r0, [sp, #8]
 8000400:	f003 fb5a 	bl	8003ab8 <__udivmoddi4>
 8000404:	9b01      	ldr	r3, [sp, #4]
 8000406:	469e      	mov	lr, r3
 8000408:	b002      	add	sp, #8
 800040a:	bc0c      	pop	{r2, r3}
 800040c:	4770      	bx	lr
 800040e:	46c0      	nop			@ (mov r8, r8)

08000410 <__clzdi2>:
 8000410:	b510      	push	{r4, lr}
 8000412:	2900      	cmp	r1, #0
 8000414:	d103      	bne.n	800041e <__clzdi2+0xe>
 8000416:	f000 f807 	bl	8000428 <__clzsi2>
 800041a:	3020      	adds	r0, #32
 800041c:	e002      	b.n	8000424 <__clzdi2+0x14>
 800041e:	0008      	movs	r0, r1
 8000420:	f000 f802 	bl	8000428 <__clzsi2>
 8000424:	bd10      	pop	{r4, pc}
 8000426:	46c0      	nop			@ (mov r8, r8)

08000428 <__clzsi2>:
 8000428:	211c      	movs	r1, #28
 800042a:	2301      	movs	r3, #1
 800042c:	041b      	lsls	r3, r3, #16
 800042e:	4298      	cmp	r0, r3
 8000430:	d301      	bcc.n	8000436 <__clzsi2+0xe>
 8000432:	0c00      	lsrs	r0, r0, #16
 8000434:	3910      	subs	r1, #16
 8000436:	0a1b      	lsrs	r3, r3, #8
 8000438:	4298      	cmp	r0, r3
 800043a:	d301      	bcc.n	8000440 <__clzsi2+0x18>
 800043c:	0a00      	lsrs	r0, r0, #8
 800043e:	3908      	subs	r1, #8
 8000440:	091b      	lsrs	r3, r3, #4
 8000442:	4298      	cmp	r0, r3
 8000444:	d301      	bcc.n	800044a <__clzsi2+0x22>
 8000446:	0900      	lsrs	r0, r0, #4
 8000448:	3904      	subs	r1, #4
 800044a:	a202      	add	r2, pc, #8	@ (adr r2, 8000454 <__clzsi2+0x2c>)
 800044c:	5c10      	ldrb	r0, [r2, r0]
 800044e:	1840      	adds	r0, r0, r1
 8000450:	4770      	bx	lr
 8000452:	46c0      	nop			@ (mov r8, r8)
 8000454:	02020304 	.word	0x02020304
 8000458:	01010101 	.word	0x01010101
	...

08000464 <__do_global_dtors_aux>:
 8000464:	b510      	push	{r4, lr}
 8000466:	4c06      	ldr	r4, [pc, #24]	@ (8000480 <__do_global_dtors_aux+0x1c>)
 8000468:	7823      	ldrb	r3, [r4, #0]
 800046a:	2b00      	cmp	r3, #0
 800046c:	d107      	bne.n	800047e <__do_global_dtors_aux+0x1a>
 800046e:	4b05      	ldr	r3, [pc, #20]	@ (8000484 <__do_global_dtors_aux+0x20>)
 8000470:	2b00      	cmp	r3, #0
 8000472:	d002      	beq.n	800047a <__do_global_dtors_aux+0x16>
 8000474:	4804      	ldr	r0, [pc, #16]	@ (8000488 <__do_global_dtors_aux+0x24>)
 8000476:	e000      	b.n	800047a <__do_global_dtors_aux+0x16>
 8000478:	bf00      	nop
 800047a:	2301      	movs	r3, #1
 800047c:	7023      	strb	r3, [r4, #0]
 800047e:	bd10      	pop	{r4, pc}
 8000480:	20000068 	.word	0x20000068
 8000484:	00000000 	.word	0x00000000
 8000488:	08003c50 	.word	0x08003c50

0800048c <frame_dummy>:
 800048c:	4b04      	ldr	r3, [pc, #16]	@ (80004a0 <frame_dummy+0x14>)
 800048e:	b510      	push	{r4, lr}
 8000490:	2b00      	cmp	r3, #0
 8000492:	d003      	beq.n	800049c <frame_dummy+0x10>
 8000494:	4903      	ldr	r1, [pc, #12]	@ (80004a4 <frame_dummy+0x18>)
 8000496:	4804      	ldr	r0, [pc, #16]	@ (80004a8 <frame_dummy+0x1c>)
 8000498:	e000      	b.n	800049c <frame_dummy+0x10>
 800049a:	bf00      	nop
 800049c:	bd10      	pop	{r4, pc}
 800049e:	46c0      	nop			@ (mov r8, r8)
 80004a0:	00000000 	.word	0x00000000
 80004a4:	2000006c 	.word	0x2000006c
 80004a8:	08003c50 	.word	0x08003c50

080004ac <__NVIC_SystemReset>:
  \details Acts as a special kind of Data Memory Barrier.
           It completes when all explicit memory accesses before this instruction complete.
 */
__STATIC_FORCEINLINE void __DSB(void)
{
  __ASM volatile ("dsb 0xF":::"memory");
 80004ac:	f3bf 8f4f 	dsb	sy
 */
__NO_RETURN __STATIC_INLINE void __NVIC_SystemReset(void)
{
  __DSB();                                                          /* Ensure all outstanding memory accesses included
                                                                       buffered write are completed before reset */
  SCB->AIRCR  = ((0x5FAUL << SCB_AIRCR_VECTKEY_Pos) |
 80004b0:	4b03      	ldr	r3, [pc, #12]	@ (80004c0 <__NVIC_SystemReset+0x14>)
 80004b2:	4a04      	ldr	r2, [pc, #16]	@ (80004c4 <__NVIC_SystemReset+0x18>)
 80004b4:	60da      	str	r2, [r3, #12]
 80004b6:	f3bf 8f4f 	dsb	sy
                 SCB_AIRCR_SYSRESETREQ_Msk);
  __DSB();                                                          /* Ensure completion of memory access */

  for(;;)                                                           /* wait until reset */
  {
    __NOP();
 80004ba:	46c0      	nop			@ (mov r8, r8)
  for(;;)                                                           /* wait until reset */
 80004bc:	e7fd      	b.n	80004ba <__NVIC_SystemReset+0xe>
 80004be:	46c0      	nop			@ (mov r8, r8)
 80004c0:	e000ed00 	.word	0xe000ed00
 80004c4:	05fa0004 	.word	0x05fa0004

080004c8 <MX_DMA_Init>:
/**

* Enable DMA controller clock
  */
  static void MX_DMA_Init(void)
  {
 80004c8:	b082      	sub	sp, #8
  __HAL_RCC_DMA1_CLK_ENABLE();
 80004ca:	4a05      	ldr	r2, [pc, #20]	@ (80004e0 <MX_DMA_Init+0x18>)
 80004cc:	6b91      	ldr	r1, [r2, #56]	@ 0x38
 80004ce:	2301      	movs	r3, #1
 80004d0:	4319      	orrs	r1, r3
 80004d2:	6391      	str	r1, [r2, #56]	@ 0x38
 80004d4:	6b92      	ldr	r2, [r2, #56]	@ 0x38
 80004d6:	4013      	ands	r3, r2
 80004d8:	9301      	str	r3, [sp, #4]
 80004da:	9b01      	ldr	r3, [sp, #4]
  }
 80004dc:	b002      	add	sp, #8
 80004de:	4770      	bx	lr
 80004e0:	40021000 	.word	0x40021000

080004e4 <MX_GPIO_Init>:
/**

* @brief GPIO Initialization
  */
  static void MX_GPIO_Init(void)
  {
 80004e4:	b530      	push	{r4, r5, lr}
 80004e6:	b089      	sub	sp, #36	@ 0x24
  GPIO_InitTypeDef GPIO_InitStruct = {0};
 80004e8:	ac03      	add	r4, sp, #12
 80004ea:	2214      	movs	r2, #20
 80004ec:	2100      	movs	r1, #0
 80004ee:	0020      	movs	r0, r4
 80004f0:	f002 fa36 	bl	8002960 <memset>

  __HAL_RCC_GPIOC_CLK_ENABLE();
 80004f4:	4b1a      	ldr	r3, [pc, #104]	@ (8000560 <MX_GPIO_Init+0x7c>)
 80004f6:	6b59      	ldr	r1, [r3, #52]	@ 0x34
 80004f8:	2204      	movs	r2, #4
 80004fa:	4311      	orrs	r1, r2
 80004fc:	6359      	str	r1, [r3, #52]	@ 0x34
 80004fe:	6b59      	ldr	r1, [r3, #52]	@ 0x34
 8000500:	400a      	ands	r2, r1
 8000502:	9200      	str	r2, [sp, #0]
 8000504:	9a00      	ldr	r2, [sp, #0]
  __HAL_RCC_GPIOA_CLK_ENABLE();
 8000506:	6b5a      	ldr	r2, [r3, #52]	@ 0x34
 8000508:	2501      	movs	r5, #1
 800050a:	432a      	orrs	r2, r5
 800050c:	635a      	str	r2, [r3, #52]	@ 0x34
 800050e:	6b5a      	ldr	r2, [r3, #52]	@ 0x34
 8000510:	402a      	ands	r2, r5
 8000512:	9201      	str	r2, [sp, #4]
 8000514:	9a01      	ldr	r2, [sp, #4]
  __HAL_RCC_SYSCFG_CLK_ENABLE();
 8000516:	6c1a      	ldr	r2, [r3, #64]	@ 0x40
 8000518:	432a      	orrs	r2, r5
 800051a:	641a      	str	r2, [r3, #64]	@ 0x40
 800051c:	6c1b      	ldr	r3, [r3, #64]	@ 0x40
 800051e:	402b      	ands	r3, r5
 8000520:	9302      	str	r3, [sp, #8]
 8000522:	9b02      	ldr	r3, [sp, #8]

  /* USER BUTTON */
  GPIO_InitStruct.Pin = USER_BUTTON_Pin;
 8000524:	2380      	movs	r3, #128	@ 0x80
 8000526:	019b      	lsls	r3, r3, #6
 8000528:	9303      	str	r3, [sp, #12]
  GPIO_InitStruct.Mode = GPIO_MODE_IT_RISING;
 800052a:	4b0e      	ldr	r3, [pc, #56]	@ (8000564 <MX_GPIO_Init+0x80>)
 800052c:	9304      	str	r3, [sp, #16]
  GPIO_InitStruct.Pull = GPIO_NOPULL;
  HAL_GPIO_Init(GPIOC, &GPIO_InitStruct);
 800052e:	0021      	movs	r1, r4
 8000530:	480d      	ldr	r0, [pc, #52]	@ (8000568 <MX_GPIO_Init+0x84>)
 8000532:	f000 ff9f 	bl	8001474 <HAL_GPIO_Init>

  /* LED */
  GPIO_InitStruct.Pin = LED_GREEN_Pin;
 8000536:	2320      	movs	r3, #32
 8000538:	9303      	str	r3, [sp, #12]
  GPIO_InitStruct.Mode = GPIO_MODE_OUTPUT_PP;
 800053a:	9504      	str	r5, [sp, #16]
  GPIO_InitStruct.Pull = GPIO_NOPULL;
 800053c:	2300      	movs	r3, #0
 800053e:	9305      	str	r3, [sp, #20]
  GPIO_InitStruct.Speed = GPIO_SPEED_FREQ_LOW;
 8000540:	9306      	str	r3, [sp, #24]
  HAL_GPIO_Init(LED_GREEN_GPIO_Port, &GPIO_InitStruct);
 8000542:	20a0      	movs	r0, #160	@ 0xa0
 8000544:	0021      	movs	r1, r4
 8000546:	05c0      	lsls	r0, r0, #23
 8000548:	f000 ff94 	bl	8001474 <HAL_GPIO_Init>

  /* EXTI IRQ */
  HAL_NVIC_SetPriority(EXTI0_1_IRQn, 1, 0);
 800054c:	2200      	movs	r2, #0
 800054e:	2101      	movs	r1, #1
 8000550:	2005      	movs	r0, #5
 8000552:	f000 fe8d 	bl	8001270 <HAL_NVIC_SetPriority>
  HAL_NVIC_EnableIRQ(EXTI0_1_IRQn);
 8000556:	2005      	movs	r0, #5
 8000558:	f000 fe8e 	bl	8001278 <HAL_NVIC_EnableIRQ>
  }
 800055c:	b009      	add	sp, #36	@ 0x24
 800055e:	bd30      	pop	{r4, r5, pc}
 8000560:	40021000 	.word	0x40021000
 8000564:	10110000 	.word	0x10110000
 8000568:	50000800 	.word	0x50000800

0800056c <MX_ADC1_Init>:
  {
 800056c:	b570      	push	{r4, r5, r6, lr}
 800056e:	b084      	sub	sp, #16
  ADC_ChannelConfTypeDef sConfig = {0};
 8000570:	ad01      	add	r5, sp, #4
 8000572:	220c      	movs	r2, #12
 8000574:	2100      	movs	r1, #0
 8000576:	0028      	movs	r0, r5
 8000578:	f002 f9f2 	bl	8002960 <memset>
  hadc1.Instance = ADC1;
 800057c:	4c0f      	ldr	r4, [pc, #60]	@ (80005bc <MX_ADC1_Init+0x50>)
 800057e:	4b10      	ldr	r3, [pc, #64]	@ (80005c0 <MX_ADC1_Init+0x54>)
 8000580:	6023      	str	r3, [r4, #0]
  hadc1.Init.ClockPrescaler = ADC_CLOCK_SYNC_PCLK_DIV2;
 8000582:	2380      	movs	r3, #128	@ 0x80
 8000584:	05db      	lsls	r3, r3, #23
 8000586:	6063      	str	r3, [r4, #4]
  hadc1.Init.Resolution = ADC_RESOLUTION_12B;
 8000588:	2300      	movs	r3, #0
 800058a:	60a3      	str	r3, [r4, #8]
  hadc1.Init.DataAlign = ADC_DATAALIGN_RIGHT;
 800058c:	60e3      	str	r3, [r4, #12]
  hadc1.Init.ScanConvMode = ADC_SCAN_SEQ_FIXED;
 800058e:	2280      	movs	r2, #128	@ 0x80
 8000590:	0612      	lsls	r2, r2, #24
 8000592:	6122      	str	r2, [r4, #16]
  hadc1.Init.EOCSelection = ADC_EOC_SINGLE_CONV;
 8000594:	2204      	movs	r2, #4
 8000596:	6162      	str	r2, [r4, #20]
  hadc1.Init.ContinuousConvMode = DISABLE;
 8000598:	76a3      	strb	r3, [r4, #26]
  hadc1.Init.NbrOfConversion = 1;
 800059a:	2601      	movs	r6, #1
 800059c:	61e6      	str	r6, [r4, #28]
  hadc1.Init.ExternalTrigConv = ADC_SOFTWARE_START;
 800059e:	6263      	str	r3, [r4, #36]	@ 0x24
  hadc1.Init.Overrun = ADC_OVR_DATA_PRESERVED;
 80005a0:	6323      	str	r3, [r4, #48]	@ 0x30
  HAL_ADC_Init(&hadc1);
 80005a2:	0020      	movs	r0, r4
 80005a4:	f000 fa2c 	bl	8000a00 <HAL_ADC_Init>
  sConfig.Channel = ADC_CHANNEL_4;
 80005a8:	4b06      	ldr	r3, [pc, #24]	@ (80005c4 <MX_ADC1_Init+0x58>)
 80005aa:	9301      	str	r3, [sp, #4]
  sConfig.Rank = ADC_RANK_CHANNEL_NUMBER;
 80005ac:	9602      	str	r6, [sp, #8]
  HAL_ADC_ConfigChannel(&hadc1, &sConfig);
 80005ae:	0029      	movs	r1, r5
 80005b0:	0020      	movs	r0, r4
 80005b2:	f000 fba5 	bl	8000d00 <HAL_ADC_ConfigChannel>
  }
 80005b6:	b004      	add	sp, #16
 80005b8:	bd70      	pop	{r4, r5, r6, pc}
 80005ba:	46c0      	nop			@ (mov r8, r8)
 80005bc:	200003dc 	.word	0x200003dc
 80005c0:	40012400 	.word	0x40012400
 80005c4:	10000010 	.word	0x10000010

080005c8 <MX_USART2_UART_Init>:
  {
 80005c8:	b510      	push	{r4, lr}
  huart2.Instance = USART2;
 80005ca:	4808      	ldr	r0, [pc, #32]	@ (80005ec <MX_USART2_UART_Init+0x24>)
 80005cc:	4b08      	ldr	r3, [pc, #32]	@ (80005f0 <MX_USART2_UART_Init+0x28>)
 80005ce:	6003      	str	r3, [r0, #0]
  huart2.Init.BaudRate = 115200;
 80005d0:	23e1      	movs	r3, #225	@ 0xe1
 80005d2:	025b      	lsls	r3, r3, #9
 80005d4:	6043      	str	r3, [r0, #4]
  huart2.Init.WordLength = UART_WORDLENGTH_8B;
 80005d6:	2300      	movs	r3, #0
 80005d8:	6083      	str	r3, [r0, #8]
  huart2.Init.StopBits = UART_STOPBITS_1;
 80005da:	60c3      	str	r3, [r0, #12]
  huart2.Init.Parity = UART_PARITY_NONE;
 80005dc:	6103      	str	r3, [r0, #16]
  huart2.Init.Mode = UART_MODE_TX_RX;
 80005de:	220c      	movs	r2, #12
 80005e0:	6142      	str	r2, [r0, #20]
  huart2.Init.HwFlowCtl = UART_HWCONTROL_NONE;
 80005e2:	6183      	str	r3, [r0, #24]
  huart2.Init.OverSampling = UART_OVERSAMPLING_16;
 80005e4:	61c3      	str	r3, [r0, #28]
  HAL_UART_Init(&huart2);
 80005e6:	f001 ff6f 	bl	80024c8 <HAL_UART_Init>
  }
 80005ea:	bd10      	pop	{r4, pc}
 80005ec:	200002ec 	.word	0x200002ec
 80005f0:	40004400 	.word	0x40004400

080005f4 <computeMovingAverage>:
uint32_t computeMovingAverage(uint32_t newSample) {
 80005f4:	b5f0      	push	{r4, r5, r6, r7, lr}
 80005f6:	46c6      	mov	lr, r8
 80005f8:	b500      	push	{lr}
 80005fa:	b082      	sub	sp, #8
 80005fc:	9001      	str	r0, [sp, #4]
sum -= adcBuffer[bufferIndex];
 80005fe:	4f13      	ldr	r7, [pc, #76]	@ (800064c <computeMovingAverage+0x58>)
 8000600:	8838      	ldrh	r0, [r7, #0]
 8000602:	4e13      	ldr	r6, [pc, #76]	@ (8000650 <computeMovingAverage+0x5c>)
 8000604:	0082      	lsls	r2, r0, #2
 8000606:	4690      	mov	r8, r2
 8000608:	58b2      	ldr	r2, [r6, r2]
 800060a:	2300      	movs	r3, #0
 800060c:	4911      	ldr	r1, [pc, #68]	@ (8000654 <computeMovingAverage+0x60>)
 800060e:	680c      	ldr	r4, [r1, #0]
 8000610:	684d      	ldr	r5, [r1, #4]
 8000612:	1aa4      	subs	r4, r4, r2
 8000614:	419d      	sbcs	r5, r3
 8000616:	600c      	str	r4, [r1, #0]
 8000618:	604d      	str	r5, [r1, #4]
adcBuffer[bufferIndex] = newSample;
 800061a:	4642      	mov	r2, r8
 800061c:	9b01      	ldr	r3, [sp, #4]
 800061e:	5193      	str	r3, [r2, r6]
sum += newSample;
 8000620:	9a01      	ldr	r2, [sp, #4]
 8000622:	2300      	movs	r3, #0
 8000624:	18a4      	adds	r4, r4, r2
 8000626:	415d      	adcs	r5, r3
 8000628:	600c      	str	r4, [r1, #0]
 800062a:	604d      	str	r5, [r1, #4]
bufferIndex = (bufferIndex + 1) % MA_SIZE;
 800062c:	3001      	adds	r0, #1
 800062e:	2196      	movs	r1, #150	@ 0x96
 8000630:	f7ff fec8 	bl	80003c4 <__aeabi_idivmod>
 8000634:	8039      	strh	r1, [r7, #0]
return (uint32_t)(sum / MA_SIZE);
 8000636:	2296      	movs	r2, #150	@ 0x96
 8000638:	2300      	movs	r3, #0
 800063a:	0020      	movs	r0, r4
 800063c:	0029      	movs	r1, r5
 800063e:	f7ff fec7 	bl	80003d0 <__aeabi_uldivmod>
}
 8000642:	b002      	add	sp, #8
 8000644:	bc80      	pop	{r7}
 8000646:	46b8      	mov	r8, r7
 8000648:	bdf0      	pop	{r4, r5, r6, r7, pc}
 800064a:	46c0      	nop			@ (mov r8, r8)
 800064c:	20000092 	.word	0x20000092
 8000650:	20000094 	.word	0x20000094
 8000654:	20000088 	.word	0x20000088

08000658 <addRandomNoise>:
uint32_t addRandomNoise(uint32_t value) {
 8000658:	b510      	push	{r4, lr}
 800065a:	0004      	movs	r4, r0
int32_t noise = (rand() % 40) + 250;
 800065c:	f002 f810 	bl	8002680 <rand>
 8000660:	2128      	movs	r1, #40	@ 0x28
 8000662:	f7ff feaf 	bl	80003c4 <__aeabi_idivmod>
 8000666:	31fa      	adds	r1, #250	@ 0xfa
if (result < 0) result = 0;
 8000668:	1908      	adds	r0, r1, r4
 800066a:	d405      	bmi.n	8000678 <addRandomNoise+0x20>
if (result > 4095) result = 4095;
 800066c:	2380      	movs	r3, #128	@ 0x80
 800066e:	015b      	lsls	r3, r3, #5
 8000670:	4298      	cmp	r0, r3
 8000672:	db02      	blt.n	800067a <addRandomNoise+0x22>
 8000674:	4801      	ldr	r0, [pc, #4]	@ (800067c <addRandomNoise+0x24>)
 8000676:	e000      	b.n	800067a <addRandomNoise+0x22>
if (result < 0) result = 0;
 8000678:	2000      	movs	r0, #0
}
 800067a:	bd10      	pop	{r4, pc}
 800067c:	00000fff 	.word	0x00000fff

08000680 <SystemClock_Config>:
  {
 8000680:	b5f0      	push	{r4, r5, r6, r7, lr}
 8000682:	b08d      	sub	sp, #52	@ 0x34
  RCC_OscInitTypeDef RCC_OscInitStruct = {0};
 8000684:	ae05      	add	r6, sp, #20
 8000686:	221c      	movs	r2, #28
 8000688:	2100      	movs	r1, #0
 800068a:	0030      	movs	r0, r6
 800068c:	f002 f968 	bl	8002960 <memset>
  RCC_ClkInitTypeDef RCC_ClkInitStruct = {0};
 8000690:	2214      	movs	r2, #20
 8000692:	2100      	movs	r1, #0
 8000694:	4668      	mov	r0, sp
 8000696:	f002 f963 	bl	8002960 <memset>
  __HAL_FLASH_SET_LATENCY(FLASH_LATENCY_1);
 800069a:	4a0d      	ldr	r2, [pc, #52]	@ (80006d0 <SystemClock_Config+0x50>)
 800069c:	6813      	ldr	r3, [r2, #0]
 800069e:	2707      	movs	r7, #7
 80006a0:	43bb      	bics	r3, r7
 80006a2:	2501      	movs	r5, #1
 80006a4:	432b      	orrs	r3, r5
 80006a6:	6013      	str	r3, [r2, #0]
  RCC_OscInitStruct.OscillatorType = RCC_OSCILLATORTYPE_HSE;
 80006a8:	9505      	str	r5, [sp, #20]
  RCC_OscInitStruct.HSEState = RCC_HSE_ON;
 80006aa:	2380      	movs	r3, #128	@ 0x80
 80006ac:	025b      	lsls	r3, r3, #9
 80006ae:	9306      	str	r3, [sp, #24]
  HAL_RCC_OscConfig(&RCC_OscInitStruct);
 80006b0:	0030      	movs	r0, r6
 80006b2:	f001 f895 	bl	80017e0 <HAL_RCC_OscConfig>
  RCC_ClkInitStruct.ClockType = RCC_CLOCKTYPE_HCLK|
 80006b6:	9700      	str	r7, [sp, #0]
  RCC_ClkInitStruct.SYSCLKSource = RCC_SYSCLKSOURCE_HSE;
 80006b8:	9501      	str	r5, [sp, #4]
  RCC_ClkInitStruct.SYSCLKDivider = RCC_SYSCLK_DIV1;
 80006ba:	2300      	movs	r3, #0
 80006bc:	9302      	str	r3, [sp, #8]
  RCC_ClkInitStruct.AHBCLKDivider = RCC_HCLK_DIV1;
 80006be:	9303      	str	r3, [sp, #12]
  RCC_ClkInitStruct.APB1CLKDivider = RCC_APB1_DIV1;
 80006c0:	9304      	str	r3, [sp, #16]
  HAL_RCC_ClockConfig(&RCC_ClkInitStruct, FLASH_LATENCY_1);
 80006c2:	2101      	movs	r1, #1
 80006c4:	4668      	mov	r0, sp
 80006c6:	f001 fa17 	bl	8001af8 <HAL_RCC_ClockConfig>
  }
 80006ca:	b00d      	add	sp, #52	@ 0x34
 80006cc:	bdf0      	pop	{r4, r5, r6, r7, pc}
 80006ce:	46c0      	nop			@ (mov r8, r8)
 80006d0:	40022000 	.word	0x40022000

080006d4 <main>:
  {
 80006d4:	b5f0      	push	{r4, r5, r6, r7, lr}
 80006d6:	46c6      	mov	lr, r8
 80006d8:	b500      	push	{lr}
 80006da:	b098      	sub	sp, #96	@ 0x60
  HAL_Init();
 80006dc:	f000 f960 	bl	80009a0 <HAL_Init>
  SystemClock_Config();
 80006e0:	f7ff ffce 	bl	8000680 <SystemClock_Config>
  MX_GPIO_Init();
 80006e4:	f7ff fefe 	bl	80004e4 <MX_GPIO_Init>
  MX_DMA_Init();
 80006e8:	f7ff feee 	bl	80004c8 <MX_DMA_Init>
  MX_ADC1_Init();
 80006ec:	f7ff ff3e 	bl	800056c <MX_ADC1_Init>
  MX_USART2_UART_Init();
 80006f0:	f7ff ff6a 	bl	80005c8 <MX_USART2_UART_Init>
  uint8_t buttonPrevState = GPIO_PIN_SET;
 80006f4:	2501      	movs	r5, #1
 80006f6:	e036      	b.n	8000766 <main+0x92>
  if (rx == 'R') currentMode = RAW;
 80006f8:	4b81      	ldr	r3, [pc, #516]	@ (8000900 <main+0x22c>)
 80006fa:	2200      	movs	r2, #0
 80006fc:	701a      	strb	r2, [r3, #0]
  uint8_t buttonState = HAL_GPIO_ReadPin(USER_BUTTON_GPIO_Port, USER_BUTTON_Pin);
 80006fe:	2180      	movs	r1, #128	@ 0x80
 8000700:	0189      	lsls	r1, r1, #6
 8000702:	4880      	ldr	r0, [pc, #512]	@ (8000904 <main+0x230>)
 8000704:	f000 ff94 	bl	8001630 <HAL_GPIO_ReadPin>
 8000708:	0004      	movs	r4, r0
  if (buttonPrevState == GPIO_PIN_SET && buttonState == GPIO_PIN_RESET)
 800070a:	2d01      	cmp	r5, #1
 800070c:	d00b      	beq.n	8000726 <main+0x52>
  switch(currentState)
 800070e:	4b7e      	ldr	r3, [pc, #504]	@ (8000908 <main+0x234>)
 8000710:	781a      	ldrb	r2, [r3, #0]
 8000712:	2a05      	cmp	r2, #5
 8000714:	d826      	bhi.n	8000764 <main+0x90>
 8000716:	0093      	lsls	r3, r2, #2
 8000718:	4a7c      	ldr	r2, [pc, #496]	@ (800090c <main+0x238>)
 800071a:	58d3      	ldr	r3, [r2, r3]
 800071c:	469f      	mov	pc, r3
  else if (rx == 'M') currentMode = MOVING_AVERAGE;
 800071e:	4b78      	ldr	r3, [pc, #480]	@ (8000900 <main+0x22c>)
 8000720:	2201      	movs	r2, #1
 8000722:	701a      	strb	r2, [r3, #0]
 8000724:	e7eb      	b.n	80006fe <main+0x2a>
  if (buttonPrevState == GPIO_PIN_SET && buttonState == GPIO_PIN_RESET)
 8000726:	2800      	cmp	r0, #0
 8000728:	d1f1      	bne.n	800070e <main+0x3a>
      if(currentState == STATE_WAIT_REQUEST)
 800072a:	4b77      	ldr	r3, [pc, #476]	@ (8000908 <main+0x234>)
 800072c:	781b      	ldrb	r3, [r3, #0]
 800072e:	2b05      	cmp	r3, #5
 8000730:	d8ed      	bhi.n	800070e <main+0x3a>
 8000732:	009b      	lsls	r3, r3, #2
 8000734:	4a76      	ldr	r2, [pc, #472]	@ (8000910 <main+0x23c>)
 8000736:	58d3      	ldr	r3, [r2, r3]
 8000738:	469f      	mov	pc, r3
          currentState = STATE_LISTENING;
 800073a:	4b73      	ldr	r3, [pc, #460]	@ (8000908 <main+0x234>)
 800073c:	2202      	movs	r2, #2
 800073e:	701a      	strb	r2, [r3, #0]
 8000740:	e7e5      	b.n	800070e <main+0x3a>
          currentState = STATE_PAUSE;
 8000742:	4b71      	ldr	r3, [pc, #452]	@ (8000908 <main+0x234>)
 8000744:	2203      	movs	r2, #3
 8000746:	701a      	strb	r2, [r3, #0]
 8000748:	e7e1      	b.n	800070e <main+0x3a>
          currentState = STATE_LISTENING;
 800074a:	4b6f      	ldr	r3, [pc, #444]	@ (8000908 <main+0x234>)
 800074c:	2202      	movs	r2, #2
 800074e:	701a      	strb	r2, [r3, #0]
 8000750:	e7dd      	b.n	800070e <main+0x3a>
          currentState = STATE_WAIT_REQUEST;
 8000752:	4b6d      	ldr	r3, [pc, #436]	@ (8000908 <main+0x234>)
 8000754:	2201      	movs	r2, #1
 8000756:	701a      	strb	r2, [r3, #0]
 8000758:	e7d9      	b.n	800070e <main+0x3a>
          NVIC_SystemReset();
 800075a:	f7ff fea7 	bl	80004ac <__NVIC_SystemReset>
          currentState = STATE_WAIT_REQUEST;
 800075e:	4b6a      	ldr	r3, [pc, #424]	@ (8000908 <main+0x234>)
 8000760:	2201      	movs	r2, #1
 8000762:	701a      	strb	r2, [r3, #0]
  {
 8000764:	0025      	movs	r5, r4
  if (HAL_UART_Receive(&huart2, &rx, 1, 10) == HAL_OK)
 8000766:	486b      	ldr	r0, [pc, #428]	@ (8000914 <main+0x240>)
 8000768:	230a      	movs	r3, #10
 800076a:	2201      	movs	r2, #1
 800076c:	2157      	movs	r1, #87	@ 0x57
 800076e:	ac02      	add	r4, sp, #8
 8000770:	46a4      	mov	ip, r4
 8000772:	4461      	add	r1, ip
 8000774:	f001 fd98 	bl	80022a8 <HAL_UART_Receive>
 8000778:	2800      	cmp	r0, #0
 800077a:	d1c0      	bne.n	80006fe <main+0x2a>
  if (rx == 'R') currentMode = RAW;
 800077c:	2357      	movs	r3, #87	@ 0x57
 800077e:	46a4      	mov	ip, r4
 8000780:	4463      	add	r3, ip
 8000782:	781b      	ldrb	r3, [r3, #0]
 8000784:	2b52      	cmp	r3, #82	@ 0x52
 8000786:	d0b7      	beq.n	80006f8 <main+0x24>
  else if (rx == 'M') currentMode = MOVING_AVERAGE;
 8000788:	2b4d      	cmp	r3, #77	@ 0x4d
 800078a:	d0c8      	beq.n	800071e <main+0x4a>
  else if (rx == 'N') currentMode = RANDOM_NOISE;
 800078c:	2b4e      	cmp	r3, #78	@ 0x4e
 800078e:	d1b6      	bne.n	80006fe <main+0x2a>
 8000790:	4b5b      	ldr	r3, [pc, #364]	@ (8000900 <main+0x22c>)
 8000792:	2202      	movs	r2, #2
 8000794:	701a      	strb	r2, [r3, #0]
 8000796:	e7b2      	b.n	80006fe <main+0x2a>
          HAL_GPIO_WritePin(LED_GREEN_GPIO_Port, LED_GREEN_Pin, GPIO_PIN_RESET);
 8000798:	20a0      	movs	r0, #160	@ 0xa0
 800079a:	2200      	movs	r2, #0
 800079c:	2120      	movs	r1, #32
 800079e:	05c0      	lsls	r0, r0, #23
 80007a0:	f000 ff4d 	bl	800163e <HAL_GPIO_WritePin>
          HAL_Delay(100);
 80007a4:	2064      	movs	r0, #100	@ 0x64
 80007a6:	f000 f919 	bl	80009dc <HAL_Delay>
          break;
 80007aa:	e7db      	b.n	8000764 <main+0x90>
          HAL_GPIO_WritePin(LED_GREEN_GPIO_Port, LED_GREEN_Pin, GPIO_PIN_SET);
 80007ac:	20a0      	movs	r0, #160	@ 0xa0
 80007ae:	2201      	movs	r2, #1
 80007b0:	2120      	movs	r1, #32
 80007b2:	05c0      	lsls	r0, r0, #23
 80007b4:	f000 ff43 	bl	800163e <HAL_GPIO_WritePin>
          HAL_ADC_Start(&hadc1);
 80007b8:	4e57      	ldr	r6, [pc, #348]	@ (8000918 <main+0x244>)
 80007ba:	0030      	movs	r0, r6
 80007bc:	f000 fc70 	bl	80010a0 <HAL_ADC_Start>
          HAL_ADC_PollForConversion(&hadc1, HAL_MAX_DELAY);
 80007c0:	2101      	movs	r1, #1
 80007c2:	4249      	negs	r1, r1
 80007c4:	0030      	movs	r0, r6
 80007c6:	f000 fa3b 	bl	8000c40 <HAL_ADC_PollForConversion>
          uint32_t rawValue = HAL_ADC_GetValue(&hadc1);
 80007ca:	0030      	movs	r0, r6
 80007cc:	f000 fa94 	bl	8000cf8 <HAL_ADC_GetValue>
 80007d0:	0005      	movs	r5, r0
          HAL_ADC_Stop(&hadc1);
 80007d2:	0030      	movs	r0, r6
 80007d4:	f000 fcde 	bl	8001194 <HAL_ADC_Stop>
          uint32_t maValue    = computeMovingAverage(rawValue);
 80007d8:	0028      	movs	r0, r5
 80007da:	f7ff ff0b 	bl	80005f4 <computeMovingAverage>
 80007de:	0006      	movs	r6, r0
          uint32_t noiseValue = addRandomNoise(rawValue);
 80007e0:	0028      	movs	r0, r5
 80007e2:	f7ff ff39 	bl	8000658 <addRandomNoise>
 80007e6:	4680      	mov	r8, r0
          uint32_t raw_mv   = (rawValue   * 3300) / 4095;
 80007e8:	4f4c      	ldr	r7, [pc, #304]	@ (800091c <main+0x248>)
 80007ea:	0038      	movs	r0, r7
 80007ec:	4368      	muls	r0, r5
 80007ee:	494c      	ldr	r1, [pc, #304]	@ (8000920 <main+0x24c>)
 80007f0:	f7ff fc78 	bl	80000e4 <__udivsi3>
 80007f4:	9001      	str	r0, [sp, #4]
          uint32_t ma_mv    = (maValue    * 3300) / 4095;
 80007f6:	437e      	muls	r6, r7
 80007f8:	0030      	movs	r0, r6
 80007fa:	4949      	ldr	r1, [pc, #292]	@ (8000920 <main+0x24c>)
 80007fc:	f7ff fc72 	bl	80000e4 <__udivsi3>
 8000800:	0006      	movs	r6, r0
          uint32_t noise_mv = (noiseValue * 3300) / 4095;
 8000802:	4643      	mov	r3, r8
 8000804:	437b      	muls	r3, r7
 8000806:	0018      	movs	r0, r3
 8000808:	4945      	ldr	r1, [pc, #276]	@ (8000920 <main+0x24c>)
 800080a:	f7ff fc6b 	bl	80000e4 <__udivsi3>
          switch(currentMode)
 800080e:	4b3c      	ldr	r3, [pc, #240]	@ (8000900 <main+0x22c>)
 8000810:	781b      	ldrb	r3, [r3, #0]
 8000812:	2b01      	cmp	r3, #1
 8000814:	d01d      	beq.n	8000852 <main+0x17e>
 8000816:	2b02      	cmp	r3, #2
 8000818:	d021      	beq.n	800085e <main+0x18a>
 800081a:	2b00      	cmp	r3, #0
 800081c:	d104      	bne.n	8000828 <main+0x154>
                  sprintf(msg, "RAW | %lu mV\r\n", raw_mv);
 800081e:	4941      	ldr	r1, [pc, #260]	@ (8000924 <main+0x250>)
 8000820:	9a01      	ldr	r2, [sp, #4]
 8000822:	a803      	add	r0, sp, #12
 8000824:	f002 f82e 	bl	8002884 <siprintf>
          HAL_UART_Transmit(&huart2, (uint8_t*)msg, strlen(msg), HAL_MAX_DELAY);
 8000828:	ae03      	add	r6, sp, #12
 800082a:	0030      	movs	r0, r6
 800082c:	f7ff fc48 	bl	80000c0 <strlen>
 8000830:	2301      	movs	r3, #1
 8000832:	b282      	uxth	r2, r0
 8000834:	4837      	ldr	r0, [pc, #220]	@ (8000914 <main+0x240>)
 8000836:	425b      	negs	r3, r3
 8000838:	0031      	movs	r1, r6
 800083a:	f001 fcb8 	bl	80021ae <HAL_UART_Transmit>
          if(rawValue > POT_THRESHOLDERROR)
 800083e:	4b3a      	ldr	r3, [pc, #232]	@ (8000928 <main+0x254>)
 8000840:	429d      	cmp	r5, r3
 8000842:	d912      	bls.n	800086a <main+0x196>
              currentState = STATE_ERROR;
 8000844:	4b30      	ldr	r3, [pc, #192]	@ (8000908 <main+0x234>)
 8000846:	2205      	movs	r2, #5
 8000848:	701a      	strb	r2, [r3, #0]
          HAL_Delay(100);
 800084a:	2064      	movs	r0, #100	@ 0x64
 800084c:	f000 f8c6 	bl	80009dc <HAL_Delay>
      break;
 8000850:	e788      	b.n	8000764 <main+0x90>
                  sprintf(msg, "MA | %lu mV\r\n", ma_mv);
 8000852:	4936      	ldr	r1, [pc, #216]	@ (800092c <main+0x258>)
 8000854:	0032      	movs	r2, r6
 8000856:	a803      	add	r0, sp, #12
 8000858:	f002 f814 	bl	8002884 <siprintf>
                  break;
 800085c:	e7e4      	b.n	8000828 <main+0x154>
                  sprintf(msg, "NOISE | %lu mV\r\n", noise_mv);
 800085e:	4934      	ldr	r1, [pc, #208]	@ (8000930 <main+0x25c>)
 8000860:	0002      	movs	r2, r0
 8000862:	a803      	add	r0, sp, #12
 8000864:	f002 f80e 	bl	8002884 <siprintf>
                  break;
 8000868:	e7de      	b.n	8000828 <main+0x154>
          else if(rawValue > POT_THRESHOLD)
 800086a:	23fa      	movs	r3, #250	@ 0xfa
 800086c:	00db      	lsls	r3, r3, #3
 800086e:	429d      	cmp	r5, r3
 8000870:	d917      	bls.n	80008a2 <main+0x1ce>
              if(highStart == 0) highStart = HAL_GetTick();
 8000872:	4b30      	ldr	r3, [pc, #192]	@ (8000934 <main+0x260>)
 8000874:	681b      	ldr	r3, [r3, #0]
 8000876:	2b00      	cmp	r3, #0
 8000878:	d104      	bne.n	8000884 <main+0x1b0>
 800087a:	f000 f8a9 	bl	80009d0 <HAL_GetTick>
 800087e:	4b2d      	ldr	r3, [pc, #180]	@ (8000934 <main+0x260>)
 8000880:	6018      	str	r0, [r3, #0]
 8000882:	e7e2      	b.n	800084a <main+0x176>
              else if (HAL_GetTick() - highStart >= 5000)
 8000884:	f000 f8a4 	bl	80009d0 <HAL_GetTick>
 8000888:	4b2a      	ldr	r3, [pc, #168]	@ (8000934 <main+0x260>)
 800088a:	681b      	ldr	r3, [r3, #0]
 800088c:	1ac0      	subs	r0, r0, r3
 800088e:	4b2a      	ldr	r3, [pc, #168]	@ (8000938 <main+0x264>)
 8000890:	4298      	cmp	r0, r3
 8000892:	d9da      	bls.n	800084a <main+0x176>
                  highStart = 0;
 8000894:	4b27      	ldr	r3, [pc, #156]	@ (8000934 <main+0x260>)
 8000896:	2200      	movs	r2, #0
 8000898:	601a      	str	r2, [r3, #0]
                  currentState = STATE_WARNING;
 800089a:	4b1b      	ldr	r3, [pc, #108]	@ (8000908 <main+0x234>)
 800089c:	3204      	adds	r2, #4
 800089e:	701a      	strb	r2, [r3, #0]
 80008a0:	e7d3      	b.n	800084a <main+0x176>
          else highStart = 0;
 80008a2:	4b24      	ldr	r3, [pc, #144]	@ (8000934 <main+0x260>)
 80008a4:	2200      	movs	r2, #0
 80008a6:	601a      	str	r2, [r3, #0]
 80008a8:	e7cf      	b.n	800084a <main+0x176>
          HAL_GPIO_TogglePin(LED_GREEN_GPIO_Port, LED_GREEN_Pin);
 80008aa:	20a0      	movs	r0, #160	@ 0xa0
 80008ac:	2120      	movs	r1, #32
 80008ae:	05c0      	lsls	r0, r0, #23
 80008b0:	f000 fecb 	bl	800164a <HAL_GPIO_TogglePin>
          HAL_Delay(500);
 80008b4:	20fa      	movs	r0, #250	@ 0xfa
 80008b6:	0040      	lsls	r0, r0, #1
 80008b8:	f000 f890 	bl	80009dc <HAL_Delay>
          break;
 80008bc:	e752      	b.n	8000764 <main+0x90>
          HAL_GPIO_WritePin(LED_GREEN_GPIO_Port, LED_GREEN_Pin, GPIO_PIN_RESET);
 80008be:	20a0      	movs	r0, #160	@ 0xa0
 80008c0:	2200      	movs	r2, #0
 80008c2:	2120      	movs	r1, #32
 80008c4:	05c0      	lsls	r0, r0, #23
 80008c6:	f000 feba 	bl	800163e <HAL_GPIO_WritePin>
          HAL_UART_Transmit(&huart2, (uint8_t*)"WARNING\r\n", 9, HAL_MAX_DELAY);
 80008ca:	2301      	movs	r3, #1
 80008cc:	491b      	ldr	r1, [pc, #108]	@ (800093c <main+0x268>)
 80008ce:	4811      	ldr	r0, [pc, #68]	@ (8000914 <main+0x240>)
 80008d0:	425b      	negs	r3, r3
 80008d2:	2209      	movs	r2, #9
 80008d4:	f001 fc6b 	bl	80021ae <HAL_UART_Transmit>
          HAL_Delay(200);
 80008d8:	20c8      	movs	r0, #200	@ 0xc8
 80008da:	f000 f87f 	bl	80009dc <HAL_Delay>
          break;
 80008de:	e741      	b.n	8000764 <main+0x90>
          HAL_GPIO_TogglePin(LED_GREEN_GPIO_Port, LED_GREEN_Pin);
 80008e0:	20a0      	movs	r0, #160	@ 0xa0
 80008e2:	2120      	movs	r1, #32
 80008e4:	05c0      	lsls	r0, r0, #23
 80008e6:	f000 feb0 	bl	800164a <HAL_GPIO_TogglePin>
          HAL_UART_Transmit(&huart2, (uint8_t*)"ERROR\r\n", 7, HAL_MAX_DELAY);
 80008ea:	2301      	movs	r3, #1
 80008ec:	4914      	ldr	r1, [pc, #80]	@ (8000940 <main+0x26c>)
 80008ee:	4809      	ldr	r0, [pc, #36]	@ (8000914 <main+0x240>)
 80008f0:	425b      	negs	r3, r3
 80008f2:	2207      	movs	r2, #7
 80008f4:	f001 fc5b 	bl	80021ae <HAL_UART_Transmit>
          HAL_Delay(200);
 80008f8:	20c8      	movs	r0, #200	@ 0xc8
 80008fa:	f000 f86f 	bl	80009dc <HAL_Delay>
          break;
 80008fe:	e731      	b.n	8000764 <main+0x90>
 8000900:	20000091 	.word	0x20000091
 8000904:	50000800 	.word	0x50000800
 8000908:	20000090 	.word	0x20000090
 800090c:	08003cb4 	.word	0x08003cb4
 8000910:	08003ccc 	.word	0x08003ccc
 8000914:	200002ec 	.word	0x200002ec
 8000918:	200003dc 	.word	0x200003dc
 800091c:	00000ce4 	.word	0x00000ce4
 8000920:	00000fff 	.word	0x00000fff
 8000924:	08003c68 	.word	0x08003c68
 8000928:	00000bb8 	.word	0x00000bb8
 800092c:	08003c7c 	.word	0x08003c7c
 8000930:	08003c8c 	.word	0x08003c8c
 8000934:	20000084 	.word	0x20000084
 8000938:	00001387 	.word	0x00001387
 800093c:	08003ca0 	.word	0x08003ca0
 8000940:	08003cac 	.word	0x08003cac

08000944 <Error_Handler>:
  \details Disables IRQ interrupts by setting special-purpose register PRIMASK.
           Can only be executed in Privileged modes.
 */
__STATIC_FORCEINLINE void __disable_irq(void)
{
  __ASM volatile ("cpsid i" : : : "memory");
 8000944:	b672      	cpsid	i
}

void Error_Handler(void)
{
__disable_irq();
while (1) {}
 8000946:	e7fe      	b.n	8000946 <Error_Handler+0x2>

08000948 <HAL_InitTick>:
  *       implementation  in user file.
  * @param TickPriority Tick interrupt priority.
  * @retval HAL status
  */
__weak HAL_StatusTypeDef HAL_InitTick(uint32_t TickPriority)
{
 8000948:	b510      	push	{r4, lr}
 800094a:	0004      	movs	r4, r0
  HAL_StatusTypeDef  status = HAL_OK;

  if ((uint32_t)uwTickFreq != 0UL)
 800094c:	4b11      	ldr	r3, [pc, #68]	@ (8000994 <HAL_InitTick+0x4c>)
 800094e:	7819      	ldrb	r1, [r3, #0]
 8000950:	2900      	cmp	r1, #0
 8000952:	d101      	bne.n	8000958 <HAL_InitTick+0x10>
      status = HAL_ERROR;
    }
  }
  else
  {
    status = HAL_ERROR;
 8000954:	2001      	movs	r0, #1
  }

  /* Return function status */
  return status;
}
 8000956:	bd10      	pop	{r4, pc}
    if (HAL_SYSTICK_Config(SystemCoreClock / (1000UL / (uint32_t)uwTickFreq)) == 0U)
 8000958:	20fa      	movs	r0, #250	@ 0xfa
 800095a:	0080      	lsls	r0, r0, #2
 800095c:	f7ff fbc2 	bl	80000e4 <__udivsi3>
 8000960:	0001      	movs	r1, r0
 8000962:	4b0d      	ldr	r3, [pc, #52]	@ (8000998 <HAL_InitTick+0x50>)
 8000964:	6818      	ldr	r0, [r3, #0]
 8000966:	f7ff fbbd 	bl	80000e4 <__udivsi3>
 800096a:	f000 fc91 	bl	8001290 <HAL_SYSTICK_Config>
 800096e:	2800      	cmp	r0, #0
 8000970:	d10d      	bne.n	800098e <HAL_InitTick+0x46>
      if (TickPriority < (1UL << __NVIC_PRIO_BITS))
 8000972:	2c03      	cmp	r4, #3
 8000974:	d901      	bls.n	800097a <HAL_InitTick+0x32>
        status = HAL_ERROR;
 8000976:	2001      	movs	r0, #1
 8000978:	e7ed      	b.n	8000956 <HAL_InitTick+0xe>
        HAL_NVIC_SetPriority(SysTick_IRQn, TickPriority, 0U);
 800097a:	3001      	adds	r0, #1
 800097c:	2200      	movs	r2, #0
 800097e:	0021      	movs	r1, r4
 8000980:	4240      	negs	r0, r0
 8000982:	f000 fc75 	bl	8001270 <HAL_NVIC_SetPriority>
        uwTickPrio = TickPriority;
 8000986:	4b05      	ldr	r3, [pc, #20]	@ (800099c <HAL_InitTick+0x54>)
 8000988:	601c      	str	r4, [r3, #0]
  HAL_StatusTypeDef  status = HAL_OK;
 800098a:	2000      	movs	r0, #0
 800098c:	e7e3      	b.n	8000956 <HAL_InitTick+0xe>
      status = HAL_ERROR;
 800098e:	2001      	movs	r0, #1
 8000990:	e7e1      	b.n	8000956 <HAL_InitTick+0xe>
 8000992:	46c0      	nop			@ (mov r8, r8)
 8000994:	20000000 	.word	0x20000000
 8000998:	20000008 	.word	0x20000008
 800099c:	20000004 	.word	0x20000004

080009a0 <HAL_Init>:
{
 80009a0:	b510      	push	{r4, lr}
  if (HAL_InitTick(TICK_INT_PRIORITY) != HAL_OK)
 80009a2:	2003      	movs	r0, #3
 80009a4:	f7ff ffd0 	bl	8000948 <HAL_InitTick>
 80009a8:	1e04      	subs	r4, r0, #0
 80009aa:	d002      	beq.n	80009b2 <HAL_Init+0x12>
    status = HAL_ERROR;
 80009ac:	2401      	movs	r4, #1
}
 80009ae:	0020      	movs	r0, r4
 80009b0:	bd10      	pop	{r4, pc}
    HAL_MspInit();
 80009b2:	f000 fe6d 	bl	8001690 <HAL_MspInit>
 80009b6:	e7fa      	b.n	80009ae <HAL_Init+0xe>

080009b8 <HAL_IncTick>:
  *      implementations in user file.
  * @retval None
  */
__weak void HAL_IncTick(void)
{
  uwTick += (uint32_t)uwTickFreq;
 80009b8:	4b03      	ldr	r3, [pc, #12]	@ (80009c8 <HAL_IncTick+0x10>)
 80009ba:	781b      	ldrb	r3, [r3, #0]
 80009bc:	4a03      	ldr	r2, [pc, #12]	@ (80009cc <HAL_IncTick+0x14>)
 80009be:	6811      	ldr	r1, [r2, #0]
 80009c0:	185b      	adds	r3, r3, r1
 80009c2:	6013      	str	r3, [r2, #0]
}
 80009c4:	4770      	bx	lr
 80009c6:	46c0      	nop			@ (mov r8, r8)
 80009c8:	20000000 	.word	0x20000000
 80009cc:	20000440 	.word	0x20000440

080009d0 <HAL_GetTick>:
  *       implementations in user file.
  * @retval tick value
  */
__weak uint32_t HAL_GetTick(void)
{
  return uwTick;
 80009d0:	4b01      	ldr	r3, [pc, #4]	@ (80009d8 <HAL_GetTick+0x8>)
 80009d2:	6818      	ldr	r0, [r3, #0]
}
 80009d4:	4770      	bx	lr
 80009d6:	46c0      	nop			@ (mov r8, r8)
 80009d8:	20000440 	.word	0x20000440

080009dc <HAL_Delay>:
  *       implementations in user file.
  * @param Delay  specifies the delay time length, in milliseconds.
  * @retval None
  */
__weak void HAL_Delay(uint32_t Delay)
{
 80009dc:	b570      	push	{r4, r5, r6, lr}
 80009de:	0004      	movs	r4, r0
  uint32_t tickstart = HAL_GetTick();
 80009e0:	f7ff fff6 	bl	80009d0 <HAL_GetTick>
 80009e4:	0005      	movs	r5, r0
  uint32_t wait = Delay;

  /* Add a freq to guarantee minimum wait */
  if (wait < HAL_MAX_DELAY)
 80009e6:	1c63      	adds	r3, r4, #1
 80009e8:	d002      	beq.n	80009f0 <HAL_Delay+0x14>
  {
    wait += (uint32_t)(uwTickFreq);
 80009ea:	4b04      	ldr	r3, [pc, #16]	@ (80009fc <HAL_Delay+0x20>)
 80009ec:	781b      	ldrb	r3, [r3, #0]
 80009ee:	18e4      	adds	r4, r4, r3
  }

  while ((HAL_GetTick() - tickstart) < wait)
 80009f0:	f7ff ffee 	bl	80009d0 <HAL_GetTick>
 80009f4:	1b40      	subs	r0, r0, r5
 80009f6:	42a0      	cmp	r0, r4
 80009f8:	d3fa      	bcc.n	80009f0 <HAL_Delay+0x14>
  {
  }
}
 80009fa:	bd70      	pop	{r4, r5, r6, pc}
 80009fc:	20000000 	.word	0x20000000

08000a00 <HAL_ADC_Init>:
  *         of structure "ADC_InitTypeDef".
  * @param hadc ADC handle
  * @retval HAL status
  */
HAL_StatusTypeDef HAL_ADC_Init(ADC_HandleTypeDef *hadc)
{
 8000a00:	b530      	push	{r4, r5, lr}
 8000a02:	b083      	sub	sp, #12
 8000a04:	0004      	movs	r4, r0
  HAL_StatusTypeDef tmp_hal_status = HAL_OK;
  uint32_t tmpCFGR1 = 0UL;
  uint32_t tmpCFGR2 = 0UL;
  uint32_t tmp_adc_reg_is_conversion_on_going;
  __IO uint32_t wait_loop_index = 0UL;
 8000a06:	2300      	movs	r3, #0
 8000a08:	9301      	str	r3, [sp, #4]

  /* Check ADC handle */
  if (hadc == NULL)
 8000a0a:	2800      	cmp	r0, #0
 8000a0c:	d100      	bne.n	8000a10 <HAL_ADC_Init+0x10>
 8000a0e:	e105      	b.n	8000c1c <HAL_ADC_Init+0x21c>
  /* continuous mode is disabled.                                             */
  assert_param(!((hadc->Init.DiscontinuousConvMode == ENABLE) && (hadc->Init.ContinuousConvMode == ENABLE)));

  /* Actions performed only if ADC is coming from state reset:                */
  /* - Initialization of ADC MSP                                              */
  if (hadc->State == HAL_ADC_STATE_RESET)
 8000a10:	6d83      	ldr	r3, [r0, #88]	@ 0x58
 8000a12:	2b00      	cmp	r3, #0
 8000a14:	d012      	beq.n	8000a3c <HAL_ADC_Init+0x3c>

    /* Initialize Lock */
    hadc->Lock = HAL_UNLOCKED;
  }

  if (LL_ADC_IsInternalRegulatorEnabled(hadc->Instance) == 0UL)
 8000a16:	6823      	ldr	r3, [r4, #0]
  * @param  ADCx ADC instance
  * @retval 0: internal regulator is disabled, 1: internal regulator is enabled.
  */
__STATIC_INLINE uint32_t LL_ADC_IsInternalRegulatorEnabled(const ADC_TypeDef *ADCx)
{
  return ((READ_BIT(ADCx->CR, ADC_CR_ADVREGEN) == (ADC_CR_ADVREGEN)) ? 1UL : 0UL);
 8000a18:	689a      	ldr	r2, [r3, #8]
 8000a1a:	00d2      	lsls	r2, r2, #3
 8000a1c:	d41b      	bmi.n	8000a56 <HAL_ADC_Init+0x56>
  MODIFY_REG(ADCx->CR,
 8000a1e:	6899      	ldr	r1, [r3, #8]
 8000a20:	4a7f      	ldr	r2, [pc, #508]	@ (8000c20 <HAL_ADC_Init+0x220>)
 8000a22:	4011      	ands	r1, r2
 8000a24:	2280      	movs	r2, #128	@ 0x80
 8000a26:	0552      	lsls	r2, r2, #21
 8000a28:	430a      	orrs	r2, r1
 8000a2a:	609a      	str	r2, [r3, #8]
    /* Delay for ADC stabilization time */
    /* Wait loop initialization and execution */
    /* Note: Variable divided by 2 to compensate partially              */
    /*       CPU processing cycles, scaling in us split to not          */
    /*       exceed 32 bits register capacity and handle low frequency. */
    wait_loop_index = ((LL_ADC_DELAY_INTERNAL_REGUL_STAB_US / 10UL) * (SystemCoreClock / (100000UL * 2UL)));
 8000a2c:	4b7d      	ldr	r3, [pc, #500]	@ (8000c24 <HAL_ADC_Init+0x224>)
 8000a2e:	6818      	ldr	r0, [r3, #0]
 8000a30:	497d      	ldr	r1, [pc, #500]	@ (8000c28 <HAL_ADC_Init+0x228>)
 8000a32:	f7ff fb57 	bl	80000e4 <__udivsi3>
 8000a36:	0040      	lsls	r0, r0, #1
 8000a38:	9001      	str	r0, [sp, #4]
    while (wait_loop_index != 0UL)
 8000a3a:	e009      	b.n	8000a50 <HAL_ADC_Init+0x50>
    HAL_ADC_MspInit(hadc);
 8000a3c:	f000 fe40 	bl	80016c0 <HAL_ADC_MspInit>
    ADC_CLEAR_ERRORCODE(hadc);
 8000a40:	2300      	movs	r3, #0
 8000a42:	65e3      	str	r3, [r4, #92]	@ 0x5c
    hadc->Lock = HAL_UNLOCKED;
 8000a44:	2254      	movs	r2, #84	@ 0x54
 8000a46:	54a3      	strb	r3, [r4, r2]
 8000a48:	e7e5      	b.n	8000a16 <HAL_ADC_Init+0x16>
    {
      wait_loop_index--;
 8000a4a:	9b01      	ldr	r3, [sp, #4]
 8000a4c:	3b01      	subs	r3, #1
 8000a4e:	9301      	str	r3, [sp, #4]
    while (wait_loop_index != 0UL)
 8000a50:	9b01      	ldr	r3, [sp, #4]
 8000a52:	2b00      	cmp	r3, #0
 8000a54:	d1f9      	bne.n	8000a4a <HAL_ADC_Init+0x4a>
  }

  /* Verification that ADC voltage regulator is correctly enabled, whether    */
  /* or not ADC is coming from state reset (if any potential problem of       */
  /* clocking, voltage regulator would not be enabled).                       */
  if (LL_ADC_IsInternalRegulatorEnabled(hadc->Instance) == 0UL)
 8000a56:	6823      	ldr	r3, [r4, #0]
  return ((READ_BIT(ADCx->CR, ADC_CR_ADVREGEN) == (ADC_CR_ADVREGEN)) ? 1UL : 0UL);
 8000a58:	689a      	ldr	r2, [r3, #8]
 8000a5a:	00d2      	lsls	r2, r2, #3
 8000a5c:	d500      	bpl.n	8000a60 <HAL_ADC_Init+0x60>
 8000a5e:	e09d      	b.n	8000b9c <HAL_ADC_Init+0x19c>
  {
    /* Update ADC state machine to error */
    SET_BIT(hadc->State, HAL_ADC_STATE_ERROR_INTERNAL);
 8000a60:	6da2      	ldr	r2, [r4, #88]	@ 0x58
 8000a62:	2110      	movs	r1, #16
 8000a64:	430a      	orrs	r2, r1
 8000a66:	65a2      	str	r2, [r4, #88]	@ 0x58

    /* Set ADC error code to ADC peripheral internal error */
    SET_BIT(hadc->ErrorCode, HAL_ADC_ERROR_INTERNAL);
 8000a68:	6de2      	ldr	r2, [r4, #92]	@ 0x5c
 8000a6a:	390f      	subs	r1, #15
 8000a6c:	430a      	orrs	r2, r1
 8000a6e:	65e2      	str	r2, [r4, #92]	@ 0x5c

    tmp_hal_status = HAL_ERROR;
 8000a70:	2001      	movs	r0, #1
  * @param  ADCx ADC instance
  * @retval 0: no conversion is on going on ADC group regular.
  */
__STATIC_INLINE uint32_t LL_ADC_REG_IsConversionOngoing(const ADC_TypeDef *ADCx)
{
  return ((READ_BIT(ADCx->CR, ADC_CR_ADSTART) == (ADC_CR_ADSTART)) ? 1UL : 0UL);
 8000a72:	689a      	ldr	r2, [r3, #8]
 8000a74:	2104      	movs	r1, #4
 8000a76:	000d      	movs	r5, r1
 8000a78:	4015      	ands	r5, r2
 8000a7a:	4211      	tst	r1, r2
 8000a7c:	d000      	beq.n	8000a80 <HAL_ADC_Init+0x80>
 8000a7e:	2501      	movs	r5, #1
  /* correctly completed and if there is no conversion on going on regular    */
  /* group (ADC may already be enabled at this point if HAL_ADC_Init() is     */
  /* called to update a parameter on the fly).                                */
  tmp_adc_reg_is_conversion_on_going = LL_ADC_REG_IsConversionOngoing(hadc->Instance);

  if (((hadc->State & HAL_ADC_STATE_ERROR_INTERNAL) == 0UL)
 8000a80:	6da2      	ldr	r2, [r4, #88]	@ 0x58
 8000a82:	06d2      	lsls	r2, r2, #27
 8000a84:	d500      	bpl.n	8000a88 <HAL_ADC_Init+0x88>
 8000a86:	e0c2      	b.n	8000c0e <HAL_ADC_Init+0x20e>
      && (tmp_adc_reg_is_conversion_on_going == 0UL)
 8000a88:	2d00      	cmp	r5, #0
 8000a8a:	d000      	beq.n	8000a8e <HAL_ADC_Init+0x8e>
 8000a8c:	e0bf      	b.n	8000c0e <HAL_ADC_Init+0x20e>
     )
  {
    /* Set ADC state */
    ADC_STATE_CLR_SET(hadc->State,
 8000a8e:	6da2      	ldr	r2, [r4, #88]	@ 0x58
 8000a90:	4966      	ldr	r1, [pc, #408]	@ (8000c2c <HAL_ADC_Init+0x22c>)
 8000a92:	400a      	ands	r2, r1
 8000a94:	3106      	adds	r1, #6
 8000a96:	31ff      	adds	r1, #255	@ 0xff
 8000a98:	430a      	orrs	r2, r1
 8000a9a:	65a2      	str	r2, [r4, #88]	@ 0x58
  return ((READ_BIT(ADCx->CR, ADC_CR_ADEN) == (ADC_CR_ADEN)) ? 1UL : 0UL);
 8000a9c:	689a      	ldr	r2, [r3, #8]
 8000a9e:	07d2      	lsls	r2, r2, #31
 8000aa0:	d452      	bmi.n	8000b48 <HAL_ADC_Init+0x148>
      /* without needing to reconfigure all other ADC groups/channels         */
      /* parameters):                                                         */
      /*   - internal measurement paths: temperature sensor, Vref             */
      /*     (set into HAL_ADC_ConfigChannel() )                              */

      tmpCFGR1 |= (hadc->Init.Resolution                                          |
 8000aa2:	68a2      	ldr	r2, [r4, #8]
                   ADC_CFGR1_AUTOWAIT((uint32_t)hadc->Init.LowPowerAutoWait)      |
 8000aa4:	7e21      	ldrb	r1, [r4, #24]
 8000aa6:	0389      	lsls	r1, r1, #14
      tmpCFGR1 |= (hadc->Init.Resolution                                          |
 8000aa8:	430a      	orrs	r2, r1
                   ADC_CFGR1_AUTOOFF((uint32_t)hadc->Init.LowPowerAutoPowerOff)   |
 8000aaa:	7e61      	ldrb	r1, [r4, #25]
 8000aac:	03c9      	lsls	r1, r1, #15
                   ADC_CFGR1_AUTOWAIT((uint32_t)hadc->Init.LowPowerAutoWait)      |
 8000aae:	430a      	orrs	r2, r1
                   ADC_CFGR1_CONTINUOUS((uint32_t)hadc->Init.ContinuousConvMode)  |
 8000ab0:	7ea5      	ldrb	r5, [r4, #26]
 8000ab2:	0369      	lsls	r1, r5, #13
                   ADC_CFGR1_AUTOOFF((uint32_t)hadc->Init.LowPowerAutoPowerOff)   |
 8000ab4:	430a      	orrs	r2, r1
                   ADC_CFGR1_OVERRUN(hadc->Init.Overrun)                          |
 8000ab6:	6b21      	ldr	r1, [r4, #48]	@ 0x30
 8000ab8:	2900      	cmp	r1, #0
 8000aba:	d001      	beq.n	8000ac0 <HAL_ADC_Init+0xc0>
 8000abc:	2180      	movs	r1, #128	@ 0x80
 8000abe:	0149      	lsls	r1, r1, #5
                   ADC_CFGR1_CONTINUOUS((uint32_t)hadc->Init.ContinuousConvMode)  |
 8000ac0:	430a      	orrs	r2, r1
                   hadc->Init.DataAlign                                           |
 8000ac2:	68e1      	ldr	r1, [r4, #12]
                   ADC_CFGR1_OVERRUN(hadc->Init.Overrun)                          |
 8000ac4:	430a      	orrs	r2, r1
                   ADC_SCAN_SEQ_MODE(hadc->Init.ScanConvMode)                     |
 8000ac6:	6921      	ldr	r1, [r4, #16]
 8000ac8:	2900      	cmp	r1, #0
 8000aca:	db69      	blt.n	8000ba0 <HAL_ADC_Init+0x1a0>
 8000acc:	2180      	movs	r1, #128	@ 0x80
 8000ace:	0389      	lsls	r1, r1, #14
                   hadc->Init.DataAlign                                           |
 8000ad0:	430a      	orrs	r2, r1
                   ADC_CFGR1_DMACONTREQ((uint32_t)hadc->Init.DMAContinuousRequests));
 8000ad2:	212c      	movs	r1, #44	@ 0x2c
 8000ad4:	5c61      	ldrb	r1, [r4, r1]
 8000ad6:	0049      	lsls	r1, r1, #1
                   ADC_SCAN_SEQ_MODE(hadc->Init.ScanConvMode)                     |
 8000ad8:	430a      	orrs	r2, r1

      /* Update setting of discontinuous mode only if continuous mode is disabled */
      if (hadc->Init.DiscontinuousConvMode == ENABLE)
 8000ada:	2120      	movs	r1, #32
 8000adc:	5c61      	ldrb	r1, [r4, r1]
 8000ade:	2901      	cmp	r1, #1
 8000ae0:	d061      	beq.n	8000ba6 <HAL_ADC_Init+0x1a6>
      /* Enable external trigger if trigger selection is different of software  */
      /* start.                                                                 */
      /* Note: This configuration keeps the hardware feature of parameter       */
      /*       ExternalTrigConvEdge "trigger edge none" equivalent to           */
      /*       software start.                                                  */
      if (hadc->Init.ExternalTrigConv != ADC_SOFTWARE_START)
 8000ae2:	6a61      	ldr	r1, [r4, #36]	@ 0x24
 8000ae4:	2900      	cmp	r1, #0
 8000ae6:	d005      	beq.n	8000af4 <HAL_ADC_Init+0xf4>
      {
        tmpCFGR1 |= ((hadc->Init.ExternalTrigConv & ADC_CFGR1_EXTSEL) |
 8000ae8:	25e0      	movs	r5, #224	@ 0xe0
 8000aea:	006d      	lsls	r5, r5, #1
 8000aec:	4029      	ands	r1, r5
                     hadc->Init.ExternalTrigConvEdge);
 8000aee:	6aa5      	ldr	r5, [r4, #40]	@ 0x28
        tmpCFGR1 |= ((hadc->Init.ExternalTrigConv & ADC_CFGR1_EXTSEL) |
 8000af0:	4329      	orrs	r1, r5
 8000af2:	430a      	orrs	r2, r1
      }

      /* Update ADC configuration register with previous settings */
      MODIFY_REG(hadc->Instance->CFGR1,
 8000af4:	68d9      	ldr	r1, [r3, #12]
 8000af6:	4d4e      	ldr	r5, [pc, #312]	@ (8000c30 <HAL_ADC_Init+0x230>)
 8000af8:	4029      	ands	r1, r5
 8000afa:	430a      	orrs	r2, r1
 8000afc:	60da      	str	r2, [r3, #12]
                 ADC_CFGR1_ALIGN   |
                 ADC_CFGR1_SCANDIR |
                 ADC_CFGR1_DMACFG,
                 tmpCFGR1);

      tmpCFGR2 |= ((hadc->Init.ClockPrescaler & ADC_CFGR2_CKMODE) |
 8000afe:	6863      	ldr	r3, [r4, #4]
 8000b00:	0f9b      	lsrs	r3, r3, #30
 8000b02:	079b      	lsls	r3, r3, #30
                   hadc->Init.TriggerFrequencyMode
 8000b04:	6ce2      	ldr	r2, [r4, #76]	@ 0x4c
      tmpCFGR2 |= ((hadc->Init.ClockPrescaler & ADC_CFGR2_CKMODE) |
 8000b06:	431a      	orrs	r2, r3
                  );

      if (hadc->Init.OversamplingMode == ENABLE)
 8000b08:	213c      	movs	r1, #60	@ 0x3c
 8000b0a:	5c61      	ldrb	r1, [r4, r1]
 8000b0c:	2901      	cmp	r1, #1
 8000b0e:	d059      	beq.n	8000bc4 <HAL_ADC_Init+0x1c4>
                     hadc->Init.Oversampling.RightBitShift |
                     hadc->Init.Oversampling.TriggeredMode
                    );
      }

      MODIFY_REG(hadc->Instance->CFGR2,
 8000b10:	6821      	ldr	r1, [r4, #0]
 8000b12:	690b      	ldr	r3, [r1, #16]
 8000b14:	4d47      	ldr	r5, [pc, #284]	@ (8000c34 <HAL_ADC_Init+0x234>)
 8000b16:	402b      	ands	r3, r5
 8000b18:	4313      	orrs	r3, r2
 8000b1a:	610b      	str	r3, [r1, #16]
                 ADC_CFGR2_TOVS,
                 tmpCFGR2);

      /* Configuration of ADC clock mode: asynchronous clock source           */
      /* with selectable prescaler.                                           */
      if (((hadc->Init.ClockPrescaler) != ADC_CLOCK_SYNC_PCLK_DIV1) &&
 8000b1c:	6863      	ldr	r3, [r4, #4]
 8000b1e:	22c0      	movs	r2, #192	@ 0xc0
 8000b20:	0612      	lsls	r2, r2, #24
 8000b22:	4293      	cmp	r3, r2
 8000b24:	d010      	beq.n	8000b48 <HAL_ADC_Init+0x148>
 8000b26:	2280      	movs	r2, #128	@ 0x80
 8000b28:	05d2      	lsls	r2, r2, #23
 8000b2a:	4293      	cmp	r3, r2
 8000b2c:	d00c      	beq.n	8000b48 <HAL_ADC_Init+0x148>
          ((hadc->Init.ClockPrescaler) != ADC_CLOCK_SYNC_PCLK_DIV2) &&
 8000b2e:	2280      	movs	r2, #128	@ 0x80
 8000b30:	0612      	lsls	r2, r2, #24
 8000b32:	4293      	cmp	r3, r2
 8000b34:	d008      	beq.n	8000b48 <HAL_ADC_Init+0x148>
          ((hadc->Init.ClockPrescaler) != ADC_CLOCK_SYNC_PCLK_DIV4))
      {
        MODIFY_REG(ADC1_COMMON->CCR,
 8000b36:	4940      	ldr	r1, [pc, #256]	@ (8000c38 <HAL_ADC_Init+0x238>)
 8000b38:	680a      	ldr	r2, [r1, #0]
 8000b3a:	4d40      	ldr	r5, [pc, #256]	@ (8000c3c <HAL_ADC_Init+0x23c>)
 8000b3c:	402a      	ands	r2, r5
 8000b3e:	25f0      	movs	r5, #240	@ 0xf0
 8000b40:	03ad      	lsls	r5, r5, #14
 8000b42:	402b      	ands	r3, r5
 8000b44:	4313      	orrs	r3, r2
 8000b46:	600b      	str	r3, [r1, #0]
                   hadc->Init.ClockPrescaler & ADC_CCR_PRESC);
      }
    }

    /* Channel sampling time configuration */
    LL_ADC_SetSamplingTimeCommonChannels(hadc->Instance, LL_ADC_SAMPLINGTIME_COMMON_1, hadc->Init.SamplingTimeCommon1);
 8000b48:	6821      	ldr	r1, [r4, #0]
 8000b4a:	6b63      	ldr	r3, [r4, #52]	@ 0x34
  MODIFY_REG(ADCx->SMPR,
 8000b4c:	694a      	ldr	r2, [r1, #20]
 8000b4e:	2507      	movs	r5, #7
 8000b50:	43aa      	bics	r2, r5
 8000b52:	4313      	orrs	r3, r2
 8000b54:	614b      	str	r3, [r1, #20]
    LL_ADC_SetSamplingTimeCommonChannels(hadc->Instance, LL_ADC_SAMPLINGTIME_COMMON_2, hadc->Init.SamplingTimeCommon2);
 8000b56:	6821      	ldr	r1, [r4, #0]
 8000b58:	6ba2      	ldr	r2, [r4, #56]	@ 0x38
 8000b5a:	694b      	ldr	r3, [r1, #20]
 8000b5c:	3569      	adds	r5, #105	@ 0x69
 8000b5e:	43ab      	bics	r3, r5
 8000b60:	0112      	lsls	r2, r2, #4
 8000b62:	4313      	orrs	r3, r2
 8000b64:	614b      	str	r3, [r1, #20]
    /*   emulated by software for alignment over all STM32 devices.           */
    /* - if scan mode is enabled, regular channels sequence length is set to  */
    /*   parameter "NbrOfConversion".                                         */
    /*   Channels must be configured into each rank using function            */
    /*   "HAL_ADC_ConfigChannel()".                                           */
    if (hadc->Init.ScanConvMode == ADC_SCAN_DISABLE)
 8000b66:	6923      	ldr	r3, [r4, #16]
 8000b68:	2b00      	cmp	r3, #0
 8000b6a:	d135      	bne.n	8000bd8 <HAL_ADC_Init+0x1d8>
    {
      /* Set sequencer scan length by clearing ranks above rank 1             */
      /* and do not modify rank 1 value.                                      */
      SET_BIT(hadc->Instance->CHSELR,
 8000b6c:	6822      	ldr	r2, [r4, #0]
 8000b6e:	6a91      	ldr	r1, [r2, #40]	@ 0x28
 8000b70:	3b10      	subs	r3, #16
 8000b72:	430b      	orrs	r3, r1
 8000b74:	6293      	str	r3, [r2, #40]	@ 0x28
    {
      /* Nothing to do */
    }
    /* Check back that ADC registers have effectively been configured to      */
    /* ensure of no potential problem of ADC core peripheral clocking.        */
    if (LL_ADC_GetSamplingTimeCommonChannels(hadc->Instance, LL_ADC_SAMPLINGTIME_COMMON_1)
 8000b76:	6823      	ldr	r3, [r4, #0]
  return (uint32_t)((READ_BIT(ADCx->SMPR, ADC_SMPR_SMP1 << (SamplingTimeY & ADC_SAMPLING_TIME_SMP_SHIFT_MASK)))
 8000b78:	695a      	ldr	r2, [r3, #20]
 8000b7a:	2307      	movs	r3, #7
 8000b7c:	4013      	ands	r3, r2
        == hadc->Init.SamplingTimeCommon1)
 8000b7e:	6b62      	ldr	r2, [r4, #52]	@ 0x34
    if (LL_ADC_GetSamplingTimeCommonChannels(hadc->Instance, LL_ADC_SAMPLINGTIME_COMMON_1)
 8000b80:	429a      	cmp	r2, r3
 8000b82:	d03b      	beq.n	8000bfc <HAL_ADC_Init+0x1fc>
                        HAL_ADC_STATE_READY);
    }
    else
    {
      /* Update ADC state machine to error */
      ADC_STATE_CLR_SET(hadc->State,
 8000b84:	6da3      	ldr	r3, [r4, #88]	@ 0x58
 8000b86:	2212      	movs	r2, #18
 8000b88:	4393      	bics	r3, r2
 8000b8a:	3a02      	subs	r2, #2
 8000b8c:	4313      	orrs	r3, r2
 8000b8e:	65a3      	str	r3, [r4, #88]	@ 0x58
                        HAL_ADC_STATE_BUSY_INTERNAL,
                        HAL_ADC_STATE_ERROR_INTERNAL);

      /* Set ADC error code to ADC peripheral internal error */
      SET_BIT(hadc->ErrorCode, HAL_ADC_ERROR_INTERNAL);
 8000b90:	6de3      	ldr	r3, [r4, #92]	@ 0x5c
 8000b92:	3a0f      	subs	r2, #15
 8000b94:	4313      	orrs	r3, r2
 8000b96:	65e3      	str	r3, [r4, #92]	@ 0x5c

      tmp_hal_status = HAL_ERROR;
 8000b98:	2001      	movs	r0, #1
 8000b9a:	e03d      	b.n	8000c18 <HAL_ADC_Init+0x218>
  HAL_StatusTypeDef tmp_hal_status = HAL_OK;
 8000b9c:	2000      	movs	r0, #0
 8000b9e:	e768      	b.n	8000a72 <HAL_ADC_Init+0x72>
                   ADC_SCAN_SEQ_MODE(hadc->Init.ScanConvMode)                     |
 8000ba0:	0049      	lsls	r1, r1, #1
 8000ba2:	0849      	lsrs	r1, r1, #1
 8000ba4:	e794      	b.n	8000ad0 <HAL_ADC_Init+0xd0>
        if (hadc->Init.ContinuousConvMode == DISABLE)
 8000ba6:	2d00      	cmp	r5, #0
 8000ba8:	d103      	bne.n	8000bb2 <HAL_ADC_Init+0x1b2>
          tmpCFGR1 |= ADC_CFGR1_DISCEN;
 8000baa:	2180      	movs	r1, #128	@ 0x80
 8000bac:	0249      	lsls	r1, r1, #9
 8000bae:	430a      	orrs	r2, r1
 8000bb0:	e797      	b.n	8000ae2 <HAL_ADC_Init+0xe2>
          SET_BIT(hadc->State, HAL_ADC_STATE_ERROR_CONFIG);
 8000bb2:	6da1      	ldr	r1, [r4, #88]	@ 0x58
 8000bb4:	2520      	movs	r5, #32
 8000bb6:	4329      	orrs	r1, r5
 8000bb8:	65a1      	str	r1, [r4, #88]	@ 0x58
          SET_BIT(hadc->ErrorCode, HAL_ADC_ERROR_INTERNAL);
 8000bba:	6de1      	ldr	r1, [r4, #92]	@ 0x5c
 8000bbc:	3d1f      	subs	r5, #31
 8000bbe:	4329      	orrs	r1, r5
 8000bc0:	65e1      	str	r1, [r4, #92]	@ 0x5c
 8000bc2:	e78e      	b.n	8000ae2 <HAL_ADC_Init+0xe2>
                     hadc->Init.Oversampling.Ratio         |
 8000bc4:	6c21      	ldr	r1, [r4, #64]	@ 0x40
                     (hadc->Init.ClockPrescaler & ADC_CFGR2_CKMODE) |
 8000bc6:	430b      	orrs	r3, r1
                     hadc->Init.Oversampling.RightBitShift |
 8000bc8:	6c61      	ldr	r1, [r4, #68]	@ 0x44
                     hadc->Init.Oversampling.Ratio         |
 8000bca:	430b      	orrs	r3, r1
                     hadc->Init.Oversampling.TriggeredMode
 8000bcc:	6ca1      	ldr	r1, [r4, #72]	@ 0x48
                     hadc->Init.Oversampling.RightBitShift |
 8000bce:	430b      	orrs	r3, r1
        tmpCFGR2 |= (ADC_CFGR2_OVSE |
 8000bd0:	4313      	orrs	r3, r2
 8000bd2:	2201      	movs	r2, #1
 8000bd4:	431a      	orrs	r2, r3
 8000bd6:	e79b      	b.n	8000b10 <HAL_ADC_Init+0x110>
    else if (hadc->Init.ScanConvMode == ADC_SCAN_ENABLE)
 8000bd8:	2280      	movs	r2, #128	@ 0x80
 8000bda:	0392      	lsls	r2, r2, #14
 8000bdc:	4293      	cmp	r3, r2
 8000bde:	d1ca      	bne.n	8000b76 <HAL_ADC_Init+0x176>
      MODIFY_REG(hadc->Instance->CHSELR,
 8000be0:	6821      	ldr	r1, [r4, #0]
 8000be2:	6a8b      	ldr	r3, [r1, #40]	@ 0x28
 8000be4:	69e3      	ldr	r3, [r4, #28]
 8000be6:	3b01      	subs	r3, #1
 8000be8:	009b      	lsls	r3, r3, #2
 8000bea:	221c      	movs	r2, #28
 8000bec:	401a      	ands	r2, r3
 8000bee:	2310      	movs	r3, #16
 8000bf0:	425b      	negs	r3, r3
 8000bf2:	4093      	lsls	r3, r2
 8000bf4:	6e22      	ldr	r2, [r4, #96]	@ 0x60
 8000bf6:	4313      	orrs	r3, r2
 8000bf8:	628b      	str	r3, [r1, #40]	@ 0x28
 8000bfa:	e7bc      	b.n	8000b76 <HAL_ADC_Init+0x176>
      ADC_CLEAR_ERRORCODE(hadc);
 8000bfc:	2300      	movs	r3, #0
 8000bfe:	65e3      	str	r3, [r4, #92]	@ 0x5c
      ADC_STATE_CLR_SET(hadc->State,
 8000c00:	6da3      	ldr	r3, [r4, #88]	@ 0x58
 8000c02:	2203      	movs	r2, #3
 8000c04:	4393      	bics	r3, r2
 8000c06:	3a02      	subs	r2, #2
 8000c08:	4313      	orrs	r3, r2
 8000c0a:	65a3      	str	r3, [r4, #88]	@ 0x58
 8000c0c:	e004      	b.n	8000c18 <HAL_ADC_Init+0x218>

  }
  else
  {
    /* Update ADC state machine to error */
    SET_BIT(hadc->State, HAL_ADC_STATE_ERROR_INTERNAL);
 8000c0e:	6da3      	ldr	r3, [r4, #88]	@ 0x58
 8000c10:	2210      	movs	r2, #16
 8000c12:	4313      	orrs	r3, r2
 8000c14:	65a3      	str	r3, [r4, #88]	@ 0x58

    tmp_hal_status = HAL_ERROR;
 8000c16:	2001      	movs	r0, #1
  }

  /* Return function status */
  return tmp_hal_status;
}
 8000c18:	b003      	add	sp, #12
 8000c1a:	bd30      	pop	{r4, r5, pc}
    return HAL_ERROR;
 8000c1c:	2001      	movs	r0, #1
 8000c1e:	e7fb      	b.n	8000c18 <HAL_ADC_Init+0x218>
 8000c20:	6fffffe8 	.word	0x6fffffe8
 8000c24:	20000008 	.word	0x20000008
 8000c28:	00030d40 	.word	0x00030d40
 8000c2c:	fffffefd 	.word	0xfffffefd
 8000c30:	ffde0201 	.word	0xffde0201
 8000c34:	1ffffc02 	.word	0x1ffffc02
 8000c38:	40012708 	.word	0x40012708
 8000c3c:	ffc3ffff 	.word	0xffc3ffff

08000c40 <HAL_ADC_PollForConversion>:
  * @param hadc ADC handle
  * @param Timeout Timeout value in millisecond.
  * @retval HAL status
  */
HAL_StatusTypeDef HAL_ADC_PollForConversion(ADC_HandleTypeDef *hadc, uint32_t Timeout)
{
 8000c40:	b5f8      	push	{r3, r4, r5, r6, r7, lr}
 8000c42:	0004      	movs	r4, r0
 8000c44:	000d      	movs	r5, r1

  /* Check the parameters */
  assert_param(IS_ADC_ALL_INSTANCE(hadc->Instance));

  /* If end of conversion selected to end of sequence conversions */
  if (hadc->Init.EOCSelection == ADC_EOC_SEQ_CONV)
 8000c46:	6946      	ldr	r6, [r0, #20]
 8000c48:	2e08      	cmp	r6, #8
 8000c4a:	d004      	beq.n	8000c56 <HAL_ADC_PollForConversion+0x16>
    /* each conversion:                                                       */
    /* Particular case is ADC configured in DMA mode and ADC sequencer with   */
    /* several ranks and polling for end of each conversion.                  */
    /* For code simplicity sake, this particular case is generalized to       */
    /* ADC configured in DMA mode and and polling for end of each conversion. */
    if ((hadc->Instance->CFGR1 & ADC_CFGR1_DMAEN) != 0UL)
 8000c4c:	6803      	ldr	r3, [r0, #0]
 8000c4e:	68db      	ldr	r3, [r3, #12]
 8000c50:	07db      	lsls	r3, r3, #31
 8000c52:	d419      	bmi.n	8000c88 <HAL_ADC_PollForConversion+0x48>

      return HAL_ERROR;
    }
    else
    {
      tmp_Flag_End = (ADC_FLAG_EOC);
 8000c54:	2604      	movs	r6, #4
    }
  }

  /* Get tick count */
  tickstart = HAL_GetTick();
 8000c56:	f7ff febb 	bl	80009d0 <HAL_GetTick>
 8000c5a:	0007      	movs	r7, r0

  /* Wait until End of unitary conversion or sequence conversions flag is raised */
  while ((hadc->Instance->ISR & tmp_Flag_End) == 0UL)
 8000c5c:	6823      	ldr	r3, [r4, #0]
 8000c5e:	681a      	ldr	r2, [r3, #0]
 8000c60:	4216      	tst	r6, r2
 8000c62:	d117      	bne.n	8000c94 <HAL_ADC_PollForConversion+0x54>
  {
    /* Check if timeout is disabled (set to infinite wait) */
    if (Timeout != HAL_MAX_DELAY)
 8000c64:	1c6b      	adds	r3, r5, #1
 8000c66:	d0f9      	beq.n	8000c5c <HAL_ADC_PollForConversion+0x1c>
    {
      if (((HAL_GetTick() - tickstart) > Timeout) || (Timeout == 0UL))
 8000c68:	f7ff feb2 	bl	80009d0 <HAL_GetTick>
 8000c6c:	1bc0      	subs	r0, r0, r7
 8000c6e:	42a8      	cmp	r0, r5
 8000c70:	d801      	bhi.n	8000c76 <HAL_ADC_PollForConversion+0x36>
 8000c72:	2d00      	cmp	r5, #0
 8000c74:	d1f2      	bne.n	8000c5c <HAL_ADC_PollForConversion+0x1c>
      {
        /* Update ADC state machine to timeout */
        SET_BIT(hadc->State, HAL_ADC_STATE_TIMEOUT);
 8000c76:	6da3      	ldr	r3, [r4, #88]	@ 0x58
 8000c78:	2204      	movs	r2, #4
 8000c7a:	4313      	orrs	r3, r2
 8000c7c:	65a3      	str	r3, [r4, #88]	@ 0x58

        /* Process unlocked */
        __HAL_UNLOCK(hadc);
 8000c7e:	2354      	movs	r3, #84	@ 0x54
 8000c80:	2200      	movs	r2, #0
 8000c82:	54e2      	strb	r2, [r4, r3]

        return HAL_TIMEOUT;
 8000c84:	2003      	movs	r0, #3
 8000c86:	e029      	b.n	8000cdc <HAL_ADC_PollForConversion+0x9c>
      SET_BIT(hadc->State, HAL_ADC_STATE_ERROR_CONFIG);
 8000c88:	6d83      	ldr	r3, [r0, #88]	@ 0x58
 8000c8a:	2220      	movs	r2, #32
 8000c8c:	4313      	orrs	r3, r2
 8000c8e:	6583      	str	r3, [r0, #88]	@ 0x58
      return HAL_ERROR;
 8000c90:	2001      	movs	r0, #1
 8000c92:	e023      	b.n	8000cdc <HAL_ADC_PollForConversion+0x9c>
      }
    }
  }

  /* Update ADC state machine */
  SET_BIT(hadc->State, HAL_ADC_STATE_REG_EOC);
 8000c94:	6da1      	ldr	r1, [r4, #88]	@ 0x58
 8000c96:	2280      	movs	r2, #128	@ 0x80
 8000c98:	0092      	lsls	r2, r2, #2
 8000c9a:	430a      	orrs	r2, r1
 8000c9c:	65a2      	str	r2, [r4, #88]	@ 0x58
  return ((READ_BIT(ADCx->CFGR1, ADC_CFGR1_EXTEN) == (LL_ADC_REG_TRIG_SOFTWARE & ADC_CFGR1_EXTEN)) ? 1UL : 0UL);
 8000c9e:	68d9      	ldr	r1, [r3, #12]
 8000ca0:	22c0      	movs	r2, #192	@ 0xc0
 8000ca2:	0112      	lsls	r2, r2, #4
 8000ca4:	4211      	tst	r1, r2
 8000ca6:	d113      	bne.n	8000cd0 <HAL_ADC_PollForConversion+0x90>

  /* Determine whether any further conversion upcoming on group regular       */
  /* by external trigger, continuous mode or scan sequence on going.          */
  if ((LL_ADC_REG_IsTriggerSourceSWStart(hadc->Instance) != 0UL)
      && (hadc->Init.ContinuousConvMode == DISABLE)
 8000ca8:	7ea2      	ldrb	r2, [r4, #26]
 8000caa:	2a00      	cmp	r2, #0
 8000cac:	d110      	bne.n	8000cd0 <HAL_ADC_PollForConversion+0x90>
     )
  {
    /* Check whether end of sequence is reached */
    if (__HAL_ADC_GET_FLAG(hadc, ADC_FLAG_EOS))
 8000cae:	681a      	ldr	r2, [r3, #0]
 8000cb0:	0712      	lsls	r2, r2, #28
 8000cb2:	d50d      	bpl.n	8000cd0 <HAL_ADC_PollForConversion+0x90>
  return ((READ_BIT(ADCx->CR, ADC_CR_ADSTART) == (ADC_CR_ADSTART)) ? 1UL : 0UL);
 8000cb4:	689a      	ldr	r2, [r3, #8]
 8000cb6:	0752      	lsls	r2, r2, #29
 8000cb8:	d411      	bmi.n	8000cde <HAL_ADC_PollForConversion+0x9e>
      {
        /* Disable ADC end of single conversion interrupt on group regular */
        /* Note: Overrun interrupt was enabled with EOC interrupt in          */
        /* HAL_Start_IT(), but is not disabled here because can be used       */
        /* by overrun IRQ process below.                                      */
        __HAL_ADC_DISABLE_IT(hadc, ADC_IT_EOC | ADC_IT_EOS);
 8000cba:	685a      	ldr	r2, [r3, #4]
 8000cbc:	210c      	movs	r1, #12
 8000cbe:	438a      	bics	r2, r1
 8000cc0:	605a      	str	r2, [r3, #4]

        /* Set ADC state */
        ADC_STATE_CLR_SET(hadc->State,
 8000cc2:	6da3      	ldr	r3, [r4, #88]	@ 0x58
 8000cc4:	4a0b      	ldr	r2, [pc, #44]	@ (8000cf4 <HAL_ADC_PollForConversion+0xb4>)
 8000cc6:	4013      	ands	r3, r2
 8000cc8:	3204      	adds	r2, #4
 8000cca:	32ff      	adds	r2, #255	@ 0xff
 8000ccc:	4313      	orrs	r3, r2
 8000cce:	65a3      	str	r3, [r4, #88]	@ 0x58
  }

  /* Clear end of conversion flag of regular group if low power feature       */
  /* "LowPowerAutoWait " is disabled, to not interfere with this feature      */
  /* until data register is read using function HAL_ADC_GetValue().           */
  if (hadc->Init.LowPowerAutoWait == DISABLE)
 8000cd0:	7e20      	ldrb	r0, [r4, #24]
 8000cd2:	2800      	cmp	r0, #0
 8000cd4:	d10c      	bne.n	8000cf0 <HAL_ADC_PollForConversion+0xb0>
  {
    /* Clear regular group conversion flag */
    __HAL_ADC_CLEAR_FLAG(hadc, (ADC_FLAG_EOC | ADC_FLAG_EOS));
 8000cd6:	6823      	ldr	r3, [r4, #0]
 8000cd8:	220c      	movs	r2, #12
 8000cda:	601a      	str	r2, [r3, #0]
  }

  /* Return function status */
  return HAL_OK;
}
 8000cdc:	bdf8      	pop	{r3, r4, r5, r6, r7, pc}
        SET_BIT(hadc->State, HAL_ADC_STATE_ERROR_CONFIG);
 8000cde:	6da3      	ldr	r3, [r4, #88]	@ 0x58
 8000ce0:	2220      	movs	r2, #32
 8000ce2:	4313      	orrs	r3, r2
 8000ce4:	65a3      	str	r3, [r4, #88]	@ 0x58
        SET_BIT(hadc->ErrorCode, HAL_ADC_ERROR_INTERNAL);
 8000ce6:	6de3      	ldr	r3, [r4, #92]	@ 0x5c
 8000ce8:	3a1f      	subs	r2, #31
 8000cea:	4313      	orrs	r3, r2
 8000cec:	65e3      	str	r3, [r4, #92]	@ 0x5c
 8000cee:	e7ef      	b.n	8000cd0 <HAL_ADC_PollForConversion+0x90>
  return HAL_OK;
 8000cf0:	2000      	movs	r0, #0
 8000cf2:	e7f3      	b.n	8000cdc <HAL_ADC_PollForConversion+0x9c>
 8000cf4:	fffffefe 	.word	0xfffffefe

08000cf8 <HAL_ADC_GetValue>:

  /* Note: EOC flag is not cleared here by software because automatically     */
  /*       cleared by hardware when reading register DR.                      */

  /* Return ADC converted value */
  return hadc->Instance->DR;
 8000cf8:	6803      	ldr	r3, [r0, #0]
 8000cfa:	6c18      	ldr	r0, [r3, #64]	@ 0x40
}
 8000cfc:	4770      	bx	lr
	...

08000d00 <HAL_ADC_ConfigChannel>:
  * @param hadc ADC handle
  * @param sConfig Structure of ADC channel assigned to ADC group regular.
  * @retval HAL status
  */
HAL_StatusTypeDef HAL_ADC_ConfigChannel(ADC_HandleTypeDef *hadc, const ADC_ChannelConfTypeDef *sConfig)
{
 8000d00:	b5f0      	push	{r4, r5, r6, r7, lr}
 8000d02:	b083      	sub	sp, #12
 8000d04:	0004      	movs	r4, r0
  HAL_StatusTypeDef tmp_hal_status = HAL_OK;
  uint32_t tmp_config_internal_channel;
  __IO uint32_t wait_loop_index = 0UL;
 8000d06:	2300      	movs	r3, #0
 8000d08:	9301      	str	r3, [sp, #4]
  /* Check the parameters */
  assert_param(IS_ADC_ALL_INSTANCE(hadc->Instance));
  assert_param(IS_ADC_CHANNEL(sConfig->Channel));
  assert_param(IS_ADC_SAMPLING_TIME_COMMON(sConfig->SamplingTime));

  if ((hadc->Init.ScanConvMode == ADC_SCAN_SEQ_FIXED)       ||
 8000d0a:	6905      	ldr	r5, [r0, #16]

    assert_param(IS_ADC_REGULAR_RANK(sConfig->Rank));
  }

  /* Process locked */
  __HAL_LOCK(hadc);
 8000d0c:	3354      	adds	r3, #84	@ 0x54
 8000d0e:	5cc3      	ldrb	r3, [r0, r3]
 8000d10:	2b01      	cmp	r3, #1
 8000d12:	d100      	bne.n	8000d16 <HAL_ADC_ConfigChannel+0x16>
 8000d14:	e121      	b.n	8000f5a <HAL_ADC_ConfigChannel+0x25a>
 8000d16:	2354      	movs	r3, #84	@ 0x54
 8000d18:	2201      	movs	r2, #1
 8000d1a:	54c2      	strb	r2, [r0, r3]
  /* Parameters that can be updated when ADC is disabled or enabled without   */
  /* conversion on going on regular group:                                    */
  /*  - Channel number                                                        */
  /*  - Channel sampling time                                                 */
  /*  - Management of internal measurement channels: VrefInt/TempSensor       */
  if (LL_ADC_REG_IsConversionOngoing(hadc->Instance) == 0UL)
 8000d1c:	6800      	ldr	r0, [r0, #0]
 8000d1e:	6883      	ldr	r3, [r0, #8]
 8000d20:	3203      	adds	r2, #3
 8000d22:	0016      	movs	r6, r2
 8000d24:	401e      	ands	r6, r3
 8000d26:	421a      	tst	r2, r3
 8000d28:	d009      	beq.n	8000d3e <HAL_ADC_ConfigChannel+0x3e>
  /* channel could be done on neither of the channel configuration structure  */
  /* parameters.                                                              */
  else
  {
    /* Update ADC state machine to error */
    SET_BIT(hadc->State, HAL_ADC_STATE_ERROR_CONFIG);
 8000d2a:	6da3      	ldr	r3, [r4, #88]	@ 0x58
 8000d2c:	321c      	adds	r2, #28
 8000d2e:	4313      	orrs	r3, r2
 8000d30:	65a3      	str	r3, [r4, #88]	@ 0x58

    tmp_hal_status = HAL_ERROR;
 8000d32:	2001      	movs	r0, #1
  }

  /* Process unlocked */
  __HAL_UNLOCK(hadc);
 8000d34:	2354      	movs	r3, #84	@ 0x54
 8000d36:	2200      	movs	r2, #0
 8000d38:	54e2      	strb	r2, [r4, r3]

  /* Return function status */
  return tmp_hal_status;
}
 8000d3a:	b003      	add	sp, #12
 8000d3c:	bdf0      	pop	{r4, r5, r6, r7, pc}
    if (sConfig->Rank != ADC_RANK_NONE)
 8000d3e:	684b      	ldr	r3, [r1, #4]
 8000d40:	2b02      	cmp	r3, #2
 8000d42:	d100      	bne.n	8000d46 <HAL_ADC_ConfigChannel+0x46>
 8000d44:	e0d5      	b.n	8000ef2 <HAL_ADC_ConfigChannel+0x1f2>
      if ((hadc->Init.ScanConvMode == ADC_SCAN_SEQ_FIXED)       ||
 8000d46:	2280      	movs	r2, #128	@ 0x80
 8000d48:	0612      	lsls	r2, r2, #24
 8000d4a:	4295      	cmp	r5, r2
 8000d4c:	d025      	beq.n	8000d9a <HAL_ADC_ConfigChannel+0x9a>
 8000d4e:	4a84      	ldr	r2, [pc, #528]	@ (8000f60 <HAL_ADC_ConfigChannel+0x260>)
 8000d50:	4295      	cmp	r5, r2
 8000d52:	d022      	beq.n	8000d9a <HAL_ADC_ConfigChannel+0x9a>
        MODIFY_REG(hadc->ADCGroupRegularSequencerRanks,
 8000d54:	6e22      	ldr	r2, [r4, #96]	@ 0x60
 8000d56:	271f      	movs	r7, #31
 8000d58:	401f      	ands	r7, r3
 8000d5a:	250f      	movs	r5, #15
 8000d5c:	40bd      	lsls	r5, r7
 8000d5e:	43aa      	bics	r2, r5
 8000d60:	680b      	ldr	r3, [r1, #0]
 8000d62:	025d      	lsls	r5, r3, #9
 8000d64:	d12f      	bne.n	8000dc6 <HAL_ADC_ConfigChannel+0xc6>
 8000d66:	0e9b      	lsrs	r3, r3, #26
 8000d68:	261f      	movs	r6, #31
 8000d6a:	401e      	ands	r6, r3
 8000d6c:	40be      	lsls	r6, r7
 8000d6e:	4332      	orrs	r2, r6
 8000d70:	6622      	str	r2, [r4, #96]	@ 0x60
        if (((sConfig->Rank >> 2UL) + 1UL) <= hadc->Init.NbrOfConversion)
 8000d72:	684d      	ldr	r5, [r1, #4]
 8000d74:	08ab      	lsrs	r3, r5, #2
 8000d76:	3301      	adds	r3, #1
 8000d78:	69e2      	ldr	r2, [r4, #28]
 8000d7a:	4293      	cmp	r3, r2
 8000d7c:	d813      	bhi.n	8000da6 <HAL_ADC_ConfigChannel+0xa6>
          LL_ADC_REG_SetSequencerRanks(hadc->Instance, sConfig->Rank, sConfig->Channel);
 8000d7e:	680e      	ldr	r6, [r1, #0]
  MODIFY_REG(ADCx->CHSELR,
 8000d80:	6a82      	ldr	r2, [r0, #40]	@ 0x28
 8000d82:	231f      	movs	r3, #31
 8000d84:	401d      	ands	r5, r3
 8000d86:	3b10      	subs	r3, #16
 8000d88:	001f      	movs	r7, r3
 8000d8a:	40af      	lsls	r7, r5
 8000d8c:	43ba      	bics	r2, r7
 8000d8e:	0eb6      	lsrs	r6, r6, #26
 8000d90:	4033      	ands	r3, r6
 8000d92:	40ab      	lsls	r3, r5
 8000d94:	4313      	orrs	r3, r2
 8000d96:	6283      	str	r3, [r0, #40]	@ 0x28
}
 8000d98:	e005      	b.n	8000da6 <HAL_ADC_ConfigChannel+0xa6>
        LL_ADC_REG_SetSequencerChAdd(hadc->Instance, sConfig->Channel);
 8000d9a:	680b      	ldr	r3, [r1, #0]
  SET_BIT(ADCx->CHSELR, (Channel & ADC_CHANNEL_ID_BITFIELD_MASK));
 8000d9c:	6a82      	ldr	r2, [r0, #40]	@ 0x28
 8000d9e:	025b      	lsls	r3, r3, #9
 8000da0:	0a5b      	lsrs	r3, r3, #9
 8000da2:	4313      	orrs	r3, r2
 8000da4:	6283      	str	r3, [r0, #40]	@ 0x28
      LL_ADC_SetChannelSamplingTime(hadc->Instance, sConfig->Channel, sConfig->SamplingTime);
 8000da6:	6820      	ldr	r0, [r4, #0]
 8000da8:	680b      	ldr	r3, [r1, #0]
 8000daa:	688d      	ldr	r5, [r1, #8]
  MODIFY_REG(ADCx->SMPR,
 8000dac:	6942      	ldr	r2, [r0, #20]
 8000dae:	021b      	lsls	r3, r3, #8
 8000db0:	439a      	bics	r2, r3
 8000db2:	402b      	ands	r3, r5
 8000db4:	4d6b      	ldr	r5, [pc, #428]	@ (8000f64 <HAL_ADC_ConfigChannel+0x264>)
 8000db6:	402b      	ands	r3, r5
 8000db8:	4313      	orrs	r3, r2
 8000dba:	6143      	str	r3, [r0, #20]
      if (__LL_ADC_IS_CHANNEL_INTERNAL(sConfig->Channel))
 8000dbc:	680b      	ldr	r3, [r1, #0]
 8000dbe:	2b00      	cmp	r3, #0
 8000dc0:	db5f      	blt.n	8000e82 <HAL_ADC_ConfigChannel+0x182>
  HAL_StatusTypeDef tmp_hal_status = HAL_OK;
 8000dc2:	2000      	movs	r0, #0
 8000dc4:	e7b6      	b.n	8000d34 <HAL_ADC_ConfigChannel+0x34>
        MODIFY_REG(hadc->ADCGroupRegularSequencerRanks,
 8000dc6:	07dd      	lsls	r5, r3, #31
 8000dc8:	d4d0      	bmi.n	8000d6c <HAL_ADC_ConfigChannel+0x6c>
 8000dca:	079d      	lsls	r5, r3, #30
 8000dcc:	d42f      	bmi.n	8000e2e <HAL_ADC_ConfigChannel+0x12e>
 8000dce:	075d      	lsls	r5, r3, #29
 8000dd0:	d42f      	bmi.n	8000e32 <HAL_ADC_ConfigChannel+0x132>
 8000dd2:	071d      	lsls	r5, r3, #28
 8000dd4:	d42f      	bmi.n	8000e36 <HAL_ADC_ConfigChannel+0x136>
 8000dd6:	06dd      	lsls	r5, r3, #27
 8000dd8:	d42f      	bmi.n	8000e3a <HAL_ADC_ConfigChannel+0x13a>
 8000dda:	069d      	lsls	r5, r3, #26
 8000ddc:	d42f      	bmi.n	8000e3e <HAL_ADC_ConfigChannel+0x13e>
 8000dde:	065d      	lsls	r5, r3, #25
 8000de0:	d42f      	bmi.n	8000e42 <HAL_ADC_ConfigChannel+0x142>
 8000de2:	061d      	lsls	r5, r3, #24
 8000de4:	d42f      	bmi.n	8000e46 <HAL_ADC_ConfigChannel+0x146>
 8000de6:	05dd      	lsls	r5, r3, #23
 8000de8:	d42f      	bmi.n	8000e4a <HAL_ADC_ConfigChannel+0x14a>
 8000dea:	059d      	lsls	r5, r3, #22
 8000dec:	d42f      	bmi.n	8000e4e <HAL_ADC_ConfigChannel+0x14e>
 8000dee:	055d      	lsls	r5, r3, #21
 8000df0:	d42f      	bmi.n	8000e52 <HAL_ADC_ConfigChannel+0x152>
 8000df2:	051d      	lsls	r5, r3, #20
 8000df4:	d42f      	bmi.n	8000e56 <HAL_ADC_ConfigChannel+0x156>
 8000df6:	04dd      	lsls	r5, r3, #19
 8000df8:	d42f      	bmi.n	8000e5a <HAL_ADC_ConfigChannel+0x15a>
 8000dfa:	049d      	lsls	r5, r3, #18
 8000dfc:	d42f      	bmi.n	8000e5e <HAL_ADC_ConfigChannel+0x15e>
 8000dfe:	045d      	lsls	r5, r3, #17
 8000e00:	d42f      	bmi.n	8000e62 <HAL_ADC_ConfigChannel+0x162>
 8000e02:	041d      	lsls	r5, r3, #16
 8000e04:	d42f      	bmi.n	8000e66 <HAL_ADC_ConfigChannel+0x166>
 8000e06:	03dd      	lsls	r5, r3, #15
 8000e08:	d42f      	bmi.n	8000e6a <HAL_ADC_ConfigChannel+0x16a>
 8000e0a:	039d      	lsls	r5, r3, #14
 8000e0c:	d42f      	bmi.n	8000e6e <HAL_ADC_ConfigChannel+0x16e>
 8000e0e:	035d      	lsls	r5, r3, #13
 8000e10:	d42f      	bmi.n	8000e72 <HAL_ADC_ConfigChannel+0x172>
 8000e12:	031d      	lsls	r5, r3, #12
 8000e14:	d42f      	bmi.n	8000e76 <HAL_ADC_ConfigChannel+0x176>
 8000e16:	02dd      	lsls	r5, r3, #11
 8000e18:	d42f      	bmi.n	8000e7a <HAL_ADC_ConfigChannel+0x17a>
 8000e1a:	029d      	lsls	r5, r3, #10
 8000e1c:	d42f      	bmi.n	8000e7e <HAL_ADC_ConfigChannel+0x17e>
 8000e1e:	2580      	movs	r5, #128	@ 0x80
 8000e20:	03ed      	lsls	r5, r5, #15
 8000e22:	001e      	movs	r6, r3
 8000e24:	402e      	ands	r6, r5
 8000e26:	422b      	tst	r3, r5
 8000e28:	d0a0      	beq.n	8000d6c <HAL_ADC_ConfigChannel+0x6c>
 8000e2a:	2616      	movs	r6, #22
 8000e2c:	e79e      	b.n	8000d6c <HAL_ADC_ConfigChannel+0x6c>
 8000e2e:	2601      	movs	r6, #1
 8000e30:	e79c      	b.n	8000d6c <HAL_ADC_ConfigChannel+0x6c>
 8000e32:	2602      	movs	r6, #2
 8000e34:	e79a      	b.n	8000d6c <HAL_ADC_ConfigChannel+0x6c>
 8000e36:	2603      	movs	r6, #3
 8000e38:	e798      	b.n	8000d6c <HAL_ADC_ConfigChannel+0x6c>
 8000e3a:	2604      	movs	r6, #4
 8000e3c:	e796      	b.n	8000d6c <HAL_ADC_ConfigChannel+0x6c>
 8000e3e:	2605      	movs	r6, #5
 8000e40:	e794      	b.n	8000d6c <HAL_ADC_ConfigChannel+0x6c>
 8000e42:	2606      	movs	r6, #6
 8000e44:	e792      	b.n	8000d6c <HAL_ADC_ConfigChannel+0x6c>
 8000e46:	2607      	movs	r6, #7
 8000e48:	e790      	b.n	8000d6c <HAL_ADC_ConfigChannel+0x6c>
 8000e4a:	2608      	movs	r6, #8
 8000e4c:	e78e      	b.n	8000d6c <HAL_ADC_ConfigChannel+0x6c>
 8000e4e:	2609      	movs	r6, #9
 8000e50:	e78c      	b.n	8000d6c <HAL_ADC_ConfigChannel+0x6c>
 8000e52:	260a      	movs	r6, #10
 8000e54:	e78a      	b.n	8000d6c <HAL_ADC_ConfigChannel+0x6c>
 8000e56:	260b      	movs	r6, #11
 8000e58:	e788      	b.n	8000d6c <HAL_ADC_ConfigChannel+0x6c>
 8000e5a:	260c      	movs	r6, #12
 8000e5c:	e786      	b.n	8000d6c <HAL_ADC_ConfigChannel+0x6c>
 8000e5e:	260d      	movs	r6, #13
 8000e60:	e784      	b.n	8000d6c <HAL_ADC_ConfigChannel+0x6c>
 8000e62:	260e      	movs	r6, #14
 8000e64:	e782      	b.n	8000d6c <HAL_ADC_ConfigChannel+0x6c>
 8000e66:	260f      	movs	r6, #15
 8000e68:	e780      	b.n	8000d6c <HAL_ADC_ConfigChannel+0x6c>
 8000e6a:	2610      	movs	r6, #16
 8000e6c:	e77e      	b.n	8000d6c <HAL_ADC_ConfigChannel+0x6c>
 8000e6e:	2611      	movs	r6, #17
 8000e70:	e77c      	b.n	8000d6c <HAL_ADC_ConfigChannel+0x6c>
 8000e72:	2612      	movs	r6, #18
 8000e74:	e77a      	b.n	8000d6c <HAL_ADC_ConfigChannel+0x6c>
 8000e76:	2613      	movs	r6, #19
 8000e78:	e778      	b.n	8000d6c <HAL_ADC_ConfigChannel+0x6c>
 8000e7a:	2614      	movs	r6, #20
 8000e7c:	e776      	b.n	8000d6c <HAL_ADC_ConfigChannel+0x6c>
 8000e7e:	2615      	movs	r6, #21
 8000e80:	e774      	b.n	8000d6c <HAL_ADC_ConfigChannel+0x6c>
  return (uint32_t)(READ_BIT(ADCxy_COMMON->CCR, ADC_CCR_VREFEN | ADC_CCR_TSEN));
 8000e82:	4a39      	ldr	r2, [pc, #228]	@ (8000f68 <HAL_ADC_ConfigChannel+0x268>)
 8000e84:	6811      	ldr	r1, [r2, #0]
 8000e86:	22c0      	movs	r2, #192	@ 0xc0
 8000e88:	0412      	lsls	r2, r2, #16
 8000e8a:	400a      	ands	r2, r1
        if ((sConfig->Channel == ADC_CHANNEL_TEMPSENSOR) &&
 8000e8c:	4837      	ldr	r0, [pc, #220]	@ (8000f6c <HAL_ADC_ConfigChannel+0x26c>)
 8000e8e:	4283      	cmp	r3, r0
 8000e90:	d004      	beq.n	8000e9c <HAL_ADC_ConfigChannel+0x19c>
        else if ((sConfig->Channel == ADC_CHANNEL_VREFINT) &&
 8000e92:	4837      	ldr	r0, [pc, #220]	@ (8000f70 <HAL_ADC_ConfigChannel+0x270>)
 8000e94:	4283      	cmp	r3, r0
 8000e96:	d01f      	beq.n	8000ed8 <HAL_ADC_ConfigChannel+0x1d8>
  HAL_StatusTypeDef tmp_hal_status = HAL_OK;
 8000e98:	2000      	movs	r0, #0
 8000e9a:	e74b      	b.n	8000d34 <HAL_ADC_ConfigChannel+0x34>
        if ((sConfig->Channel == ADC_CHANNEL_TEMPSENSOR) &&
 8000e9c:	0208      	lsls	r0, r1, #8
 8000e9e:	d4f8      	bmi.n	8000e92 <HAL_ADC_ConfigChannel+0x192>
          LL_ADC_SetCommonPathInternalCh(__LL_ADC_COMMON_INSTANCE(hadc->Instance),
 8000ea0:	2380      	movs	r3, #128	@ 0x80
 8000ea2:	041b      	lsls	r3, r3, #16
 8000ea4:	4313      	orrs	r3, r2
  MODIFY_REG(ADCxy_COMMON->CCR, ADC_CCR_VREFEN | ADC_CCR_TSEN, PathInternal);
 8000ea6:	4930      	ldr	r1, [pc, #192]	@ (8000f68 <HAL_ADC_ConfigChannel+0x268>)
 8000ea8:	680a      	ldr	r2, [r1, #0]
 8000eaa:	4832      	ldr	r0, [pc, #200]	@ (8000f74 <HAL_ADC_ConfigChannel+0x274>)
 8000eac:	4002      	ands	r2, r0
 8000eae:	4313      	orrs	r3, r2
 8000eb0:	600b      	str	r3, [r1, #0]
          wait_loop_index = (((LL_ADC_DELAY_TEMPSENSOR_STAB_US / 10UL) * (SystemCoreClock / (100000UL * 2UL))) + 1UL);
 8000eb2:	4b31      	ldr	r3, [pc, #196]	@ (8000f78 <HAL_ADC_ConfigChannel+0x278>)
 8000eb4:	6818      	ldr	r0, [r3, #0]
 8000eb6:	4931      	ldr	r1, [pc, #196]	@ (8000f7c <HAL_ADC_ConfigChannel+0x27c>)
 8000eb8:	f7ff f914 	bl	80000e4 <__udivsi3>
 8000ebc:	0043      	lsls	r3, r0, #1
 8000ebe:	181b      	adds	r3, r3, r0
 8000ec0:	009b      	lsls	r3, r3, #2
 8000ec2:	3301      	adds	r3, #1
 8000ec4:	9301      	str	r3, [sp, #4]
          while (wait_loop_index != 0UL)
 8000ec6:	e002      	b.n	8000ece <HAL_ADC_ConfigChannel+0x1ce>
            wait_loop_index--;
 8000ec8:	9b01      	ldr	r3, [sp, #4]
 8000eca:	3b01      	subs	r3, #1
 8000ecc:	9301      	str	r3, [sp, #4]
          while (wait_loop_index != 0UL)
 8000ece:	9b01      	ldr	r3, [sp, #4]
 8000ed0:	2b00      	cmp	r3, #0
 8000ed2:	d1f9      	bne.n	8000ec8 <HAL_ADC_ConfigChannel+0x1c8>
  HAL_StatusTypeDef tmp_hal_status = HAL_OK;
 8000ed4:	2000      	movs	r0, #0
 8000ed6:	e72d      	b.n	8000d34 <HAL_ADC_ConfigChannel+0x34>
        else if ((sConfig->Channel == ADC_CHANNEL_VREFINT) &&
 8000ed8:	0249      	lsls	r1, r1, #9
 8000eda:	d43c      	bmi.n	8000f56 <HAL_ADC_ConfigChannel+0x256>
          LL_ADC_SetCommonPathInternalCh(__LL_ADC_COMMON_INSTANCE(hadc->Instance),
 8000edc:	2380      	movs	r3, #128	@ 0x80
 8000ede:	03db      	lsls	r3, r3, #15
 8000ee0:	4313      	orrs	r3, r2
 8000ee2:	4921      	ldr	r1, [pc, #132]	@ (8000f68 <HAL_ADC_ConfigChannel+0x268>)
 8000ee4:	680a      	ldr	r2, [r1, #0]
 8000ee6:	4823      	ldr	r0, [pc, #140]	@ (8000f74 <HAL_ADC_ConfigChannel+0x274>)
 8000ee8:	4002      	ands	r2, r0
 8000eea:	4313      	orrs	r3, r2
 8000eec:	600b      	str	r3, [r1, #0]
  HAL_StatusTypeDef tmp_hal_status = HAL_OK;
 8000eee:	2000      	movs	r0, #0
}
 8000ef0:	e720      	b.n	8000d34 <HAL_ADC_ConfigChannel+0x34>
      if ((hadc->Init.ScanConvMode == ADC_SCAN_SEQ_FIXED)       ||
 8000ef2:	2380      	movs	r3, #128	@ 0x80
 8000ef4:	061b      	lsls	r3, r3, #24
 8000ef6:	429d      	cmp	r5, r3
 8000ef8:	d002      	beq.n	8000f00 <HAL_ADC_ConfigChannel+0x200>
 8000efa:	4b19      	ldr	r3, [pc, #100]	@ (8000f60 <HAL_ADC_ConfigChannel+0x260>)
 8000efc:	429d      	cmp	r5, r3
 8000efe:	d105      	bne.n	8000f0c <HAL_ADC_ConfigChannel+0x20c>
        LL_ADC_REG_SetSequencerChRem(hadc->Instance, sConfig->Channel);
 8000f00:	680b      	ldr	r3, [r1, #0]
  CLEAR_BIT(ADCx->CHSELR, (Channel & ADC_CHANNEL_ID_BITFIELD_MASK));
 8000f02:	6a82      	ldr	r2, [r0, #40]	@ 0x28
 8000f04:	025b      	lsls	r3, r3, #9
 8000f06:	0a5b      	lsrs	r3, r3, #9
 8000f08:	439a      	bics	r2, r3
 8000f0a:	6282      	str	r2, [r0, #40]	@ 0x28
      if (__LL_ADC_IS_CHANNEL_INTERNAL(sConfig->Channel))
 8000f0c:	680b      	ldr	r3, [r1, #0]
 8000f0e:	2b00      	cmp	r3, #0
 8000f10:	db01      	blt.n	8000f16 <HAL_ADC_ConfigChannel+0x216>
  HAL_StatusTypeDef tmp_hal_status = HAL_OK;
 8000f12:	2000      	movs	r0, #0
 8000f14:	e70e      	b.n	8000d34 <HAL_ADC_ConfigChannel+0x34>
  return (uint32_t)(READ_BIT(ADCxy_COMMON->CCR, ADC_CCR_VREFEN | ADC_CCR_TSEN));
 8000f16:	4a14      	ldr	r2, [pc, #80]	@ (8000f68 <HAL_ADC_ConfigChannel+0x268>)
 8000f18:	6812      	ldr	r2, [r2, #0]
        if (sConfig->Channel == ADC_CHANNEL_TEMPSENSOR)
 8000f1a:	4914      	ldr	r1, [pc, #80]	@ (8000f6c <HAL_ADC_ConfigChannel+0x26c>)
 8000f1c:	428b      	cmp	r3, r1
 8000f1e:	d004      	beq.n	8000f2a <HAL_ADC_ConfigChannel+0x22a>
        else if (sConfig->Channel == ADC_CHANNEL_VREFINT)
 8000f20:	4913      	ldr	r1, [pc, #76]	@ (8000f70 <HAL_ADC_ConfigChannel+0x270>)
 8000f22:	428b      	cmp	r3, r1
 8000f24:	d00c      	beq.n	8000f40 <HAL_ADC_ConfigChannel+0x240>
  HAL_StatusTypeDef tmp_hal_status = HAL_OK;
 8000f26:	2000      	movs	r0, #0
 8000f28:	e704      	b.n	8000d34 <HAL_ADC_ConfigChannel+0x34>
          LL_ADC_SetCommonPathInternalCh(__LL_ADC_COMMON_INSTANCE(hadc->Instance),
 8000f2a:	2380      	movs	r3, #128	@ 0x80
 8000f2c:	03db      	lsls	r3, r3, #15
 8000f2e:	401a      	ands	r2, r3
  MODIFY_REG(ADCxy_COMMON->CCR, ADC_CCR_VREFEN | ADC_CCR_TSEN, PathInternal);
 8000f30:	490d      	ldr	r1, [pc, #52]	@ (8000f68 <HAL_ADC_ConfigChannel+0x268>)
 8000f32:	680b      	ldr	r3, [r1, #0]
 8000f34:	480f      	ldr	r0, [pc, #60]	@ (8000f74 <HAL_ADC_ConfigChannel+0x274>)
 8000f36:	4003      	ands	r3, r0
 8000f38:	431a      	orrs	r2, r3
 8000f3a:	600a      	str	r2, [r1, #0]
  HAL_StatusTypeDef tmp_hal_status = HAL_OK;
 8000f3c:	2000      	movs	r0, #0
}
 8000f3e:	e6f9      	b.n	8000d34 <HAL_ADC_ConfigChannel+0x34>
          LL_ADC_SetCommonPathInternalCh(__LL_ADC_COMMON_INSTANCE(hadc->Instance),
 8000f40:	2380      	movs	r3, #128	@ 0x80
 8000f42:	041b      	lsls	r3, r3, #16
 8000f44:	401a      	ands	r2, r3
  MODIFY_REG(ADCxy_COMMON->CCR, ADC_CCR_VREFEN | ADC_CCR_TSEN, PathInternal);
 8000f46:	4908      	ldr	r1, [pc, #32]	@ (8000f68 <HAL_ADC_ConfigChannel+0x268>)
 8000f48:	680b      	ldr	r3, [r1, #0]
 8000f4a:	480a      	ldr	r0, [pc, #40]	@ (8000f74 <HAL_ADC_ConfigChannel+0x274>)
 8000f4c:	4003      	ands	r3, r0
 8000f4e:	431a      	orrs	r2, r3
 8000f50:	600a      	str	r2, [r1, #0]
  HAL_StatusTypeDef tmp_hal_status = HAL_OK;
 8000f52:	2000      	movs	r0, #0
}
 8000f54:	e6ee      	b.n	8000d34 <HAL_ADC_ConfigChannel+0x34>
 8000f56:	2000      	movs	r0, #0
 8000f58:	e6ec      	b.n	8000d34 <HAL_ADC_ConfigChannel+0x34>
  __HAL_LOCK(hadc);
 8000f5a:	2002      	movs	r0, #2
 8000f5c:	e6ed      	b.n	8000d3a <HAL_ADC_ConfigChannel+0x3a>
 8000f5e:	46c0      	nop			@ (mov r8, r8)
 8000f60:	80000004 	.word	0x80000004
 8000f64:	7fffff00 	.word	0x7fffff00
 8000f68:	40012708 	.word	0x40012708
 8000f6c:	a4000200 	.word	0xa4000200
 8000f70:	a8000400 	.word	0xa8000400
 8000f74:	ff3fffff 	.word	0xff3fffff
 8000f78:	20000008 	.word	0x20000008
 8000f7c:	00030d40 	.word	0x00030d40

08000f80 <ADC_ConversionStop>:
  *         stopped to disable the ADC.
  * @param  hadc ADC handle
  * @retval HAL status.
  */
HAL_StatusTypeDef ADC_ConversionStop(ADC_HandleTypeDef *hadc)
{
 8000f80:	b570      	push	{r4, r5, r6, lr}
 8000f82:	0004      	movs	r4, r0
  /* Check the parameters */
  assert_param(IS_ADC_ALL_INSTANCE(hadc->Instance));

  /* Verification if ADC is not already stopped on regular group to bypass    */
  /* this function if not needed.                                             */
  if (LL_ADC_REG_IsConversionOngoing(hadc->Instance) != 0UL)
 8000f84:	6802      	ldr	r2, [r0, #0]
  return ((READ_BIT(ADCx->CR, ADC_CR_ADSTART) == (ADC_CR_ADSTART)) ? 1UL : 0UL);
 8000f86:	6893      	ldr	r3, [r2, #8]
 8000f88:	075b      	lsls	r3, r3, #29
 8000f8a:	d520      	bpl.n	8000fce <ADC_ConversionStop+0x4e>
  return ((READ_BIT(ADCx->CR, ADC_CR_ADDIS) == (ADC_CR_ADDIS)) ? 1UL : 0UL);
 8000f8c:	6893      	ldr	r3, [r2, #8]
 8000f8e:	079b      	lsls	r3, r3, #30
 8000f90:	d405      	bmi.n	8000f9e <ADC_ConversionStop+0x1e>
  MODIFY_REG(ADCx->CR,
 8000f92:	6893      	ldr	r3, [r2, #8]
 8000f94:	490f      	ldr	r1, [pc, #60]	@ (8000fd4 <ADC_ConversionStop+0x54>)
 8000f96:	400b      	ands	r3, r1
 8000f98:	2110      	movs	r1, #16
 8000f9a:	430b      	orrs	r3, r1
 8000f9c:	6093      	str	r3, [r2, #8]
      LL_ADC_REG_StopConversion(hadc->Instance);
    }

    /* Wait for conversion effectively stopped */
    /* Get tick count */
    tickstart = HAL_GetTick();
 8000f9e:	f7ff fd17 	bl	80009d0 <HAL_GetTick>
 8000fa2:	0005      	movs	r5, r0

    while ((hadc->Instance->CR & ADC_CR_ADSTART) != 0UL)
 8000fa4:	6823      	ldr	r3, [r4, #0]
 8000fa6:	689b      	ldr	r3, [r3, #8]
 8000fa8:	075b      	lsls	r3, r3, #29
 8000faa:	d50e      	bpl.n	8000fca <ADC_ConversionStop+0x4a>
    {
      if ((HAL_GetTick() - tickstart) > ADC_STOP_CONVERSION_TIMEOUT)
 8000fac:	f7ff fd10 	bl	80009d0 <HAL_GetTick>
 8000fb0:	1b40      	subs	r0, r0, r5
 8000fb2:	2802      	cmp	r0, #2
 8000fb4:	d9f6      	bls.n	8000fa4 <ADC_ConversionStop+0x24>
      {
        /* Update ADC state machine to error */
        SET_BIT(hadc->State, HAL_ADC_STATE_ERROR_INTERNAL);
 8000fb6:	6da3      	ldr	r3, [r4, #88]	@ 0x58
 8000fb8:	2210      	movs	r2, #16
 8000fba:	4313      	orrs	r3, r2
 8000fbc:	65a3      	str	r3, [r4, #88]	@ 0x58

        /* Set ADC error code to ADC peripheral internal error */
        SET_BIT(hadc->ErrorCode, HAL_ADC_ERROR_INTERNAL);
 8000fbe:	6de3      	ldr	r3, [r4, #92]	@ 0x5c
 8000fc0:	3a0f      	subs	r2, #15
 8000fc2:	4313      	orrs	r3, r2
 8000fc4:	65e3      	str	r3, [r4, #92]	@ 0x5c

        return HAL_ERROR;
 8000fc6:	2001      	movs	r0, #1
 8000fc8:	e002      	b.n	8000fd0 <ADC_ConversionStop+0x50>
    }

  }

  /* Return HAL status */
  return HAL_OK;
 8000fca:	2000      	movs	r0, #0
 8000fcc:	e000      	b.n	8000fd0 <ADC_ConversionStop+0x50>
 8000fce:	2000      	movs	r0, #0
}
 8000fd0:	bd70      	pop	{r4, r5, r6, pc}
 8000fd2:	46c0      	nop			@ (mov r8, r8)
 8000fd4:	7fffffe8 	.word	0x7fffffe8

08000fd8 <ADC_Enable>:
  *         and voltage regulator must be enabled (done into HAL_ADC_Init()).
  * @param hadc ADC handle
  * @retval HAL status.
  */
HAL_StatusTypeDef ADC_Enable(ADC_HandleTypeDef *hadc)
{
 8000fd8:	b530      	push	{r4, r5, lr}
 8000fda:	b083      	sub	sp, #12
 8000fdc:	0004      	movs	r4, r0
  uint32_t tickstart;
  __IO uint32_t wait_loop_index = 0UL;
 8000fde:	2300      	movs	r3, #0
 8000fe0:	9301      	str	r3, [sp, #4]

  /* ADC enable and wait for ADC ready (in case of ADC is disabled or         */
  /* enabling phase not yet completed: flag ADC ready not yet set).           */
  /* Timeout implemented to not be stuck if ADC cannot be enabled (possible   */
  /* causes: ADC clock not running, ...).                                     */
  if (LL_ADC_IsEnabled(hadc->Instance) == 0UL)
 8000fe2:	6803      	ldr	r3, [r0, #0]
  return ((READ_BIT(ADCx->CR, ADC_CR_ADEN) == (ADC_CR_ADEN)) ? 1UL : 0UL);
 8000fe4:	689a      	ldr	r2, [r3, #8]
 8000fe6:	07d2      	lsls	r2, r2, #31
 8000fe8:	d44d      	bmi.n	8001086 <ADC_Enable+0xae>
  {
    /* Check if conditions to enable the ADC are fulfilled */
    if ((hadc->Instance->CR & (ADC_CR_ADCAL | ADC_CR_ADSTP | ADC_CR_ADSTART | ADC_CR_ADDIS | ADC_CR_ADEN)) != 0UL)
 8000fea:	6899      	ldr	r1, [r3, #8]
 8000fec:	4a27      	ldr	r2, [pc, #156]	@ (800108c <ADC_Enable+0xb4>)
 8000fee:	4211      	tst	r1, r2
 8000ff0:	d117      	bne.n	8001022 <ADC_Enable+0x4a>
  MODIFY_REG(ADCx->CR,
 8000ff2:	689a      	ldr	r2, [r3, #8]
 8000ff4:	4926      	ldr	r1, [pc, #152]	@ (8001090 <ADC_Enable+0xb8>)
 8000ff6:	400a      	ands	r2, r1
 8000ff8:	2101      	movs	r1, #1
 8000ffa:	430a      	orrs	r2, r1
 8000ffc:	609a      	str	r2, [r3, #8]
  return (uint32_t)(READ_BIT(ADCxy_COMMON->CCR, ADC_CCR_VREFEN | ADC_CCR_TSEN));
 8000ffe:	4b25      	ldr	r3, [pc, #148]	@ (8001094 <ADC_Enable+0xbc>)
 8001000:	681b      	ldr	r3, [r3, #0]
    }

    /* Enable the ADC peripheral */
    LL_ADC_Enable(hadc->Instance);

    if ((LL_ADC_GetCommonPathInternalCh(__LL_ADC_COMMON_INSTANCE(hadc->Instance)) & LL_ADC_PATH_INTERNAL_TEMPSENSOR)
 8001002:	021b      	lsls	r3, r3, #8
 8001004:	d517      	bpl.n	8001036 <ADC_Enable+0x5e>
      /* Wait loop initialization and execution */
      /* Note: Variable divided by 2 to compensate partially              */
      /*       CPU processing cycles, scaling in us split to not          */
      /*       exceed 32 bits register capacity and handle low frequency. */
      wait_loop_index = ((LL_ADC_DELAY_TEMPSENSOR_BUFFER_STAB_US / 10UL)
                         * ((SystemCoreClock / (100000UL * 2UL)) + 1UL));
 8001006:	4b24      	ldr	r3, [pc, #144]	@ (8001098 <ADC_Enable+0xc0>)
 8001008:	6818      	ldr	r0, [r3, #0]
 800100a:	4924      	ldr	r1, [pc, #144]	@ (800109c <ADC_Enable+0xc4>)
 800100c:	f7ff f86a 	bl	80000e4 <__udivsi3>
 8001010:	3001      	adds	r0, #1
      wait_loop_index = ((LL_ADC_DELAY_TEMPSENSOR_BUFFER_STAB_US / 10UL)
 8001012:	9001      	str	r0, [sp, #4]
      while (wait_loop_index != 0UL)
 8001014:	9b01      	ldr	r3, [sp, #4]
 8001016:	2b00      	cmp	r3, #0
 8001018:	d00d      	beq.n	8001036 <ADC_Enable+0x5e>
      {
        wait_loop_index--;
 800101a:	9b01      	ldr	r3, [sp, #4]
 800101c:	3b01      	subs	r3, #1
 800101e:	9301      	str	r3, [sp, #4]
 8001020:	e7f8      	b.n	8001014 <ADC_Enable+0x3c>
      SET_BIT(hadc->State, HAL_ADC_STATE_ERROR_INTERNAL);
 8001022:	6d83      	ldr	r3, [r0, #88]	@ 0x58
 8001024:	2210      	movs	r2, #16
 8001026:	4313      	orrs	r3, r2
 8001028:	6583      	str	r3, [r0, #88]	@ 0x58
      SET_BIT(hadc->ErrorCode, HAL_ADC_ERROR_INTERNAL);
 800102a:	6dc3      	ldr	r3, [r0, #92]	@ 0x5c
 800102c:	3a0f      	subs	r2, #15
 800102e:	4313      	orrs	r3, r2
 8001030:	65c3      	str	r3, [r0, #92]	@ 0x5c
      return HAL_ERROR;
 8001032:	2001      	movs	r0, #1
 8001034:	e028      	b.n	8001088 <ADC_Enable+0xb0>
      }
    }

    /* If low power mode AutoPowerOff is enabled, power-on/off phases are     */
    /* performed automatically by hardware and flag ADC ready is not set.     */
    if (hadc->Init.LowPowerAutoPowerOff != ENABLE)
 8001036:	7e63      	ldrb	r3, [r4, #25]
 8001038:	2b01      	cmp	r3, #1
 800103a:	d101      	bne.n	8001040 <ADC_Enable+0x68>
      }
    }
  }

  /* Return HAL status */
  return HAL_OK;
 800103c:	2000      	movs	r0, #0
 800103e:	e023      	b.n	8001088 <ADC_Enable+0xb0>
      tickstart = HAL_GetTick();
 8001040:	f7ff fcc6 	bl	80009d0 <HAL_GetTick>
 8001044:	0005      	movs	r5, r0
      while (__HAL_ADC_GET_FLAG(hadc, ADC_FLAG_RDY) == 0UL)
 8001046:	e004      	b.n	8001052 <ADC_Enable+0x7a>
        if ((HAL_GetTick() - tickstart) > ADC_ENABLE_TIMEOUT)
 8001048:	f7ff fcc2 	bl	80009d0 <HAL_GetTick>
 800104c:	1b40      	subs	r0, r0, r5
 800104e:	2802      	cmp	r0, #2
 8001050:	d80d      	bhi.n	800106e <ADC_Enable+0x96>
      while (__HAL_ADC_GET_FLAG(hadc, ADC_FLAG_RDY) == 0UL)
 8001052:	6823      	ldr	r3, [r4, #0]
 8001054:	681a      	ldr	r2, [r3, #0]
 8001056:	07d2      	lsls	r2, r2, #31
 8001058:	d413      	bmi.n	8001082 <ADC_Enable+0xaa>
  return ((READ_BIT(ADCx->CR, ADC_CR_ADEN) == (ADC_CR_ADEN)) ? 1UL : 0UL);
 800105a:	689a      	ldr	r2, [r3, #8]
 800105c:	07d2      	lsls	r2, r2, #31
 800105e:	d4f3      	bmi.n	8001048 <ADC_Enable+0x70>
  MODIFY_REG(ADCx->CR,
 8001060:	689a      	ldr	r2, [r3, #8]
 8001062:	490b      	ldr	r1, [pc, #44]	@ (8001090 <ADC_Enable+0xb8>)
 8001064:	400a      	ands	r2, r1
 8001066:	2101      	movs	r1, #1
 8001068:	430a      	orrs	r2, r1
 800106a:	609a      	str	r2, [r3, #8]
}
 800106c:	e7ec      	b.n	8001048 <ADC_Enable+0x70>
          SET_BIT(hadc->State, HAL_ADC_STATE_ERROR_INTERNAL);
 800106e:	6da3      	ldr	r3, [r4, #88]	@ 0x58
 8001070:	2210      	movs	r2, #16
 8001072:	4313      	orrs	r3, r2
 8001074:	65a3      	str	r3, [r4, #88]	@ 0x58
          SET_BIT(hadc->ErrorCode, HAL_ADC_ERROR_INTERNAL);
 8001076:	6de3      	ldr	r3, [r4, #92]	@ 0x5c
 8001078:	3a0f      	subs	r2, #15
 800107a:	4313      	orrs	r3, r2
 800107c:	65e3      	str	r3, [r4, #92]	@ 0x5c
          return HAL_ERROR;
 800107e:	2001      	movs	r0, #1
 8001080:	e002      	b.n	8001088 <ADC_Enable+0xb0>
  return HAL_OK;
 8001082:	2000      	movs	r0, #0
 8001084:	e000      	b.n	8001088 <ADC_Enable+0xb0>
 8001086:	2000      	movs	r0, #0
}
 8001088:	b003      	add	sp, #12
 800108a:	bd30      	pop	{r4, r5, pc}
 800108c:	80000017 	.word	0x80000017
 8001090:	7fffffe8 	.word	0x7fffffe8
 8001094:	40012708 	.word	0x40012708
 8001098:	20000008 	.word	0x20000008
 800109c:	00030d40 	.word	0x00030d40

080010a0 <HAL_ADC_Start>:
{
 80010a0:	b510      	push	{r4, lr}
 80010a2:	0004      	movs	r4, r0
  if (LL_ADC_REG_IsConversionOngoing(hadc->Instance) == 0UL)
 80010a4:	6803      	ldr	r3, [r0, #0]
  return ((READ_BIT(ADCx->CR, ADC_CR_ADSTART) == (ADC_CR_ADSTART)) ? 1UL : 0UL);
 80010a6:	689b      	ldr	r3, [r3, #8]
 80010a8:	075b      	lsls	r3, r3, #29
 80010aa:	d424      	bmi.n	80010f6 <HAL_ADC_Start+0x56>
    __HAL_LOCK(hadc);
 80010ac:	2354      	movs	r3, #84	@ 0x54
 80010ae:	5cc3      	ldrb	r3, [r0, r3]
 80010b0:	2b01      	cmp	r3, #1
 80010b2:	d022      	beq.n	80010fa <HAL_ADC_Start+0x5a>
 80010b4:	2354      	movs	r3, #84	@ 0x54
 80010b6:	2201      	movs	r2, #1
 80010b8:	54c2      	strb	r2, [r0, r3]
    tmp_hal_status = ADC_Enable(hadc);
 80010ba:	f7ff ff8d 	bl	8000fd8 <ADC_Enable>
    if (tmp_hal_status == HAL_OK)
 80010be:	2800      	cmp	r0, #0
 80010c0:	d115      	bne.n	80010ee <HAL_ADC_Start+0x4e>
      ADC_STATE_CLR_SET(hadc->State,
 80010c2:	6da2      	ldr	r2, [r4, #88]	@ 0x58
 80010c4:	4b0e      	ldr	r3, [pc, #56]	@ (8001100 <HAL_ADC_Start+0x60>)
 80010c6:	401a      	ands	r2, r3
 80010c8:	2380      	movs	r3, #128	@ 0x80
 80010ca:	005b      	lsls	r3, r3, #1
 80010cc:	4313      	orrs	r3, r2
 80010ce:	65a3      	str	r3, [r4, #88]	@ 0x58
      ADC_CLEAR_ERRORCODE(hadc);
 80010d0:	2300      	movs	r3, #0
 80010d2:	65e3      	str	r3, [r4, #92]	@ 0x5c
      __HAL_ADC_CLEAR_FLAG(hadc, (ADC_FLAG_EOC | ADC_FLAG_EOS | ADC_FLAG_OVR));
 80010d4:	6822      	ldr	r2, [r4, #0]
 80010d6:	211c      	movs	r1, #28
 80010d8:	6011      	str	r1, [r2, #0]
      __HAL_UNLOCK(hadc);
 80010da:	2254      	movs	r2, #84	@ 0x54
 80010dc:	54a3      	strb	r3, [r4, r2]
      LL_ADC_REG_StartConversion(hadc->Instance);
 80010de:	6822      	ldr	r2, [r4, #0]
  MODIFY_REG(ADCx->CR,
 80010e0:	6893      	ldr	r3, [r2, #8]
 80010e2:	4908      	ldr	r1, [pc, #32]	@ (8001104 <HAL_ADC_Start+0x64>)
 80010e4:	400b      	ands	r3, r1
 80010e6:	2104      	movs	r1, #4
 80010e8:	430b      	orrs	r3, r1
 80010ea:	6093      	str	r3, [r2, #8]
}
 80010ec:	e004      	b.n	80010f8 <HAL_ADC_Start+0x58>
      __HAL_UNLOCK(hadc);
 80010ee:	2354      	movs	r3, #84	@ 0x54
 80010f0:	2200      	movs	r2, #0
 80010f2:	54e2      	strb	r2, [r4, r3]
 80010f4:	e000      	b.n	80010f8 <HAL_ADC_Start+0x58>
    tmp_hal_status = HAL_BUSY;
 80010f6:	2002      	movs	r0, #2
}
 80010f8:	bd10      	pop	{r4, pc}
    __HAL_LOCK(hadc);
 80010fa:	2002      	movs	r0, #2
 80010fc:	e7fc      	b.n	80010f8 <HAL_ADC_Start+0x58>
 80010fe:	46c0      	nop			@ (mov r8, r8)
 8001100:	fffff0fe 	.word	0xfffff0fe
 8001104:	7fffffe8 	.word	0x7fffffe8

08001108 <ADC_Disable>:
  *         stopped.
  * @param hadc ADC handle
  * @retval HAL status.
  */
HAL_StatusTypeDef ADC_Disable(ADC_HandleTypeDef *hadc)
{
 8001108:	b570      	push	{r4, r5, r6, lr}
 800110a:	0004      	movs	r4, r0
  uint32_t tickstart;
  const uint32_t tmp_adc_is_disable_on_going = LL_ADC_IsDisableOngoing(hadc->Instance);
 800110c:	6803      	ldr	r3, [r0, #0]
  return ((READ_BIT(ADCx->CR, ADC_CR_ADDIS) == (ADC_CR_ADDIS)) ? 1UL : 0UL);
 800110e:	689a      	ldr	r2, [r3, #8]
 8001110:	2102      	movs	r1, #2
 8001112:	0008      	movs	r0, r1
 8001114:	4010      	ands	r0, r2
 8001116:	4211      	tst	r1, r2
 8001118:	d000      	beq.n	800111c <ADC_Disable+0x14>
 800111a:	2001      	movs	r0, #1
  return ((READ_BIT(ADCx->CR, ADC_CR_ADEN) == (ADC_CR_ADEN)) ? 1UL : 0UL);
 800111c:	689a      	ldr	r2, [r3, #8]
 800111e:	07d2      	lsls	r2, r2, #31
 8001120:	d531      	bpl.n	8001186 <ADC_Disable+0x7e>

  /* Verification if ADC is not already disabled:                             */
  /* Note: forbidden to disable ADC (set bit ADC_CR_ADDIS) if ADC is already  */
  /*       disabled.                                                          */
  if ((LL_ADC_IsEnabled(hadc->Instance) != 0UL)
      && (tmp_adc_is_disable_on_going == 0UL)
 8001122:	2800      	cmp	r0, #0
 8001124:	d131      	bne.n	800118a <ADC_Disable+0x82>
     )
  {
    /* Check if conditions to disable the ADC are fulfilled */
    if ((hadc->Instance->CR & (ADC_CR_ADSTART | ADC_CR_ADEN)) == ADC_CR_ADEN)
 8001126:	6899      	ldr	r1, [r3, #8]
 8001128:	2205      	movs	r2, #5
 800112a:	400a      	ands	r2, r1
 800112c:	2a01      	cmp	r2, #1
 800112e:	d009      	beq.n	8001144 <ADC_Disable+0x3c>
      __HAL_ADC_CLEAR_FLAG(hadc, (ADC_FLAG_EOSMP | ADC_FLAG_RDY));
    }
    else
    {
      /* Update ADC state machine to error */
      SET_BIT(hadc->State, HAL_ADC_STATE_ERROR_INTERNAL);
 8001130:	6da3      	ldr	r3, [r4, #88]	@ 0x58
 8001132:	2210      	movs	r2, #16
 8001134:	4313      	orrs	r3, r2
 8001136:	65a3      	str	r3, [r4, #88]	@ 0x58

      /* Set ADC error code to ADC peripheral internal error */
      SET_BIT(hadc->ErrorCode, HAL_ADC_ERROR_INTERNAL);
 8001138:	6de3      	ldr	r3, [r4, #92]	@ 0x5c
 800113a:	3a0f      	subs	r2, #15
 800113c:	4313      	orrs	r3, r2
 800113e:	65e3      	str	r3, [r4, #92]	@ 0x5c

      return HAL_ERROR;
 8001140:	2001      	movs	r0, #1
 8001142:	e021      	b.n	8001188 <ADC_Disable+0x80>
  MODIFY_REG(ADCx->CR,
 8001144:	689a      	ldr	r2, [r3, #8]
 8001146:	4912      	ldr	r1, [pc, #72]	@ (8001190 <ADC_Disable+0x88>)
 8001148:	400a      	ands	r2, r1
 800114a:	2102      	movs	r1, #2
 800114c:	430a      	orrs	r2, r1
 800114e:	609a      	str	r2, [r3, #8]
      __HAL_ADC_CLEAR_FLAG(hadc, (ADC_FLAG_EOSMP | ADC_FLAG_RDY));
 8001150:	6823      	ldr	r3, [r4, #0]
 8001152:	2203      	movs	r2, #3
 8001154:	601a      	str	r2, [r3, #0]
    }

    /* Wait for ADC effectively disabled */
    /* Get tick count */
    tickstart = HAL_GetTick();
 8001156:	f7ff fc3b 	bl	80009d0 <HAL_GetTick>
 800115a:	0005      	movs	r5, r0

    while ((hadc->Instance->CR & ADC_CR_ADEN) != 0UL)
 800115c:	6823      	ldr	r3, [r4, #0]
 800115e:	689b      	ldr	r3, [r3, #8]
 8001160:	07db      	lsls	r3, r3, #31
 8001162:	d50e      	bpl.n	8001182 <ADC_Disable+0x7a>
    {
      if ((HAL_GetTick() - tickstart) > ADC_DISABLE_TIMEOUT)
 8001164:	f7ff fc34 	bl	80009d0 <HAL_GetTick>
 8001168:	1b40      	subs	r0, r0, r5
 800116a:	2802      	cmp	r0, #2
 800116c:	d9f6      	bls.n	800115c <ADC_Disable+0x54>
      {
        /* Update ADC state machine to error */
        SET_BIT(hadc->State, HAL_ADC_STATE_ERROR_INTERNAL);
 800116e:	6da3      	ldr	r3, [r4, #88]	@ 0x58
 8001170:	2210      	movs	r2, #16
 8001172:	4313      	orrs	r3, r2
 8001174:	65a3      	str	r3, [r4, #88]	@ 0x58

        /* Set ADC error code to ADC peripheral internal error */
        SET_BIT(hadc->ErrorCode, HAL_ADC_ERROR_INTERNAL);
 8001176:	6de3      	ldr	r3, [r4, #92]	@ 0x5c
 8001178:	3a0f      	subs	r2, #15
 800117a:	4313      	orrs	r3, r2
 800117c:	65e3      	str	r3, [r4, #92]	@ 0x5c

        return HAL_ERROR;
 800117e:	2001      	movs	r0, #1
 8001180:	e002      	b.n	8001188 <ADC_Disable+0x80>
      }
    }
  }

  /* Return HAL status */
  return HAL_OK;
 8001182:	2000      	movs	r0, #0
 8001184:	e000      	b.n	8001188 <ADC_Disable+0x80>
 8001186:	2000      	movs	r0, #0
}
 8001188:	bd70      	pop	{r4, r5, r6, pc}
  return HAL_OK;
 800118a:	2000      	movs	r0, #0
 800118c:	e7fc      	b.n	8001188 <ADC_Disable+0x80>
 800118e:	46c0      	nop			@ (mov r8, r8)
 8001190:	7fffffe8 	.word	0x7fffffe8

08001194 <HAL_ADC_Stop>:
{
 8001194:	b510      	push	{r4, lr}
 8001196:	0004      	movs	r4, r0
  __HAL_LOCK(hadc);
 8001198:	2354      	movs	r3, #84	@ 0x54
 800119a:	5cc3      	ldrb	r3, [r0, r3]
 800119c:	2b01      	cmp	r3, #1
 800119e:	d017      	beq.n	80011d0 <HAL_ADC_Stop+0x3c>
 80011a0:	2354      	movs	r3, #84	@ 0x54
 80011a2:	2201      	movs	r2, #1
 80011a4:	54c2      	strb	r2, [r0, r3]
  tmp_hal_status = ADC_ConversionStop(hadc);
 80011a6:	f7ff feeb 	bl	8000f80 <ADC_ConversionStop>
  if (tmp_hal_status == HAL_OK)
 80011aa:	2800      	cmp	r0, #0
 80011ac:	d003      	beq.n	80011b6 <HAL_ADC_Stop+0x22>
  __HAL_UNLOCK(hadc);
 80011ae:	2354      	movs	r3, #84	@ 0x54
 80011b0:	2200      	movs	r2, #0
 80011b2:	54e2      	strb	r2, [r4, r3]
}
 80011b4:	bd10      	pop	{r4, pc}
    tmp_hal_status = ADC_Disable(hadc);
 80011b6:	0020      	movs	r0, r4
 80011b8:	f7ff ffa6 	bl	8001108 <ADC_Disable>
    if (tmp_hal_status == HAL_OK)
 80011bc:	2800      	cmp	r0, #0
 80011be:	d1f6      	bne.n	80011ae <HAL_ADC_Stop+0x1a>
      ADC_STATE_CLR_SET(hadc->State,
 80011c0:	6da3      	ldr	r3, [r4, #88]	@ 0x58
 80011c2:	4a04      	ldr	r2, [pc, #16]	@ (80011d4 <HAL_ADC_Stop+0x40>)
 80011c4:	4013      	ands	r3, r2
 80011c6:	3204      	adds	r2, #4
 80011c8:	32ff      	adds	r2, #255	@ 0xff
 80011ca:	4313      	orrs	r3, r2
 80011cc:	65a3      	str	r3, [r4, #88]	@ 0x58
 80011ce:	e7ee      	b.n	80011ae <HAL_ADC_Stop+0x1a>
  __HAL_LOCK(hadc);
 80011d0:	2002      	movs	r0, #2
 80011d2:	e7ef      	b.n	80011b4 <HAL_ADC_Stop+0x20>
 80011d4:	fffffefe 	.word	0xfffffefe

080011d8 <__NVIC_SetPriority>:
{
 80011d8:	b570      	push	{r4, r5, r6, lr}
  if ((int32_t)(IRQn) >= 0)
 80011da:	2800      	cmp	r0, #0
 80011dc:	db11      	blt.n	8001202 <__NVIC_SetPriority+0x2a>
    NVIC->IP[_IP_IDX(IRQn)]  = ((uint32_t)(NVIC->IP[_IP_IDX(IRQn)]  & ~(0xFFUL << _BIT_SHIFT(IRQn))) |
 80011de:	0883      	lsrs	r3, r0, #2
 80011e0:	4d13      	ldr	r5, [pc, #76]	@ (8001230 <__NVIC_SetPriority+0x58>)
 80011e2:	33c0      	adds	r3, #192	@ 0xc0
 80011e4:	009b      	lsls	r3, r3, #2
 80011e6:	595c      	ldr	r4, [r3, r5]
 80011e8:	2203      	movs	r2, #3
 80011ea:	4010      	ands	r0, r2
 80011ec:	00c0      	lsls	r0, r0, #3
 80011ee:	32fc      	adds	r2, #252	@ 0xfc
 80011f0:	0016      	movs	r6, r2
 80011f2:	4086      	lsls	r6, r0
 80011f4:	43b4      	bics	r4, r6
       (((priority << (8U - __NVIC_PRIO_BITS)) & (uint32_t)0xFFUL) << _BIT_SHIFT(IRQn)));
 80011f6:	0189      	lsls	r1, r1, #6
 80011f8:	400a      	ands	r2, r1
 80011fa:	4082      	lsls	r2, r0
    NVIC->IP[_IP_IDX(IRQn)]  = ((uint32_t)(NVIC->IP[_IP_IDX(IRQn)]  & ~(0xFFUL << _BIT_SHIFT(IRQn))) |
 80011fc:	4322      	orrs	r2, r4
 80011fe:	515a      	str	r2, [r3, r5]
}
 8001200:	bd70      	pop	{r4, r5, r6, pc}
    SCB->SHP[_SHP_IDX(IRQn)] = ((uint32_t)(SCB->SHP[_SHP_IDX(IRQn)] & ~(0xFFUL << _BIT_SHIFT(IRQn))) |
 8001202:	230f      	movs	r3, #15
 8001204:	4003      	ands	r3, r0
 8001206:	3b08      	subs	r3, #8
 8001208:	089b      	lsrs	r3, r3, #2
 800120a:	3306      	adds	r3, #6
 800120c:	009b      	lsls	r3, r3, #2
 800120e:	4a09      	ldr	r2, [pc, #36]	@ (8001234 <__NVIC_SetPriority+0x5c>)
 8001210:	4694      	mov	ip, r2
 8001212:	4463      	add	r3, ip
 8001214:	685c      	ldr	r4, [r3, #4]
 8001216:	2203      	movs	r2, #3
 8001218:	4010      	ands	r0, r2
 800121a:	00c0      	lsls	r0, r0, #3
 800121c:	32fc      	adds	r2, #252	@ 0xfc
 800121e:	0015      	movs	r5, r2
 8001220:	4085      	lsls	r5, r0
 8001222:	43ac      	bics	r4, r5
       (((priority << (8U - __NVIC_PRIO_BITS)) & (uint32_t)0xFFUL) << _BIT_SHIFT(IRQn)));
 8001224:	0189      	lsls	r1, r1, #6
 8001226:	400a      	ands	r2, r1
 8001228:	4082      	lsls	r2, r0
    SCB->SHP[_SHP_IDX(IRQn)] = ((uint32_t)(SCB->SHP[_SHP_IDX(IRQn)] & ~(0xFFUL << _BIT_SHIFT(IRQn))) |
 800122a:	4322      	orrs	r2, r4
 800122c:	605a      	str	r2, [r3, #4]
}
 800122e:	e7e7      	b.n	8001200 <__NVIC_SetPriority+0x28>
 8001230:	e000e100 	.word	0xe000e100
 8001234:	e000ed00 	.word	0xe000ed00

08001238 <SysTick_Config>:
           function <b>SysTick_Config</b> is not included. In this case, the file <b><i>device</i>.h</b>
           must contain a vendor-specific implementation of this function.
 */
__STATIC_INLINE uint32_t SysTick_Config(uint32_t ticks)
{
  if ((ticks - 1UL) > SysTick_LOAD_RELOAD_Msk)
 8001238:	3801      	subs	r0, #1
 800123a:	2380      	movs	r3, #128	@ 0x80
 800123c:	045b      	lsls	r3, r3, #17
 800123e:	4298      	cmp	r0, r3
 8001240:	d20f      	bcs.n	8001262 <SysTick_Config+0x2a>
  {
    return (1UL);                                                   /* Reload value impossible */
  }

  SysTick->LOAD  = (uint32_t)(ticks - 1UL);                         /* set reload register */
 8001242:	4a09      	ldr	r2, [pc, #36]	@ (8001268 <SysTick_Config+0x30>)
 8001244:	6050      	str	r0, [r2, #4]
    SCB->SHP[_SHP_IDX(IRQn)] = ((uint32_t)(SCB->SHP[_SHP_IDX(IRQn)] & ~(0xFFUL << _BIT_SHIFT(IRQn))) |
 8001246:	4809      	ldr	r0, [pc, #36]	@ (800126c <SysTick_Config+0x34>)
 8001248:	6a03      	ldr	r3, [r0, #32]
 800124a:	021b      	lsls	r3, r3, #8
 800124c:	0a1b      	lsrs	r3, r3, #8
 800124e:	21c0      	movs	r1, #192	@ 0xc0
 8001250:	0609      	lsls	r1, r1, #24
 8001252:	430b      	orrs	r3, r1
 8001254:	6203      	str	r3, [r0, #32]
  NVIC_SetPriority (SysTick_IRQn, (1UL << __NVIC_PRIO_BITS) - 1UL); /* set Priority for Systick Interrupt */
  SysTick->VAL   = 0UL;                                             /* Load the SysTick Counter Value */
 8001256:	2300      	movs	r3, #0
 8001258:	6093      	str	r3, [r2, #8]
  SysTick->CTRL  = SysTick_CTRL_CLKSOURCE_Msk |
 800125a:	3307      	adds	r3, #7
 800125c:	6013      	str	r3, [r2, #0]
                   SysTick_CTRL_TICKINT_Msk   |
                   SysTick_CTRL_ENABLE_Msk;                         /* Enable SysTick IRQ and SysTick Timer */
  return (0UL);                                                     /* Function successful */
 800125e:	2000      	movs	r0, #0
}
 8001260:	4770      	bx	lr
    return (1UL);                                                   /* Reload value impossible */
 8001262:	2001      	movs	r0, #1
 8001264:	e7fc      	b.n	8001260 <SysTick_Config+0x28>
 8001266:	46c0      	nop			@ (mov r8, r8)
 8001268:	e000e010 	.word	0xe000e010
 800126c:	e000ed00 	.word	0xe000ed00

08001270 <HAL_NVIC_SetPriority>:
  *         with stm32c0xx devices, this parameter is a dummy value and it is ignored, because
  *         no subpriority supported in Cortex M0+ based products.
  * @retval None
  */
void HAL_NVIC_SetPriority(IRQn_Type IRQn, uint32_t PreemptPriority, uint32_t SubPriority)
{
 8001270:	b510      	push	{r4, lr}
  /* Prevent unused argument(s) compilation warning */
  UNUSED(SubPriority);
  /* Check the parameters */
  assert_param(IS_NVIC_PREEMPTION_PRIORITY(PreemptPriority));
  NVIC_SetPriority(IRQn, PreemptPriority);
 8001272:	f7ff ffb1 	bl	80011d8 <__NVIC_SetPriority>
}
 8001276:	bd10      	pop	{r4, pc}

08001278 <HAL_NVIC_EnableIRQ>:
  if ((int32_t)(IRQn) >= 0)
 8001278:	2800      	cmp	r0, #0
 800127a:	db05      	blt.n	8001288 <HAL_NVIC_EnableIRQ+0x10>
    NVIC->ISER[0U] = (uint32_t)(1UL << (((uint32_t)IRQn) & 0x1FUL));
 800127c:	221f      	movs	r2, #31
 800127e:	4002      	ands	r2, r0
 8001280:	2301      	movs	r3, #1
 8001282:	4093      	lsls	r3, r2
 8001284:	4a01      	ldr	r2, [pc, #4]	@ (800128c <HAL_NVIC_EnableIRQ+0x14>)
 8001286:	6013      	str	r3, [r2, #0]
  /* Check the parameters */
  assert_param(IS_NVIC_DEVICE_IRQ(IRQn));

  /* Enable interrupt */
  NVIC_EnableIRQ(IRQn);
}
 8001288:	4770      	bx	lr
 800128a:	46c0      	nop			@ (mov r8, r8)
 800128c:	e000e100 	.word	0xe000e100

08001290 <HAL_SYSTICK_Config>:
  * @param  TicksNumb Specifies the ticks Number of ticks between two interrupts.
  * @retval status:  - 0  Function succeeded.
  *                  - 1  Function failed.
  */
uint32_t HAL_SYSTICK_Config(uint32_t TicksNumb)
{
 8001290:	b510      	push	{r4, lr}
  return SysTick_Config(TicksNumb);
 8001292:	f7ff ffd1 	bl	8001238 <SysTick_Config>
}
 8001296:	bd10      	pop	{r4, pc}

08001298 <DMA_CalcDMAMUXChannelBaseAndMask>:
  * @param  hdma Pointer to a DMA_HandleTypeDef structure that contains
  *                     the configuration information for the specified DMA Stream.
  * @retval None
  */
static void DMA_CalcDMAMUXChannelBaseAndMask(DMA_HandleTypeDef *hdma)
{
 8001298:	b510      	push	{r4, lr}
 800129a:	0004      	movs	r4, r0
  uint32_t channel_number;

  channel_number = (((uint32_t)hdma->Instance & 0xFFU) - 8U) / 20U;
 800129c:	6803      	ldr	r3, [r0, #0]
 800129e:	20ff      	movs	r0, #255	@ 0xff
 80012a0:	4018      	ands	r0, r3
 80012a2:	3808      	subs	r0, #8
 80012a4:	2114      	movs	r1, #20
 80012a6:	f7fe ff1d 	bl	80000e4 <__udivsi3>
  hdma->DMAmuxChannel = (DMAMUX_Channel_TypeDef *)(uint32_t)((uint32_t)DMAMUX1_Channel0 + \
                                                             ((hdma->ChannelIndex >> 2U) * \
 80012aa:	6c23      	ldr	r3, [r4, #64]	@ 0x40
 80012ac:	089b      	lsrs	r3, r3, #2
  hdma->DMAmuxChannel = (DMAMUX_Channel_TypeDef *)(uint32_t)((uint32_t)DMAMUX1_Channel0 + \
 80012ae:	4a06      	ldr	r2, [pc, #24]	@ (80012c8 <DMA_CalcDMAMUXChannelBaseAndMask+0x30>)
 80012b0:	4694      	mov	ip, r2
 80012b2:	4463      	add	r3, ip
 80012b4:	009b      	lsls	r3, r3, #2
 80012b6:	6463      	str	r3, [r4, #68]	@ 0x44
                                                              ((uint32_t)DMAMUX1_Channel1 - \
                                                               (uint32_t)DMAMUX1_Channel0)));
  hdma->DMAmuxChannelStatus = DMAMUX1_ChannelStatus;
 80012b8:	4b04      	ldr	r3, [pc, #16]	@ (80012cc <DMA_CalcDMAMUXChannelBaseAndMask+0x34>)
 80012ba:	64a3      	str	r3, [r4, #72]	@ 0x48
  hdma->DMAmuxChannelStatusMask = 1UL << (channel_number & 0x1cU);
 80012bc:	231c      	movs	r3, #28
 80012be:	4018      	ands	r0, r3
 80012c0:	3b1b      	subs	r3, #27
 80012c2:	4083      	lsls	r3, r0
 80012c4:	64e3      	str	r3, [r4, #76]	@ 0x4c
}
 80012c6:	bd10      	pop	{r4, pc}
 80012c8:	10008200 	.word	0x10008200
 80012cc:	40020880 	.word	0x40020880

080012d0 <DMA_CalcDMAMUXRequestGenBaseAndMask>:
  * @retval None
  */

static void DMA_CalcDMAMUXRequestGenBaseAndMask(DMA_HandleTypeDef *hdma)
{
  uint32_t request =  hdma->Init.Request & DMAMUX_CxCR_DMAREQ_ID;
 80012d0:	6842      	ldr	r2, [r0, #4]
 80012d2:	23ff      	movs	r3, #255	@ 0xff
 80012d4:	4013      	ands	r3, r2

  /* DMA Channels are connected to DMAMUX1 request generator blocks*/
  hdma->DMAmuxRequestGen = (DMAMUX_RequestGen_TypeDef *)((uint32_t)(((uint32_t)DMAMUX1_RequestGenerator0) + \
 80012d6:	4a06      	ldr	r2, [pc, #24]	@ (80012f0 <DMA_CalcDMAMUXRequestGenBaseAndMask+0x20>)
 80012d8:	189a      	adds	r2, r3, r2
 80012da:	0092      	lsls	r2, r2, #2
 80012dc:	6502      	str	r2, [r0, #80]	@ 0x50
                                                                    ((request - 1U) * 4U)));

  hdma->DMAmuxRequestGenStatus = DMAMUX1_RequestGenStatus;
 80012de:	4a05      	ldr	r2, [pc, #20]	@ (80012f4 <DMA_CalcDMAMUXRequestGenBaseAndMask+0x24>)
 80012e0:	6542      	str	r2, [r0, #84]	@ 0x54

  /* here "Request" is either DMA_REQUEST_GENERATOR0 to 4, i.e. <= 4*/
  hdma->DMAmuxRequestGenStatusMask = 1UL << ((request - 1U) & 0x3U);
 80012e2:	3b01      	subs	r3, #1
 80012e4:	2203      	movs	r2, #3
 80012e6:	401a      	ands	r2, r3
 80012e8:	2301      	movs	r3, #1
 80012ea:	4093      	lsls	r3, r2
 80012ec:	6583      	str	r3, [r0, #88]	@ 0x58
}
 80012ee:	4770      	bx	lr
 80012f0:	1000823f 	.word	0x1000823f
 80012f4:	40020940 	.word	0x40020940

080012f8 <HAL_DMA_Init>:
{
 80012f8:	b570      	push	{r4, r5, r6, lr}
 80012fa:	1e04      	subs	r4, r0, #0
  if (hdma == NULL)
 80012fc:	d04d      	beq.n	800139a <HAL_DMA_Init+0xa2>
  hdma->ChannelIndex = (((uint32_t)hdma->Instance - (uint32_t)DMA1_Channel1) / ((uint32_t)DMA1_Channel2 - \
 80012fe:	6805      	ldr	r5, [r0, #0]
 8001300:	4b27      	ldr	r3, [pc, #156]	@ (80013a0 <HAL_DMA_Init+0xa8>)
 8001302:	18e8      	adds	r0, r5, r3
 8001304:	2114      	movs	r1, #20
 8001306:	f7fe feed 	bl	80000e4 <__udivsi3>
                                                                                (uint32_t)DMA1_Channel1)) << 2U;
 800130a:	0080      	lsls	r0, r0, #2
  hdma->ChannelIndex = (((uint32_t)hdma->Instance - (uint32_t)DMA1_Channel1) / ((uint32_t)DMA1_Channel2 - \
 800130c:	6420      	str	r0, [r4, #64]	@ 0x40
  hdma->State = HAL_DMA_STATE_BUSY;
 800130e:	2325      	movs	r3, #37	@ 0x25
 8001310:	2202      	movs	r2, #2
 8001312:	54e2      	strb	r2, [r4, r3]
  CLEAR_BIT(hdma->Instance->CCR, (DMA_CCR_PL    | DMA_CCR_MSIZE  | DMA_CCR_PSIZE  | \
 8001314:	682b      	ldr	r3, [r5, #0]
 8001316:	4a23      	ldr	r2, [pc, #140]	@ (80013a4 <HAL_DMA_Init+0xac>)
 8001318:	4013      	ands	r3, r2
 800131a:	602b      	str	r3, [r5, #0]
  SET_BIT(hdma->Instance->CCR, (hdma->Init.Direction           |                               \
 800131c:	6821      	ldr	r1, [r4, #0]
 800131e:	680a      	ldr	r2, [r1, #0]
 8001320:	68a3      	ldr	r3, [r4, #8]
 8001322:	68e0      	ldr	r0, [r4, #12]
 8001324:	4303      	orrs	r3, r0
 8001326:	6920      	ldr	r0, [r4, #16]
 8001328:	4303      	orrs	r3, r0
 800132a:	6960      	ldr	r0, [r4, #20]
 800132c:	4303      	orrs	r3, r0
 800132e:	69a0      	ldr	r0, [r4, #24]
 8001330:	4303      	orrs	r3, r0
 8001332:	69e0      	ldr	r0, [r4, #28]
 8001334:	4303      	orrs	r3, r0
 8001336:	6a20      	ldr	r0, [r4, #32]
 8001338:	4303      	orrs	r3, r0
 800133a:	4313      	orrs	r3, r2
 800133c:	600b      	str	r3, [r1, #0]
  DMA_CalcDMAMUXChannelBaseAndMask(hdma);
 800133e:	0020      	movs	r0, r4
 8001340:	f7ff ffaa 	bl	8001298 <DMA_CalcDMAMUXChannelBaseAndMask>
  if (hdma->Init.Direction == DMA_MEMORY_TO_MEMORY)
 8001344:	68a2      	ldr	r2, [r4, #8]
 8001346:	2380      	movs	r3, #128	@ 0x80
 8001348:	01db      	lsls	r3, r3, #7
 800134a:	429a      	cmp	r2, r3
 800134c:	d018      	beq.n	8001380 <HAL_DMA_Init+0x88>
  hdma->DMAmuxChannel->CCR = (hdma->Init.Request & DMAMUX_CxCR_DMAREQ_ID);
 800134e:	6861      	ldr	r1, [r4, #4]
 8001350:	6c62      	ldr	r2, [r4, #68]	@ 0x44
 8001352:	23ff      	movs	r3, #255	@ 0xff
 8001354:	400b      	ands	r3, r1
 8001356:	6013      	str	r3, [r2, #0]
  hdma->DMAmuxChannelStatus->CFR = hdma->DMAmuxChannelStatusMask;
 8001358:	6ca3      	ldr	r3, [r4, #72]	@ 0x48
 800135a:	6ce2      	ldr	r2, [r4, #76]	@ 0x4c
 800135c:	605a      	str	r2, [r3, #4]
  if (((hdma->Init.Request > 0UL) && (hdma->Init.Request <= DMA_REQUEST_GENERATOR3)))
 800135e:	6863      	ldr	r3, [r4, #4]
 8001360:	3b01      	subs	r3, #1
 8001362:	2b03      	cmp	r3, #3
 8001364:	d90f      	bls.n	8001386 <HAL_DMA_Init+0x8e>
    hdma->DMAmuxRequestGen = 0U;
 8001366:	2300      	movs	r3, #0
 8001368:	6523      	str	r3, [r4, #80]	@ 0x50
    hdma->DMAmuxRequestGenStatus = 0U;
 800136a:	6563      	str	r3, [r4, #84]	@ 0x54
    hdma->DMAmuxRequestGenStatusMask = 0U;
 800136c:	65a3      	str	r3, [r4, #88]	@ 0x58
  hdma->ErrorCode = HAL_DMA_ERROR_NONE;
 800136e:	2300      	movs	r3, #0
 8001370:	63e3      	str	r3, [r4, #60]	@ 0x3c
  hdma->State  = HAL_DMA_STATE_READY;
 8001372:	2225      	movs	r2, #37	@ 0x25
 8001374:	2101      	movs	r1, #1
 8001376:	54a1      	strb	r1, [r4, r2]
  __HAL_UNLOCK(hdma);
 8001378:	3a01      	subs	r2, #1
 800137a:	54a3      	strb	r3, [r4, r2]
  return HAL_OK;
 800137c:	2000      	movs	r0, #0
}
 800137e:	bd70      	pop	{r4, r5, r6, pc}
    hdma->Init.Request = DMA_REQUEST_MEM2MEM;
 8001380:	2300      	movs	r3, #0
 8001382:	6063      	str	r3, [r4, #4]
 8001384:	e7e3      	b.n	800134e <HAL_DMA_Init+0x56>
    DMA_CalcDMAMUXRequestGenBaseAndMask(hdma);
 8001386:	0020      	movs	r0, r4
 8001388:	f7ff ffa2 	bl	80012d0 <DMA_CalcDMAMUXRequestGenBaseAndMask>
    hdma->DMAmuxRequestGen->RGCR = 0U;
 800138c:	6d23      	ldr	r3, [r4, #80]	@ 0x50
 800138e:	2200      	movs	r2, #0
 8001390:	601a      	str	r2, [r3, #0]
    hdma->DMAmuxRequestGenStatus->RGCFR = hdma->DMAmuxRequestGenStatusMask;
 8001392:	6d63      	ldr	r3, [r4, #84]	@ 0x54
 8001394:	6da2      	ldr	r2, [r4, #88]	@ 0x58
 8001396:	605a      	str	r2, [r3, #4]
 8001398:	e7e9      	b.n	800136e <HAL_DMA_Init+0x76>
    return HAL_ERROR;
 800139a:	2001      	movs	r0, #1
 800139c:	e7ef      	b.n	800137e <HAL_DMA_Init+0x86>
 800139e:	46c0      	nop			@ (mov r8, r8)
 80013a0:	bffdfff8 	.word	0xbffdfff8
 80013a4:	ffff800f 	.word	0xffff800f

080013a8 <HAL_DMA_IRQHandler>:
{
 80013a8:	b570      	push	{r4, r5, r6, lr}
  uint32_t flag_it = DMA1->ISR;
 80013aa:	4b31      	ldr	r3, [pc, #196]	@ (8001470 <HAL_DMA_IRQHandler+0xc8>)
 80013ac:	6819      	ldr	r1, [r3, #0]
  uint32_t source_it = hdma->Instance->CCR;
 80013ae:	6804      	ldr	r4, [r0, #0]
 80013b0:	6825      	ldr	r5, [r4, #0]
  if (((flag_it & (DMA_FLAG_HT1 << (hdma->ChannelIndex & 0x1cU))) != 0U) && ((source_it & DMA_IT_HT) != 0U))
 80013b2:	6c02      	ldr	r2, [r0, #64]	@ 0x40
 80013b4:	231c      	movs	r3, #28
 80013b6:	4013      	ands	r3, r2
 80013b8:	2204      	movs	r2, #4
 80013ba:	409a      	lsls	r2, r3
 80013bc:	4211      	tst	r1, r2
 80013be:	d016      	beq.n	80013ee <HAL_DMA_IRQHandler+0x46>
 80013c0:	076a      	lsls	r2, r5, #29
 80013c2:	d514      	bpl.n	80013ee <HAL_DMA_IRQHandler+0x46>
    if ((hdma->Instance->CCR & DMA_CCR_CIRC) == 0U)
 80013c4:	6823      	ldr	r3, [r4, #0]
 80013c6:	069b      	lsls	r3, r3, #26
 80013c8:	d403      	bmi.n	80013d2 <HAL_DMA_IRQHandler+0x2a>
      __HAL_DMA_DISABLE_IT(hdma, DMA_IT_HT);
 80013ca:	6823      	ldr	r3, [r4, #0]
 80013cc:	2204      	movs	r2, #4
 80013ce:	4393      	bics	r3, r2
 80013d0:	6023      	str	r3, [r4, #0]
    __HAL_DMA_CLEAR_FLAG(hdma, (DMA_FLAG_HT1 << (hdma->ChannelIndex & 0x1cU)));
 80013d2:	4c27      	ldr	r4, [pc, #156]	@ (8001470 <HAL_DMA_IRQHandler+0xc8>)
 80013d4:	6863      	ldr	r3, [r4, #4]
 80013d6:	6c02      	ldr	r2, [r0, #64]	@ 0x40
 80013d8:	211c      	movs	r1, #28
 80013da:	4011      	ands	r1, r2
 80013dc:	2204      	movs	r2, #4
 80013de:	408a      	lsls	r2, r1
 80013e0:	4313      	orrs	r3, r2
 80013e2:	6063      	str	r3, [r4, #4]
    if (hdma->XferHalfCpltCallback != NULL)
 80013e4:	6b03      	ldr	r3, [r0, #48]	@ 0x30
 80013e6:	2b00      	cmp	r3, #0
 80013e8:	d000      	beq.n	80013ec <HAL_DMA_IRQHandler+0x44>
      hdma->XferHalfCpltCallback(hdma);
 80013ea:	4798      	blx	r3
}
 80013ec:	bd70      	pop	{r4, r5, r6, pc}
  else if ((0U != (flag_it & (DMA_FLAG_TC1 << (hdma->ChannelIndex & 0x1cU)))) && (0U != (source_it & DMA_IT_TC)))
 80013ee:	2202      	movs	r2, #2
 80013f0:	409a      	lsls	r2, r3
 80013f2:	4211      	tst	r1, r2
 80013f4:	d01c      	beq.n	8001430 <HAL_DMA_IRQHandler+0x88>
 80013f6:	07aa      	lsls	r2, r5, #30
 80013f8:	d51a      	bpl.n	8001430 <HAL_DMA_IRQHandler+0x88>
    if ((hdma->Instance->CCR & DMA_CCR_CIRC) == 0U)
 80013fa:	6823      	ldr	r3, [r4, #0]
 80013fc:	069b      	lsls	r3, r3, #26
 80013fe:	d406      	bmi.n	800140e <HAL_DMA_IRQHandler+0x66>
      __HAL_DMA_DISABLE_IT(hdma, DMA_IT_TE | DMA_IT_TC);
 8001400:	6823      	ldr	r3, [r4, #0]
 8001402:	220a      	movs	r2, #10
 8001404:	4393      	bics	r3, r2
 8001406:	6023      	str	r3, [r4, #0]
      hdma->State = HAL_DMA_STATE_READY;
 8001408:	2325      	movs	r3, #37	@ 0x25
 800140a:	3a09      	subs	r2, #9
 800140c:	54c2      	strb	r2, [r0, r3]
    __HAL_DMA_CLEAR_FLAG(hdma, (DMA_FLAG_TC1 << (hdma->ChannelIndex & 0x1cU)));
 800140e:	4c18      	ldr	r4, [pc, #96]	@ (8001470 <HAL_DMA_IRQHandler+0xc8>)
 8001410:	6863      	ldr	r3, [r4, #4]
 8001412:	6c02      	ldr	r2, [r0, #64]	@ 0x40
 8001414:	211c      	movs	r1, #28
 8001416:	4011      	ands	r1, r2
 8001418:	2202      	movs	r2, #2
 800141a:	408a      	lsls	r2, r1
 800141c:	4313      	orrs	r3, r2
 800141e:	6063      	str	r3, [r4, #4]
    __HAL_UNLOCK(hdma);
 8001420:	2324      	movs	r3, #36	@ 0x24
 8001422:	2200      	movs	r2, #0
 8001424:	54c2      	strb	r2, [r0, r3]
    if (hdma->XferCpltCallback != NULL)
 8001426:	6ac3      	ldr	r3, [r0, #44]	@ 0x2c
 8001428:	2b00      	cmp	r3, #0
 800142a:	d0df      	beq.n	80013ec <HAL_DMA_IRQHandler+0x44>
      hdma->XferCpltCallback(hdma);
 800142c:	4798      	blx	r3
 800142e:	e7dd      	b.n	80013ec <HAL_DMA_IRQHandler+0x44>
  else if (((flag_it & (DMA_FLAG_TE1 << (hdma->ChannelIndex & 0x1cU))) != 0U) && ((source_it & DMA_IT_TE) != 0U))
 8001430:	2208      	movs	r2, #8
 8001432:	409a      	lsls	r2, r3
 8001434:	4211      	tst	r1, r2
 8001436:	d0d9      	beq.n	80013ec <HAL_DMA_IRQHandler+0x44>
 8001438:	072d      	lsls	r5, r5, #28
 800143a:	d5d7      	bpl.n	80013ec <HAL_DMA_IRQHandler+0x44>
    __HAL_DMA_DISABLE_IT(hdma, (DMA_IT_TC | DMA_IT_HT | DMA_IT_TE));
 800143c:	6823      	ldr	r3, [r4, #0]
 800143e:	220e      	movs	r2, #14
 8001440:	4393      	bics	r3, r2
 8001442:	6023      	str	r3, [r4, #0]
    __HAL_DMA_CLEAR_FLAG(hdma, (DMA_FLAG_GI1 << (hdma->ChannelIndex & 0x1cU)));
 8001444:	4c0a      	ldr	r4, [pc, #40]	@ (8001470 <HAL_DMA_IRQHandler+0xc8>)
 8001446:	6862      	ldr	r2, [r4, #4]
 8001448:	6c03      	ldr	r3, [r0, #64]	@ 0x40
 800144a:	211c      	movs	r1, #28
 800144c:	4019      	ands	r1, r3
 800144e:	2301      	movs	r3, #1
 8001450:	001d      	movs	r5, r3
 8001452:	408d      	lsls	r5, r1
 8001454:	432a      	orrs	r2, r5
 8001456:	6062      	str	r2, [r4, #4]
    hdma->ErrorCode = HAL_DMA_ERROR_TE;
 8001458:	63c3      	str	r3, [r0, #60]	@ 0x3c
    hdma->State = HAL_DMA_STATE_READY;
 800145a:	2225      	movs	r2, #37	@ 0x25
 800145c:	5483      	strb	r3, [r0, r2]
    __HAL_UNLOCK(hdma);
 800145e:	3323      	adds	r3, #35	@ 0x23
 8001460:	2200      	movs	r2, #0
 8001462:	54c2      	strb	r2, [r0, r3]
    if (hdma->XferErrorCallback != NULL)
 8001464:	6b43      	ldr	r3, [r0, #52]	@ 0x34
 8001466:	2b00      	cmp	r3, #0
 8001468:	d0c0      	beq.n	80013ec <HAL_DMA_IRQHandler+0x44>
      hdma->XferErrorCallback(hdma);
 800146a:	4798      	blx	r3
  return;
 800146c:	e7be      	b.n	80013ec <HAL_DMA_IRQHandler+0x44>
 800146e:	46c0      	nop			@ (mov r8, r8)
 8001470:	40020000 	.word	0x40020000

08001474 <HAL_GPIO_Init>:
  * @param  pGPIO_Init pointer to a GPIO_InitTypeDef structure that contains
  *         the configuration information for the specified GPIO peripheral.
  * @retval None
  */
void HAL_GPIO_Init(GPIO_TypeDef  *GPIOx, const GPIO_InitTypeDef *pGPIO_Init)
{
 8001474:	b5f0      	push	{r4, r5, r6, r7, lr}
 8001476:	46d6      	mov	lr, sl
 8001478:	464f      	mov	r7, r9
 800147a:	4646      	mov	r6, r8
 800147c:	b5c0      	push	{r6, r7, lr}
  uint32_t tmp;
  uint32_t iocurrent;
  uint32_t position = 0U;
 800147e:	2300      	movs	r3, #0
  assert_param(IS_GPIO_ALL_INSTANCE(GPIOx));
  assert_param(IS_GPIO_PIN(pGPIO_Init->Pin));
  assert_param(IS_GPIO_MODE(pGPIO_Init->Mode));

  /* Configure the port pins */
  while (((pGPIO_Init->Pin) >> position) != 0U)
 8001480:	e03b      	b.n	80014fa <HAL_GPIO_Init+0x86>
      /* Configure the External Interrupt or event for the current IO */
      if ((pGPIO_Init->Mode & EXTI_MODE) == EXTI_MODE)
      {
        tmp = EXTI->EXTICR[position >> 2U];
        tmp &= ~((0x0FUL) << ((position & 0x03U) * EXTI_EXTICR1_EXTI1_Pos));
        tmp |= (GPIO_GET_INDEX(GPIOx) << ((position & 0x03U) * EXTI_EXTICR1_EXTI1_Pos));
 8001482:	2505      	movs	r5, #5
 8001484:	e000      	b.n	8001488 <HAL_GPIO_Init+0x14>
 8001486:	2500      	movs	r5, #0
 8001488:	40a5      	lsls	r5, r4
 800148a:	002c      	movs	r4, r5
 800148c:	433c      	orrs	r4, r7
        EXTI->EXTICR[position >> 2U] = tmp;
 800148e:	4d63      	ldr	r5, [pc, #396]	@ (800161c <HAL_GPIO_Init+0x1a8>)
 8001490:	3218      	adds	r2, #24
 8001492:	0092      	lsls	r2, r2, #2
 8001494:	5154      	str	r4, [r2, r5]

        /* Clear EXTI line configuration */
        tmp = EXTI->IMR1;
 8001496:	2280      	movs	r2, #128	@ 0x80
 8001498:	58af      	ldr	r7, [r5, r2]
        tmp &= ~((uint32_t)iocurrent);
 800149a:	464a      	mov	r2, r9
 800149c:	43d2      	mvns	r2, r2
 800149e:	003d      	movs	r5, r7
 80014a0:	464c      	mov	r4, r9
 80014a2:	43a5      	bics	r5, r4
        if ((pGPIO_Init->Mode & GPIO_MODE_IT) == GPIO_MODE_IT)
 80014a4:	684c      	ldr	r4, [r1, #4]
 80014a6:	03e4      	lsls	r4, r4, #15
 80014a8:	d502      	bpl.n	80014b0 <HAL_GPIO_Init+0x3c>
        {
          tmp |= iocurrent;
 80014aa:	003d      	movs	r5, r7
 80014ac:	464c      	mov	r4, r9
 80014ae:	4325      	orrs	r5, r4
        }
        EXTI->IMR1 = tmp;
 80014b0:	4c5a      	ldr	r4, [pc, #360]	@ (800161c <HAL_GPIO_Init+0x1a8>)
 80014b2:	2780      	movs	r7, #128	@ 0x80
 80014b4:	51e5      	str	r5, [r4, r7]

        tmp = EXTI->EMR1;
 80014b6:	2584      	movs	r5, #132	@ 0x84
 80014b8:	5967      	ldr	r7, [r4, r5]
        tmp &= ~((uint32_t)iocurrent);
 80014ba:	003d      	movs	r5, r7
 80014bc:	4015      	ands	r5, r2
        if ((pGPIO_Init->Mode & GPIO_MODE_EVT) == GPIO_MODE_EVT)
 80014be:	684c      	ldr	r4, [r1, #4]
 80014c0:	03a4      	lsls	r4, r4, #14
 80014c2:	d502      	bpl.n	80014ca <HAL_GPIO_Init+0x56>
        {
          tmp |= iocurrent;
 80014c4:	003d      	movs	r5, r7
 80014c6:	464c      	mov	r4, r9
 80014c8:	4325      	orrs	r5, r4
        }
        EXTI->EMR1 = tmp;
 80014ca:	4c54      	ldr	r4, [pc, #336]	@ (800161c <HAL_GPIO_Init+0x1a8>)
 80014cc:	2784      	movs	r7, #132	@ 0x84
 80014ce:	51e5      	str	r5, [r4, r7]

        /* Clear Rising Falling edge configuration */
        tmp = EXTI->RTSR1;
 80014d0:	6827      	ldr	r7, [r4, #0]
        tmp &= ~((uint32_t)iocurrent);
 80014d2:	003d      	movs	r5, r7
 80014d4:	4015      	ands	r5, r2
        if ((pGPIO_Init->Mode & RISING_EDGE) == RISING_EDGE)
 80014d6:	684c      	ldr	r4, [r1, #4]
 80014d8:	02e4      	lsls	r4, r4, #11
 80014da:	d502      	bpl.n	80014e2 <HAL_GPIO_Init+0x6e>
        {
          tmp |= iocurrent;
 80014dc:	003d      	movs	r5, r7
 80014de:	464c      	mov	r4, r9
 80014e0:	4325      	orrs	r5, r4
        }
        EXTI->RTSR1 = tmp;
 80014e2:	4c4e      	ldr	r4, [pc, #312]	@ (800161c <HAL_GPIO_Init+0x1a8>)
 80014e4:	6025      	str	r5, [r4, #0]

        tmp = EXTI->FTSR1;
 80014e6:	6865      	ldr	r5, [r4, #4]
        tmp &= ~((uint32_t)iocurrent);
 80014e8:	402a      	ands	r2, r5
        if ((pGPIO_Init->Mode & FALLING_EDGE) == FALLING_EDGE)
 80014ea:	684c      	ldr	r4, [r1, #4]
 80014ec:	02a4      	lsls	r4, r4, #10
 80014ee:	d501      	bpl.n	80014f4 <HAL_GPIO_Init+0x80>
        {
          tmp |= iocurrent;
 80014f0:	464a      	mov	r2, r9
 80014f2:	432a      	orrs	r2, r5
        }
        EXTI->FTSR1 = tmp;
 80014f4:	4c49      	ldr	r4, [pc, #292]	@ (800161c <HAL_GPIO_Init+0x1a8>)
 80014f6:	6062      	str	r2, [r4, #4]
      }
    }

    position++;
 80014f8:	3301      	adds	r3, #1
  while (((pGPIO_Init->Pin) >> position) != 0U)
 80014fa:	680c      	ldr	r4, [r1, #0]
 80014fc:	0022      	movs	r2, r4
 80014fe:	40da      	lsrs	r2, r3
 8001500:	d100      	bne.n	8001504 <HAL_GPIO_Init+0x90>
 8001502:	e086      	b.n	8001612 <HAL_GPIO_Init+0x19e>
    iocurrent = (pGPIO_Init->Pin) & (1UL << position);
 8001504:	2201      	movs	r2, #1
 8001506:	409a      	lsls	r2, r3
 8001508:	0026      	movs	r6, r4
 800150a:	4016      	ands	r6, r2
 800150c:	46b1      	mov	r9, r6
    if (iocurrent != 0U)
 800150e:	4214      	tst	r4, r2
 8001510:	d0f2      	beq.n	80014f8 <HAL_GPIO_Init+0x84>
      if ((pGPIO_Init->Mode == GPIO_MODE_AF_PP) || (pGPIO_Init->Mode == GPIO_MODE_AF_OD))
 8001512:	684c      	ldr	r4, [r1, #4]
 8001514:	2c02      	cmp	r4, #2
 8001516:	d001      	beq.n	800151c <HAL_GPIO_Init+0xa8>
 8001518:	2c12      	cmp	r4, #18
 800151a:	d118      	bne.n	800154e <HAL_GPIO_Init+0xda>
        tmp = GPIOx->AFR[position >> 3U];
 800151c:	08dd      	lsrs	r5, r3, #3
 800151e:	3508      	adds	r5, #8
 8001520:	00ad      	lsls	r5, r5, #2
 8001522:	582c      	ldr	r4, [r5, r0]
 8001524:	46a4      	mov	ip, r4
        tmp &= ~(0xFUL << ((position & 0x07U) * GPIO_AFRL_AFSEL1_Pos)) ;
 8001526:	2707      	movs	r7, #7
 8001528:	401f      	ands	r7, r3
 800152a:	00bf      	lsls	r7, r7, #2
 800152c:	240f      	movs	r4, #15
 800152e:	46a2      	mov	sl, r4
 8001530:	0026      	movs	r6, r4
 8001532:	40be      	lsls	r6, r7
 8001534:	46b0      	mov	r8, r6
 8001536:	4666      	mov	r6, ip
 8001538:	4644      	mov	r4, r8
 800153a:	43a6      	bics	r6, r4
 800153c:	46b4      	mov	ip, r6
        tmp |= ((pGPIO_Init->Alternate & 0x0FUL) << ((position & 0x07U) * GPIO_AFRL_AFSEL1_Pos));
 800153e:	690c      	ldr	r4, [r1, #16]
 8001540:	4656      	mov	r6, sl
 8001542:	4026      	ands	r6, r4
 8001544:	0034      	movs	r4, r6
 8001546:	40bc      	lsls	r4, r7
 8001548:	4666      	mov	r6, ip
 800154a:	4334      	orrs	r4, r6
        GPIOx->AFR[position >> 3U] = tmp;
 800154c:	502c      	str	r4, [r5, r0]
      tmp = GPIOx->MODER;
 800154e:	6804      	ldr	r4, [r0, #0]
 8001550:	46a4      	mov	ip, r4
      tmp &= ~(GPIO_MODER_MODE0 << (position * GPIO_MODER_MODE1_Pos));
 8001552:	005d      	lsls	r5, r3, #1
 8001554:	2403      	movs	r4, #3
 8001556:	46a2      	mov	sl, r4
 8001558:	0027      	movs	r7, r4
 800155a:	40af      	lsls	r7, r5
 800155c:	46b8      	mov	r8, r7
 800155e:	43ff      	mvns	r7, r7
 8001560:	4666      	mov	r6, ip
 8001562:	4644      	mov	r4, r8
 8001564:	43a6      	bics	r6, r4
 8001566:	46b4      	mov	ip, r6
      tmp |= ((pGPIO_Init->Mode & GPIO_MODE) << (position * GPIO_MODER_MODE1_Pos));
 8001568:	684c      	ldr	r4, [r1, #4]
 800156a:	4656      	mov	r6, sl
 800156c:	4026      	ands	r6, r4
 800156e:	0034      	movs	r4, r6
 8001570:	40ac      	lsls	r4, r5
 8001572:	4666      	mov	r6, ip
 8001574:	4334      	orrs	r4, r6
      GPIOx->MODER = tmp;
 8001576:	6004      	str	r4, [r0, #0]
      if ((pGPIO_Init->Mode == GPIO_MODE_OUTPUT_PP) || (pGPIO_Init->Mode == GPIO_MODE_AF_PP) ||
 8001578:	684c      	ldr	r4, [r1, #4]
 800157a:	1e66      	subs	r6, r4, #1
 800157c:	2e01      	cmp	r6, #1
 800157e:	d903      	bls.n	8001588 <HAL_GPIO_Init+0x114>
 8001580:	2c11      	cmp	r4, #17
 8001582:	d001      	beq.n	8001588 <HAL_GPIO_Init+0x114>
          (pGPIO_Init->Mode == GPIO_MODE_OUTPUT_OD) || (pGPIO_Init->Mode == GPIO_MODE_AF_OD))
 8001584:	2c12      	cmp	r4, #18
 8001586:	d112      	bne.n	80015ae <HAL_GPIO_Init+0x13a>
        tmp = GPIOx->OSPEEDR;
 8001588:	6884      	ldr	r4, [r0, #8]
        tmp &= ~(GPIO_OSPEEDR_OSPEED0 << (position * GPIO_OSPEEDR_OSPEED1_Pos));
 800158a:	403c      	ands	r4, r7
 800158c:	46a4      	mov	ip, r4
        tmp |= (pGPIO_Init->Speed << (position * GPIO_OSPEEDR_OSPEED1_Pos));
 800158e:	68cc      	ldr	r4, [r1, #12]
 8001590:	40ac      	lsls	r4, r5
 8001592:	4666      	mov	r6, ip
 8001594:	4334      	orrs	r4, r6
        GPIOx->OSPEEDR = tmp;
 8001596:	6084      	str	r4, [r0, #8]
        tmp = GPIOx->OTYPER;
 8001598:	6844      	ldr	r4, [r0, #4]
        tmp &= ~(GPIO_OTYPER_OT0 << position) ;
 800159a:	4394      	bics	r4, r2
        tmp |= (((pGPIO_Init->Mode & GPIO_OUTPUT_TYPE) >> 4U) << position);
 800159c:	684a      	ldr	r2, [r1, #4]
 800159e:	0912      	lsrs	r2, r2, #4
 80015a0:	4694      	mov	ip, r2
 80015a2:	2201      	movs	r2, #1
 80015a4:	4666      	mov	r6, ip
 80015a6:	4032      	ands	r2, r6
 80015a8:	409a      	lsls	r2, r3
 80015aa:	4322      	orrs	r2, r4
        GPIOx->OTYPER = tmp;
 80015ac:	6042      	str	r2, [r0, #4]
      if (pGPIO_Init->Mode != GPIO_MODE_ANALOG)
 80015ae:	684a      	ldr	r2, [r1, #4]
 80015b0:	2a03      	cmp	r2, #3
 80015b2:	d005      	beq.n	80015c0 <HAL_GPIO_Init+0x14c>
        tmp = GPIOx->PUPDR;
 80015b4:	68c4      	ldr	r4, [r0, #12]
        tmp &= ~(GPIO_PUPDR_PUPD0 << (position * GPIO_PUPDR_PUPD1_Pos));
 80015b6:	403c      	ands	r4, r7
        tmp |= ((pGPIO_Init->Pull) << (position * GPIO_PUPDR_PUPD1_Pos));
 80015b8:	688a      	ldr	r2, [r1, #8]
 80015ba:	40aa      	lsls	r2, r5
 80015bc:	4322      	orrs	r2, r4
        GPIOx->PUPDR = tmp;
 80015be:	60c2      	str	r2, [r0, #12]
      if ((pGPIO_Init->Mode & EXTI_MODE) == EXTI_MODE)
 80015c0:	684a      	ldr	r2, [r1, #4]
 80015c2:	00d2      	lsls	r2, r2, #3
 80015c4:	d598      	bpl.n	80014f8 <HAL_GPIO_Init+0x84>
        tmp = EXTI->EXTICR[position >> 2U];
 80015c6:	089a      	lsrs	r2, r3, #2
 80015c8:	0014      	movs	r4, r2
 80015ca:	3418      	adds	r4, #24
 80015cc:	00a4      	lsls	r4, r4, #2
 80015ce:	4d13      	ldr	r5, [pc, #76]	@ (800161c <HAL_GPIO_Init+0x1a8>)
 80015d0:	5967      	ldr	r7, [r4, r5]
        tmp &= ~((0x0FUL) << ((position & 0x03U) * EXTI_EXTICR1_EXTI1_Pos));
 80015d2:	2403      	movs	r4, #3
 80015d4:	401c      	ands	r4, r3
 80015d6:	00e4      	lsls	r4, r4, #3
 80015d8:	250f      	movs	r5, #15
 80015da:	40a5      	lsls	r5, r4
 80015dc:	43af      	bics	r7, r5
        tmp |= (GPIO_GET_INDEX(GPIOx) << ((position & 0x03U) * EXTI_EXTICR1_EXTI1_Pos));
 80015de:	25a0      	movs	r5, #160	@ 0xa0
 80015e0:	05ed      	lsls	r5, r5, #23
 80015e2:	42a8      	cmp	r0, r5
 80015e4:	d100      	bne.n	80015e8 <HAL_GPIO_Init+0x174>
 80015e6:	e74e      	b.n	8001486 <HAL_GPIO_Init+0x12>
 80015e8:	4d0d      	ldr	r5, [pc, #52]	@ (8001620 <HAL_GPIO_Init+0x1ac>)
 80015ea:	42a8      	cmp	r0, r5
 80015ec:	d00b      	beq.n	8001606 <HAL_GPIO_Init+0x192>
 80015ee:	4d0d      	ldr	r5, [pc, #52]	@ (8001624 <HAL_GPIO_Init+0x1b0>)
 80015f0:	42a8      	cmp	r0, r5
 80015f2:	d00a      	beq.n	800160a <HAL_GPIO_Init+0x196>
 80015f4:	4d0c      	ldr	r5, [pc, #48]	@ (8001628 <HAL_GPIO_Init+0x1b4>)
 80015f6:	42a8      	cmp	r0, r5
 80015f8:	d009      	beq.n	800160e <HAL_GPIO_Init+0x19a>
 80015fa:	4d0c      	ldr	r5, [pc, #48]	@ (800162c <HAL_GPIO_Init+0x1b8>)
 80015fc:	42a8      	cmp	r0, r5
 80015fe:	d100      	bne.n	8001602 <HAL_GPIO_Init+0x18e>
 8001600:	e73f      	b.n	8001482 <HAL_GPIO_Init+0xe>
 8001602:	2506      	movs	r5, #6
 8001604:	e740      	b.n	8001488 <HAL_GPIO_Init+0x14>
 8001606:	2501      	movs	r5, #1
 8001608:	e73e      	b.n	8001488 <HAL_GPIO_Init+0x14>
 800160a:	2502      	movs	r5, #2
 800160c:	e73c      	b.n	8001488 <HAL_GPIO_Init+0x14>
 800160e:	2503      	movs	r5, #3
 8001610:	e73a      	b.n	8001488 <HAL_GPIO_Init+0x14>
  }
}
 8001612:	bce0      	pop	{r5, r6, r7}
 8001614:	46ba      	mov	sl, r7
 8001616:	46b1      	mov	r9, r6
 8001618:	46a8      	mov	r8, r5
 800161a:	bdf0      	pop	{r4, r5, r6, r7, pc}
 800161c:	40021800 	.word	0x40021800
 8001620:	50000400 	.word	0x50000400
 8001624:	50000800 	.word	0x50000800
 8001628:	50000c00 	.word	0x50000c00
 800162c:	50001400 	.word	0x50001400

08001630 <HAL_GPIO_ReadPin>:
  GPIO_PinState bitstatus;

  /* Check the parameters */
  assert_param(IS_GPIO_PIN(GPIO_Pin));

  if ((GPIOx->IDR & GPIO_Pin) != 0U)
 8001630:	6903      	ldr	r3, [r0, #16]
 8001632:	420b      	tst	r3, r1
 8001634:	d001      	beq.n	800163a <HAL_GPIO_ReadPin+0xa>
  {
    bitstatus = GPIO_PIN_SET;
 8001636:	2001      	movs	r0, #1
  else
  {
    bitstatus = GPIO_PIN_RESET;
  }
  return bitstatus;
}
 8001638:	4770      	bx	lr
    bitstatus = GPIO_PIN_RESET;
 800163a:	2000      	movs	r0, #0
 800163c:	e7fc      	b.n	8001638 <HAL_GPIO_ReadPin+0x8>

0800163e <HAL_GPIO_WritePin>:
{
  /* Check the parameters */
  assert_param(IS_GPIO_PIN(GPIO_Pin));
  assert_param(IS_GPIO_PIN_ACTION(PinState));

  if (PinState != GPIO_PIN_RESET)
 800163e:	2a00      	cmp	r2, #0
 8001640:	d001      	beq.n	8001646 <HAL_GPIO_WritePin+0x8>
  {
    GPIOx->BSRR = (uint32_t)GPIO_Pin;
 8001642:	6181      	str	r1, [r0, #24]
  }
  else
  {
    GPIOx->BRR = (uint32_t)GPIO_Pin;
  }
}
 8001644:	4770      	bx	lr
    GPIOx->BRR = (uint32_t)GPIO_Pin;
 8001646:	6281      	str	r1, [r0, #40]	@ 0x28
}
 8001648:	e7fc      	b.n	8001644 <HAL_GPIO_WritePin+0x6>

0800164a <HAL_GPIO_TogglePin>:

  /* Check the parameters */
  assert_param(IS_GPIO_PIN(GPIO_Pin));

  /* get current Output Data Register value */
  odr = GPIOx->ODR;
 800164a:	6942      	ldr	r2, [r0, #20]

  /* Set selected pins that were at low level, and reset ones that were high */
  GPIOx->BSRR = ((odr & GPIO_Pin) << GPIO_NUMBER) | (~odr & GPIO_Pin);
 800164c:	0013      	movs	r3, r2
 800164e:	400b      	ands	r3, r1
 8001650:	041b      	lsls	r3, r3, #16
 8001652:	4391      	bics	r1, r2
 8001654:	430b      	orrs	r3, r1
 8001656:	6183      	str	r3, [r0, #24]
}
 8001658:	4770      	bx	lr

0800165a <HAL_GPIO_EXTI_Rising_Callback>:
  UNUSED(GPIO_Pin);

  /* NOTE: This function should not be modified, when the callback is needed,
           the HAL_GPIO_EXTI_Rising_Callback could be implemented in the user file
   */
}
 800165a:	4770      	bx	lr

0800165c <HAL_GPIO_EXTI_Falling_Callback>:
  UNUSED(GPIO_Pin);

  /* NOTE: This function should not be modified, when the callback is needed,
           the HAL_GPIO_EXTI_Falling_Callback could be implemented in the user file
   */
}
 800165c:	4770      	bx	lr
	...

08001660 <HAL_GPIO_EXTI_IRQHandler>:
{
 8001660:	b510      	push	{r4, lr}
 8001662:	0004      	movs	r4, r0
  if (__HAL_GPIO_EXTI_GET_RISING_IT(GPIO_Pin) != 0U)
 8001664:	4b09      	ldr	r3, [pc, #36]	@ (800168c <HAL_GPIO_EXTI_IRQHandler+0x2c>)
 8001666:	68db      	ldr	r3, [r3, #12]
 8001668:	4218      	tst	r0, r3
 800166a:	d104      	bne.n	8001676 <HAL_GPIO_EXTI_IRQHandler+0x16>
  if (__HAL_GPIO_EXTI_GET_FALLING_IT(GPIO_Pin) != 0U)
 800166c:	4b07      	ldr	r3, [pc, #28]	@ (800168c <HAL_GPIO_EXTI_IRQHandler+0x2c>)
 800166e:	691b      	ldr	r3, [r3, #16]
 8001670:	4223      	tst	r3, r4
 8001672:	d105      	bne.n	8001680 <HAL_GPIO_EXTI_IRQHandler+0x20>
}
 8001674:	bd10      	pop	{r4, pc}
    __HAL_GPIO_EXTI_CLEAR_RISING_IT(GPIO_Pin);
 8001676:	4b05      	ldr	r3, [pc, #20]	@ (800168c <HAL_GPIO_EXTI_IRQHandler+0x2c>)
 8001678:	60d8      	str	r0, [r3, #12]
    HAL_GPIO_EXTI_Rising_Callback(GPIO_Pin);
 800167a:	f7ff ffee 	bl	800165a <HAL_GPIO_EXTI_Rising_Callback>
 800167e:	e7f5      	b.n	800166c <HAL_GPIO_EXTI_IRQHandler+0xc>
    __HAL_GPIO_EXTI_CLEAR_FALLING_IT(GPIO_Pin);
 8001680:	4b02      	ldr	r3, [pc, #8]	@ (800168c <HAL_GPIO_EXTI_IRQHandler+0x2c>)
 8001682:	611c      	str	r4, [r3, #16]
    HAL_GPIO_EXTI_Falling_Callback(GPIO_Pin);
 8001684:	0020      	movs	r0, r4
 8001686:	f7ff ffe9 	bl	800165c <HAL_GPIO_EXTI_Falling_Callback>
}
 800168a:	e7f3      	b.n	8001674 <HAL_GPIO_EXTI_IRQHandler+0x14>
 800168c:	40021800 	.word	0x40021800

08001690 <HAL_MspInit>:
/* USER CODE END 0 */
/**
  * Initializes the Global MSP.
  */
void HAL_MspInit(void)
{
 8001690:	b082      	sub	sp, #8

  /* USER CODE BEGIN MspInit 0 */

  /* USER CODE END MspInit 0 */

  __HAL_RCC_SYSCFG_CLK_ENABLE();
 8001692:	4b0a      	ldr	r3, [pc, #40]	@ (80016bc <HAL_MspInit+0x2c>)
 8001694:	6c19      	ldr	r1, [r3, #64]	@ 0x40
 8001696:	2201      	movs	r2, #1
 8001698:	4311      	orrs	r1, r2
 800169a:	6419      	str	r1, [r3, #64]	@ 0x40
 800169c:	6c19      	ldr	r1, [r3, #64]	@ 0x40
 800169e:	400a      	ands	r2, r1
 80016a0:	9200      	str	r2, [sp, #0]
 80016a2:	9a00      	ldr	r2, [sp, #0]
  __HAL_RCC_PWR_CLK_ENABLE();
 80016a4:	6bda      	ldr	r2, [r3, #60]	@ 0x3c
 80016a6:	2180      	movs	r1, #128	@ 0x80
 80016a8:	0549      	lsls	r1, r1, #21
 80016aa:	430a      	orrs	r2, r1
 80016ac:	63da      	str	r2, [r3, #60]	@ 0x3c
 80016ae:	6bdb      	ldr	r3, [r3, #60]	@ 0x3c
 80016b0:	400b      	ands	r3, r1
 80016b2:	9301      	str	r3, [sp, #4]
 80016b4:	9b01      	ldr	r3, [sp, #4]
  /* System interrupt init*/

  /* USER CODE BEGIN MspInit 1 */

  /* USER CODE END MspInit 1 */
}
 80016b6:	b002      	add	sp, #8
 80016b8:	4770      	bx	lr
 80016ba:	46c0      	nop			@ (mov r8, r8)
 80016bc:	40021000 	.word	0x40021000

080016c0 <HAL_ADC_MspInit>:
  * This function configures the hardware resources used in this example
  * @param hadc: ADC handle pointer
  * @retval None
  */
void HAL_ADC_MspInit(ADC_HandleTypeDef* hadc)
{
 80016c0:	b530      	push	{r4, r5, lr}
 80016c2:	b08f      	sub	sp, #60	@ 0x3c
 80016c4:	0004      	movs	r4, r0
  GPIO_InitTypeDef GPIO_InitStruct = {0};
 80016c6:	2214      	movs	r2, #20
 80016c8:	2100      	movs	r1, #0
 80016ca:	a809      	add	r0, sp, #36	@ 0x24
 80016cc:	f001 f948 	bl	8002960 <memset>
  RCC_PeriphCLKInitTypeDef PeriphClkInit = {0};
 80016d0:	221c      	movs	r2, #28
 80016d2:	2100      	movs	r1, #0
 80016d4:	a802      	add	r0, sp, #8
 80016d6:	f001 f943 	bl	8002960 <memset>
  if(hadc->Instance==ADC1)
 80016da:	6822      	ldr	r2, [r4, #0]
 80016dc:	4b24      	ldr	r3, [pc, #144]	@ (8001770 <HAL_ADC_MspInit+0xb0>)
 80016de:	429a      	cmp	r2, r3
 80016e0:	d001      	beq.n	80016e6 <HAL_ADC_MspInit+0x26>

    /* USER CODE END ADC1_MspInit 1 */

  }

}
 80016e2:	b00f      	add	sp, #60	@ 0x3c
 80016e4:	bd30      	pop	{r4, r5, pc}
    PeriphClkInit.PeriphClockSelection = RCC_PERIPHCLK_ADC;
 80016e6:	2320      	movs	r3, #32
 80016e8:	9302      	str	r3, [sp, #8]
    if (HAL_RCCEx_PeriphCLKConfig(&PeriphClkInit) != HAL_OK)
 80016ea:	a802      	add	r0, sp, #8
 80016ec:	f000 faf2 	bl	8001cd4 <HAL_RCCEx_PeriphCLKConfig>
 80016f0:	2800      	cmp	r0, #0
 80016f2:	d136      	bne.n	8001762 <HAL_ADC_MspInit+0xa2>
    __HAL_RCC_ADC_CLK_ENABLE();
 80016f4:	4b1f      	ldr	r3, [pc, #124]	@ (8001774 <HAL_ADC_MspInit+0xb4>)
 80016f6:	6c1a      	ldr	r2, [r3, #64]	@ 0x40
 80016f8:	2180      	movs	r1, #128	@ 0x80
 80016fa:	0349      	lsls	r1, r1, #13
 80016fc:	430a      	orrs	r2, r1
 80016fe:	641a      	str	r2, [r3, #64]	@ 0x40
 8001700:	6c1a      	ldr	r2, [r3, #64]	@ 0x40
 8001702:	400a      	ands	r2, r1
 8001704:	9200      	str	r2, [sp, #0]
 8001706:	9a00      	ldr	r2, [sp, #0]
    __HAL_RCC_GPIOA_CLK_ENABLE();
 8001708:	6b59      	ldr	r1, [r3, #52]	@ 0x34
 800170a:	2201      	movs	r2, #1
 800170c:	4311      	orrs	r1, r2
 800170e:	6359      	str	r1, [r3, #52]	@ 0x34
 8001710:	6b5b      	ldr	r3, [r3, #52]	@ 0x34
 8001712:	401a      	ands	r2, r3
 8001714:	9201      	str	r2, [sp, #4]
 8001716:	9b01      	ldr	r3, [sp, #4]
    GPIO_InitStruct.Pin = GPIO_PIN_4;
 8001718:	a909      	add	r1, sp, #36	@ 0x24
 800171a:	2310      	movs	r3, #16
 800171c:	9309      	str	r3, [sp, #36]	@ 0x24
    GPIO_InitStruct.Mode = GPIO_MODE_ANALOG;
 800171e:	3b0d      	subs	r3, #13
 8001720:	604b      	str	r3, [r1, #4]
    GPIO_InitStruct.Pull = GPIO_NOPULL;
 8001722:	2500      	movs	r5, #0
 8001724:	608d      	str	r5, [r1, #8]
    HAL_GPIO_Init(GPIOA, &GPIO_InitStruct);
 8001726:	20a0      	movs	r0, #160	@ 0xa0
 8001728:	05c0      	lsls	r0, r0, #23
 800172a:	f7ff fea3 	bl	8001474 <HAL_GPIO_Init>
    hdma_adc1.Instance = DMA1_Channel1;
 800172e:	4812      	ldr	r0, [pc, #72]	@ (8001778 <HAL_ADC_MspInit+0xb8>)
 8001730:	4b12      	ldr	r3, [pc, #72]	@ (800177c <HAL_ADC_MspInit+0xbc>)
 8001732:	6003      	str	r3, [r0, #0]
    hdma_adc1.Init.Request = DMA_REQUEST_ADC1;
 8001734:	2305      	movs	r3, #5
 8001736:	6043      	str	r3, [r0, #4]
    hdma_adc1.Init.Direction = DMA_PERIPH_TO_MEMORY;
 8001738:	6085      	str	r5, [r0, #8]
    hdma_adc1.Init.PeriphInc = DMA_PINC_DISABLE;
 800173a:	60c5      	str	r5, [r0, #12]
    hdma_adc1.Init.MemInc = DMA_MINC_ENABLE;
 800173c:	337b      	adds	r3, #123	@ 0x7b
 800173e:	6103      	str	r3, [r0, #16]
    hdma_adc1.Init.PeriphDataAlignment = DMA_PDATAALIGN_HALFWORD;
 8001740:	3380      	adds	r3, #128	@ 0x80
 8001742:	6143      	str	r3, [r0, #20]
    hdma_adc1.Init.MemDataAlignment = DMA_MDATAALIGN_HALFWORD;
 8001744:	2380      	movs	r3, #128	@ 0x80
 8001746:	00db      	lsls	r3, r3, #3
 8001748:	6183      	str	r3, [r0, #24]
    hdma_adc1.Init.Mode = DMA_NORMAL;
 800174a:	61c5      	str	r5, [r0, #28]
    hdma_adc1.Init.Priority = DMA_PRIORITY_MEDIUM;
 800174c:	2380      	movs	r3, #128	@ 0x80
 800174e:	015b      	lsls	r3, r3, #5
 8001750:	6203      	str	r3, [r0, #32]
    if (HAL_DMA_Init(&hdma_adc1) != HAL_OK)
 8001752:	f7ff fdd1 	bl	80012f8 <HAL_DMA_Init>
 8001756:	2800      	cmp	r0, #0
 8001758:	d106      	bne.n	8001768 <HAL_ADC_MspInit+0xa8>
    __HAL_LINKDMA(hadc,DMA_Handle,hdma_adc1);
 800175a:	4b07      	ldr	r3, [pc, #28]	@ (8001778 <HAL_ADC_MspInit+0xb8>)
 800175c:	6523      	str	r3, [r4, #80]	@ 0x50
 800175e:	629c      	str	r4, [r3, #40]	@ 0x28
}
 8001760:	e7bf      	b.n	80016e2 <HAL_ADC_MspInit+0x22>
      Error_Handler();
 8001762:	f7ff f8ef 	bl	8000944 <Error_Handler>
 8001766:	e7c5      	b.n	80016f4 <HAL_ADC_MspInit+0x34>
      Error_Handler();
 8001768:	f7ff f8ec 	bl	8000944 <Error_Handler>
 800176c:	e7f5      	b.n	800175a <HAL_ADC_MspInit+0x9a>
 800176e:	46c0      	nop			@ (mov r8, r8)
 8001770:	40012400 	.word	0x40012400
 8001774:	40021000 	.word	0x40021000
 8001778:	20000380 	.word	0x20000380
 800177c:	40020008 	.word	0x40020008

08001780 <HAL_UART_MspInit>:
  * This function configures the hardware resources used in this example
  * @param huart: UART handle pointer
  * @retval None
  */
void HAL_UART_MspInit(UART_HandleTypeDef* huart)
{
 8001780:	b510      	push	{r4, lr}
 8001782:	b088      	sub	sp, #32
 8001784:	0004      	movs	r4, r0
  GPIO_InitTypeDef GPIO_InitStruct = {0};
 8001786:	2214      	movs	r2, #20
 8001788:	2100      	movs	r1, #0
 800178a:	a803      	add	r0, sp, #12
 800178c:	f001 f8e8 	bl	8002960 <memset>
  if(huart->Instance==USART2)
 8001790:	6822      	ldr	r2, [r4, #0]
 8001792:	4b11      	ldr	r3, [pc, #68]	@ (80017d8 <HAL_UART_MspInit+0x58>)
 8001794:	429a      	cmp	r2, r3
 8001796:	d001      	beq.n	800179c <HAL_UART_MspInit+0x1c>

    /* USER CODE END USART2_MspInit 1 */

  }

}
 8001798:	b008      	add	sp, #32
 800179a:	bd10      	pop	{r4, pc}
    __HAL_RCC_USART2_CLK_ENABLE();
 800179c:	4b0f      	ldr	r3, [pc, #60]	@ (80017dc <HAL_UART_MspInit+0x5c>)
 800179e:	6bda      	ldr	r2, [r3, #60]	@ 0x3c
 80017a0:	2180      	movs	r1, #128	@ 0x80
 80017a2:	0289      	lsls	r1, r1, #10
 80017a4:	430a      	orrs	r2, r1
 80017a6:	63da      	str	r2, [r3, #60]	@ 0x3c
 80017a8:	6bda      	ldr	r2, [r3, #60]	@ 0x3c
 80017aa:	400a      	ands	r2, r1
 80017ac:	9201      	str	r2, [sp, #4]
 80017ae:	9a01      	ldr	r2, [sp, #4]
    __HAL_RCC_GPIOA_CLK_ENABLE();
 80017b0:	6b59      	ldr	r1, [r3, #52]	@ 0x34
 80017b2:	2201      	movs	r2, #1
 80017b4:	4311      	orrs	r1, r2
 80017b6:	6359      	str	r1, [r3, #52]	@ 0x34
 80017b8:	6b5b      	ldr	r3, [r3, #52]	@ 0x34
 80017ba:	4013      	ands	r3, r2
 80017bc:	9302      	str	r3, [sp, #8]
 80017be:	9b02      	ldr	r3, [sp, #8]
    GPIO_InitStruct.Pin = GPIO_PIN_2|GPIO_PIN_3;
 80017c0:	a903      	add	r1, sp, #12
 80017c2:	230c      	movs	r3, #12
 80017c4:	9303      	str	r3, [sp, #12]
    GPIO_InitStruct.Mode = GPIO_MODE_AF_PP;
 80017c6:	3b0a      	subs	r3, #10
 80017c8:	604b      	str	r3, [r1, #4]
    GPIO_InitStruct.Alternate = GPIO_AF1_USART2;
 80017ca:	610a      	str	r2, [r1, #16]
    HAL_GPIO_Init(GPIOA, &GPIO_InitStruct);
 80017cc:	20a0      	movs	r0, #160	@ 0xa0
 80017ce:	05c0      	lsls	r0, r0, #23
 80017d0:	f7ff fe50 	bl	8001474 <HAL_GPIO_Init>
}
 80017d4:	e7e0      	b.n	8001798 <HAL_UART_MspInit+0x18>
 80017d6:	46c0      	nop			@ (mov r8, r8)
 80017d8:	40004400 	.word	0x40004400
 80017dc:	40021000 	.word	0x40021000

080017e0 <HAL_RCC_OscConfig>:
            must adjust the number of CPU wait states in their application (SystemClock_Config() API)
            before calling the HAL_RCC_OscConfig() API to update the HSI48 clock division factor.
  * @retval HAL status
  */
HAL_StatusTypeDef HAL_RCC_OscConfig(const RCC_OscInitTypeDef  *RCC_OscInitStruct)
{
 80017e0:	b570      	push	{r4, r5, r6, lr}
 80017e2:	1e04      	subs	r4, r0, #0
  uint32_t tickstart;
  uint32_t temp_sysclksrc;

  /* Check Null pointer */
  if (RCC_OscInitStruct == NULL)
 80017e4:	d100      	bne.n	80017e8 <HAL_RCC_OscConfig+0x8>
 80017e6:	e139      	b.n	8001a5c <HAL_RCC_OscConfig+0x27c>

  /* Check the parameters */
  assert_param(IS_RCC_OSCILLATORTYPE(RCC_OscInitStruct->OscillatorType));

  /*------------------------------- HSE Configuration ------------------------*/
  if (((RCC_OscInitStruct->OscillatorType) & RCC_OSCILLATORTYPE_HSE) == RCC_OSCILLATORTYPE_HSE)
 80017e8:	6803      	ldr	r3, [r0, #0]
 80017ea:	07db      	lsls	r3, r3, #31
 80017ec:	d52c      	bpl.n	8001848 <HAL_RCC_OscConfig+0x68>
  {
    /* Check the parameters */
    assert_param(IS_RCC_HSE(RCC_OscInitStruct->HSEState));

    temp_sysclksrc = __HAL_RCC_GET_SYSCLK_SOURCE();
 80017ee:	4ba1      	ldr	r3, [pc, #644]	@ (8001a74 <HAL_RCC_OscConfig+0x294>)
 80017f0:	689a      	ldr	r2, [r3, #8]
 80017f2:	2338      	movs	r3, #56	@ 0x38
 80017f4:	4013      	ands	r3, r2

    /* When the HSE is used as system clock in these cases it is not allowed to be disabled */
    if (temp_sysclksrc == RCC_CFGR_SWS_HSE)
 80017f6:	2b08      	cmp	r3, #8
 80017f8:	d022      	beq.n	8001840 <HAL_RCC_OscConfig+0x60>
      }
    }
    else
    {
      /* Set the new HSE configuration ---------------------------------------*/
      __HAL_RCC_HSE_CONFIG(RCC_OscInitStruct->HSEState);
 80017fa:	6843      	ldr	r3, [r0, #4]
 80017fc:	2280      	movs	r2, #128	@ 0x80
 80017fe:	0252      	lsls	r2, r2, #9
 8001800:	4293      	cmp	r3, r2
 8001802:	d02e      	beq.n	8001862 <HAL_RCC_OscConfig+0x82>
 8001804:	22a0      	movs	r2, #160	@ 0xa0
 8001806:	02d2      	lsls	r2, r2, #11
 8001808:	4293      	cmp	r3, r2
 800180a:	d031      	beq.n	8001870 <HAL_RCC_OscConfig+0x90>
 800180c:	4b99      	ldr	r3, [pc, #612]	@ (8001a74 <HAL_RCC_OscConfig+0x294>)
 800180e:	681a      	ldr	r2, [r3, #0]
 8001810:	4999      	ldr	r1, [pc, #612]	@ (8001a78 <HAL_RCC_OscConfig+0x298>)
 8001812:	400a      	ands	r2, r1
 8001814:	601a      	str	r2, [r3, #0]
 8001816:	681a      	ldr	r2, [r3, #0]
 8001818:	4998      	ldr	r1, [pc, #608]	@ (8001a7c <HAL_RCC_OscConfig+0x29c>)
 800181a:	400a      	ands	r2, r1
 800181c:	601a      	str	r2, [r3, #0]

      /* Check the HSE State */
      if (RCC_OscInitStruct->HSEState != RCC_HSE_OFF)
 800181e:	6863      	ldr	r3, [r4, #4]
 8001820:	2b00      	cmp	r3, #0
 8001822:	d031      	beq.n	8001888 <HAL_RCC_OscConfig+0xa8>
      {
        /* Get Start Tick*/
        tickstart = HAL_GetTick();
 8001824:	f7ff f8d4 	bl	80009d0 <HAL_GetTick>
 8001828:	0005      	movs	r5, r0

        /* Wait till HSE is ready */
        while (READ_BIT(RCC->CR, RCC_CR_HSERDY) == 0U)
 800182a:	4b92      	ldr	r3, [pc, #584]	@ (8001a74 <HAL_RCC_OscConfig+0x294>)
 800182c:	681b      	ldr	r3, [r3, #0]
 800182e:	039b      	lsls	r3, r3, #14
 8001830:	d40a      	bmi.n	8001848 <HAL_RCC_OscConfig+0x68>
        {
          if ((HAL_GetTick() - tickstart) > RCC_HSE_TIMEOUT_VALUE)
 8001832:	f7ff f8cd 	bl	80009d0 <HAL_GetTick>
 8001836:	1b40      	subs	r0, r0, r5
 8001838:	2864      	cmp	r0, #100	@ 0x64
 800183a:	d9f6      	bls.n	800182a <HAL_RCC_OscConfig+0x4a>
          {
            return HAL_TIMEOUT;
 800183c:	2003      	movs	r0, #3
 800183e:	e10e      	b.n	8001a5e <HAL_RCC_OscConfig+0x27e>
      if (RCC_OscInitStruct->HSEState == RCC_HSE_OFF)
 8001840:	6843      	ldr	r3, [r0, #4]
 8001842:	2b00      	cmp	r3, #0
 8001844:	d100      	bne.n	8001848 <HAL_RCC_OscConfig+0x68>
 8001846:	e10b      	b.n	8001a60 <HAL_RCC_OscConfig+0x280>
        }
      }
    }
  }
  /*----------------------------- HSI Configuration --------------------------*/
  if (((RCC_OscInitStruct->OscillatorType) & RCC_OSCILLATORTYPE_HSI) == RCC_OSCILLATORTYPE_HSI)
 8001848:	6823      	ldr	r3, [r4, #0]
 800184a:	079b      	lsls	r3, r3, #30
 800184c:	d547      	bpl.n	80018de <HAL_RCC_OscConfig+0xfe>
    assert_param(IS_RCC_HSI(RCC_OscInitStruct->HSIState));
    assert_param(IS_RCC_HSI_CALIBRATION_VALUE(RCC_OscInitStruct->HSICalibrationValue));
    assert_param(IS_RCC_HSIDIV(RCC_OscInitStruct->HSIDiv));

    /* Check if HSI48 is used as system clock  */
    temp_sysclksrc = __HAL_RCC_GET_SYSCLK_SOURCE();
 800184e:	4b89      	ldr	r3, [pc, #548]	@ (8001a74 <HAL_RCC_OscConfig+0x294>)
 8001850:	689b      	ldr	r3, [r3, #8]
 8001852:	2238      	movs	r2, #56	@ 0x38

    if (temp_sysclksrc == RCC_CFGR_SWS_HSI)
 8001854:	421a      	tst	r2, r3
 8001856:	d161      	bne.n	800191c <HAL_RCC_OscConfig+0x13c>
    {
      /* When HSI is used as system clock it can not be disabled */
      if (RCC_OscInitStruct->HSIState == RCC_HSI_OFF)
 8001858:	68e3      	ldr	r3, [r4, #12]
 800185a:	2b00      	cmp	r3, #0
 800185c:	d122      	bne.n	80018a4 <HAL_RCC_OscConfig+0xc4>
      {
        return HAL_ERROR;
 800185e:	2001      	movs	r0, #1
 8001860:	e0fd      	b.n	8001a5e <HAL_RCC_OscConfig+0x27e>
      __HAL_RCC_HSE_CONFIG(RCC_OscInitStruct->HSEState);
 8001862:	4a84      	ldr	r2, [pc, #528]	@ (8001a74 <HAL_RCC_OscConfig+0x294>)
 8001864:	6811      	ldr	r1, [r2, #0]
 8001866:	2380      	movs	r3, #128	@ 0x80
 8001868:	025b      	lsls	r3, r3, #9
 800186a:	430b      	orrs	r3, r1
 800186c:	6013      	str	r3, [r2, #0]
 800186e:	e7d6      	b.n	800181e <HAL_RCC_OscConfig+0x3e>
 8001870:	4b80      	ldr	r3, [pc, #512]	@ (8001a74 <HAL_RCC_OscConfig+0x294>)
 8001872:	6819      	ldr	r1, [r3, #0]
 8001874:	2280      	movs	r2, #128	@ 0x80
 8001876:	02d2      	lsls	r2, r2, #11
 8001878:	430a      	orrs	r2, r1
 800187a:	601a      	str	r2, [r3, #0]
 800187c:	6819      	ldr	r1, [r3, #0]
 800187e:	2280      	movs	r2, #128	@ 0x80
 8001880:	0252      	lsls	r2, r2, #9
 8001882:	430a      	orrs	r2, r1
 8001884:	601a      	str	r2, [r3, #0]
 8001886:	e7ca      	b.n	800181e <HAL_RCC_OscConfig+0x3e>
        tickstart = HAL_GetTick();
 8001888:	f7ff f8a2 	bl	80009d0 <HAL_GetTick>
 800188c:	0005      	movs	r5, r0
        while (READ_BIT(RCC->CR, RCC_CR_HSERDY) != 0U)
 800188e:	4b79      	ldr	r3, [pc, #484]	@ (8001a74 <HAL_RCC_OscConfig+0x294>)
 8001890:	681b      	ldr	r3, [r3, #0]
 8001892:	039b      	lsls	r3, r3, #14
 8001894:	d5d8      	bpl.n	8001848 <HAL_RCC_OscConfig+0x68>
          if ((HAL_GetTick() - tickstart) > RCC_HSE_TIMEOUT_VALUE)
 8001896:	f7ff f89b 	bl	80009d0 <HAL_GetTick>
 800189a:	1b40      	subs	r0, r0, r5
 800189c:	2864      	cmp	r0, #100	@ 0x64
 800189e:	d9f6      	bls.n	800188e <HAL_RCC_OscConfig+0xae>
            return HAL_TIMEOUT;
 80018a0:	2003      	movs	r0, #3
 80018a2:	e0dc      	b.n	8001a5e <HAL_RCC_OscConfig+0x27e>
      }
      /* Otherwise, just the calibration is allowed */
      else
      {
        /* Adjusts the Internal High Speed oscillator (HSI) calibration value.*/
        __HAL_RCC_HSI_CALIBRATIONVALUE_ADJUST(RCC_OscInitStruct->HSICalibrationValue);
 80018a4:	4b73      	ldr	r3, [pc, #460]	@ (8001a74 <HAL_RCC_OscConfig+0x294>)
 80018a6:	685a      	ldr	r2, [r3, #4]
 80018a8:	4975      	ldr	r1, [pc, #468]	@ (8001a80 <HAL_RCC_OscConfig+0x2a0>)
 80018aa:	400a      	ands	r2, r1
 80018ac:	6961      	ldr	r1, [r4, #20]
 80018ae:	0209      	lsls	r1, r1, #8
 80018b0:	430a      	orrs	r2, r1
 80018b2:	605a      	str	r2, [r3, #4]

        if (temp_sysclksrc == RCC_CFGR_SWS_HSI)
        {
          /* Adjust the HSI48 division factor */
          __HAL_RCC_HSI_CONFIG(RCC_OscInitStruct->HSIDiv);
 80018b4:	681a      	ldr	r2, [r3, #0]
 80018b6:	4973      	ldr	r1, [pc, #460]	@ (8001a84 <HAL_RCC_OscConfig+0x2a4>)
 80018b8:	400a      	ands	r2, r1
 80018ba:	6921      	ldr	r1, [r4, #16]
 80018bc:	430a      	orrs	r2, r1
 80018be:	601a      	str	r2, [r3, #0]

          /* Update the SystemCoreClock global variable with HSISYS value  */
          SystemCoreClock = (HSI_VALUE / (1UL << ((READ_BIT(RCC->CR, RCC_CR_HSIDIV)) >> RCC_CR_HSIDIV_Pos)));
 80018c0:	681b      	ldr	r3, [r3, #0]
 80018c2:	0adb      	lsrs	r3, r3, #11
 80018c4:	2207      	movs	r2, #7
 80018c6:	401a      	ands	r2, r3
 80018c8:	4b6f      	ldr	r3, [pc, #444]	@ (8001a88 <HAL_RCC_OscConfig+0x2a8>)
 80018ca:	40d3      	lsrs	r3, r2
 80018cc:	4a6f      	ldr	r2, [pc, #444]	@ (8001a8c <HAL_RCC_OscConfig+0x2ac>)
 80018ce:	6013      	str	r3, [r2, #0]
        }

        /* Adapt Systick interrupt period */
        if (HAL_InitTick(uwTickPrio) != HAL_OK)
 80018d0:	4b6f      	ldr	r3, [pc, #444]	@ (8001a90 <HAL_RCC_OscConfig+0x2b0>)
 80018d2:	6818      	ldr	r0, [r3, #0]
 80018d4:	f7ff f838 	bl	8000948 <HAL_InitTick>
 80018d8:	2800      	cmp	r0, #0
 80018da:	d000      	beq.n	80018de <HAL_RCC_OscConfig+0xfe>
 80018dc:	e0c2      	b.n	8001a64 <HAL_RCC_OscConfig+0x284>
        }
      }
    }
  }
  /*------------------------------ LSI Configuration -------------------------*/
  if (((RCC_OscInitStruct->OscillatorType) & RCC_OSCILLATORTYPE_LSI) == RCC_OSCILLATORTYPE_LSI)
 80018de:	6823      	ldr	r3, [r4, #0]
 80018e0:	071b      	lsls	r3, r3, #28
 80018e2:	d557      	bpl.n	8001994 <HAL_RCC_OscConfig+0x1b4>
  {
    /* Check the parameters */
    assert_param(IS_RCC_LSI(RCC_OscInitStruct->LSIState));

    /* Check if LSI is used as system clock */
    if (__HAL_RCC_GET_SYSCLK_SOURCE() == RCC_CFGR_SWS_LSI)
 80018e4:	4b63      	ldr	r3, [pc, #396]	@ (8001a74 <HAL_RCC_OscConfig+0x294>)
 80018e6:	689a      	ldr	r2, [r3, #8]
 80018e8:	2338      	movs	r3, #56	@ 0x38
 80018ea:	4013      	ands	r3, r2
 80018ec:	2b18      	cmp	r3, #24
 80018ee:	d04e      	beq.n	800198e <HAL_RCC_OscConfig+0x1ae>
      }
    }
    else
    {
      /* Check the LSI State */
      if (RCC_OscInitStruct->LSIState != RCC_LSI_OFF)
 80018f0:	69a3      	ldr	r3, [r4, #24]
 80018f2:	2b00      	cmp	r3, #0
 80018f4:	d077      	beq.n	80019e6 <HAL_RCC_OscConfig+0x206>
      {
        /* Enable the Internal Low Speed oscillator (LSI). */
        __HAL_RCC_LSI_ENABLE();
 80018f6:	4a5f      	ldr	r2, [pc, #380]	@ (8001a74 <HAL_RCC_OscConfig+0x294>)
 80018f8:	6e13      	ldr	r3, [r2, #96]	@ 0x60
 80018fa:	2101      	movs	r1, #1
 80018fc:	430b      	orrs	r3, r1
 80018fe:	6613      	str	r3, [r2, #96]	@ 0x60

        /* Get Start Tick*/
        tickstart = HAL_GetTick();
 8001900:	f7ff f866 	bl	80009d0 <HAL_GetTick>
 8001904:	0005      	movs	r5, r0

        /* Wait till LSI is ready */
        while (READ_BIT(RCC->CSR2, RCC_CSR2_LSIRDY) == 0U)
 8001906:	4b5b      	ldr	r3, [pc, #364]	@ (8001a74 <HAL_RCC_OscConfig+0x294>)
 8001908:	6e1b      	ldr	r3, [r3, #96]	@ 0x60
 800190a:	079b      	lsls	r3, r3, #30
 800190c:	d442      	bmi.n	8001994 <HAL_RCC_OscConfig+0x1b4>
        {
          if ((HAL_GetTick() - tickstart) > RCC_LSI_TIMEOUT_VALUE)
 800190e:	f7ff f85f 	bl	80009d0 <HAL_GetTick>
 8001912:	1b40      	subs	r0, r0, r5
 8001914:	2802      	cmp	r0, #2
 8001916:	d9f6      	bls.n	8001906 <HAL_RCC_OscConfig+0x126>
          {
            return HAL_TIMEOUT;
 8001918:	2003      	movs	r0, #3
 800191a:	e0a0      	b.n	8001a5e <HAL_RCC_OscConfig+0x27e>
      if (RCC_OscInitStruct->HSIState != RCC_HSI_OFF)
 800191c:	68e3      	ldr	r3, [r4, #12]
 800191e:	2b00      	cmp	r3, #0
 8001920:	d022      	beq.n	8001968 <HAL_RCC_OscConfig+0x188>
        __HAL_RCC_HSI_CONFIG(RCC_OscInitStruct->HSIDiv);
 8001922:	4a54      	ldr	r2, [pc, #336]	@ (8001a74 <HAL_RCC_OscConfig+0x294>)
 8001924:	6813      	ldr	r3, [r2, #0]
 8001926:	4957      	ldr	r1, [pc, #348]	@ (8001a84 <HAL_RCC_OscConfig+0x2a4>)
 8001928:	400b      	ands	r3, r1
 800192a:	6921      	ldr	r1, [r4, #16]
 800192c:	430b      	orrs	r3, r1
 800192e:	6013      	str	r3, [r2, #0]
        __HAL_RCC_HSI_ENABLE();
 8001930:	6811      	ldr	r1, [r2, #0]
 8001932:	2380      	movs	r3, #128	@ 0x80
 8001934:	005b      	lsls	r3, r3, #1
 8001936:	430b      	orrs	r3, r1
 8001938:	6013      	str	r3, [r2, #0]
        tickstart = HAL_GetTick();
 800193a:	f7ff f849 	bl	80009d0 <HAL_GetTick>
 800193e:	0005      	movs	r5, r0
        while (READ_BIT(RCC->CR, RCC_CR_HSIRDY) == 0U)
 8001940:	4b4c      	ldr	r3, [pc, #304]	@ (8001a74 <HAL_RCC_OscConfig+0x294>)
 8001942:	681b      	ldr	r3, [r3, #0]
 8001944:	055b      	lsls	r3, r3, #21
 8001946:	d406      	bmi.n	8001956 <HAL_RCC_OscConfig+0x176>
          if ((HAL_GetTick() - tickstart) > RCC_HSI_TIMEOUT_VALUE)
 8001948:	f7ff f842 	bl	80009d0 <HAL_GetTick>
 800194c:	1b40      	subs	r0, r0, r5
 800194e:	2802      	cmp	r0, #2
 8001950:	d9f6      	bls.n	8001940 <HAL_RCC_OscConfig+0x160>
            return HAL_TIMEOUT;
 8001952:	2003      	movs	r0, #3
 8001954:	e083      	b.n	8001a5e <HAL_RCC_OscConfig+0x27e>
        __HAL_RCC_HSI_CALIBRATIONVALUE_ADJUST(RCC_OscInitStruct->HSICalibrationValue);
 8001956:	4947      	ldr	r1, [pc, #284]	@ (8001a74 <HAL_RCC_OscConfig+0x294>)
 8001958:	684b      	ldr	r3, [r1, #4]
 800195a:	4a49      	ldr	r2, [pc, #292]	@ (8001a80 <HAL_RCC_OscConfig+0x2a0>)
 800195c:	4013      	ands	r3, r2
 800195e:	6962      	ldr	r2, [r4, #20]
 8001960:	0212      	lsls	r2, r2, #8
 8001962:	4313      	orrs	r3, r2
 8001964:	604b      	str	r3, [r1, #4]
 8001966:	e7ba      	b.n	80018de <HAL_RCC_OscConfig+0xfe>
        __HAL_RCC_HSI_DISABLE();
 8001968:	4a42      	ldr	r2, [pc, #264]	@ (8001a74 <HAL_RCC_OscConfig+0x294>)
 800196a:	6813      	ldr	r3, [r2, #0]
 800196c:	4949      	ldr	r1, [pc, #292]	@ (8001a94 <HAL_RCC_OscConfig+0x2b4>)
 800196e:	400b      	ands	r3, r1
 8001970:	6013      	str	r3, [r2, #0]
        tickstart = HAL_GetTick();
 8001972:	f7ff f82d 	bl	80009d0 <HAL_GetTick>
 8001976:	0005      	movs	r5, r0
        while (READ_BIT(RCC->CR, RCC_CR_HSIRDY) != 0U)
 8001978:	4b3e      	ldr	r3, [pc, #248]	@ (8001a74 <HAL_RCC_OscConfig+0x294>)
 800197a:	681b      	ldr	r3, [r3, #0]
 800197c:	055b      	lsls	r3, r3, #21
 800197e:	d5ae      	bpl.n	80018de <HAL_RCC_OscConfig+0xfe>
          if ((HAL_GetTick() - tickstart) > RCC_HSI_TIMEOUT_VALUE)
 8001980:	f7ff f826 	bl	80009d0 <HAL_GetTick>
 8001984:	1b40      	subs	r0, r0, r5
 8001986:	2802      	cmp	r0, #2
 8001988:	d9f6      	bls.n	8001978 <HAL_RCC_OscConfig+0x198>
            return HAL_TIMEOUT;
 800198a:	2003      	movs	r0, #3
 800198c:	e067      	b.n	8001a5e <HAL_RCC_OscConfig+0x27e>
      if (RCC_OscInitStruct->LSIState == RCC_LSI_OFF)
 800198e:	69a3      	ldr	r3, [r4, #24]
 8001990:	2b00      	cmp	r3, #0
 8001992:	d069      	beq.n	8001a68 <HAL_RCC_OscConfig+0x288>
        }
      }
    }
  }
  /*------------------------------ LSE Configuration -------------------------*/
  if (((RCC_OscInitStruct->OscillatorType) & RCC_OSCILLATORTYPE_LSE) == RCC_OSCILLATORTYPE_LSE)
 8001994:	6823      	ldr	r3, [r4, #0]
 8001996:	075b      	lsls	r3, r3, #29
 8001998:	d568      	bpl.n	8001a6c <HAL_RCC_OscConfig+0x28c>

    /* Check the parameters */
    assert_param(IS_RCC_LSE(RCC_OscInitStruct->LSEState));

    /* When the LSE is used as system clock, it is not allowed disable it */
    if (__HAL_RCC_GET_SYSCLK_SOURCE() == RCC_CFGR_SWS_LSE)
 800199a:	4b36      	ldr	r3, [pc, #216]	@ (8001a74 <HAL_RCC_OscConfig+0x294>)
 800199c:	689a      	ldr	r2, [r3, #8]
 800199e:	2338      	movs	r3, #56	@ 0x38
 80019a0:	4013      	ands	r3, r2
 80019a2:	2b20      	cmp	r3, #32
 80019a4:	d032      	beq.n	8001a0c <HAL_RCC_OscConfig+0x22c>
    }
    else
    {
      /* Update LSE configuration in RTC Domain control register    */
      /* Set the new LSE configuration -----------------------------------------*/
      __HAL_RCC_LSE_CONFIG(RCC_OscInitStruct->LSEState);
 80019a6:	68a3      	ldr	r3, [r4, #8]
 80019a8:	2b01      	cmp	r3, #1
 80019aa:	d034      	beq.n	8001a16 <HAL_RCC_OscConfig+0x236>
 80019ac:	2b05      	cmp	r3, #5
 80019ae:	d038      	beq.n	8001a22 <HAL_RCC_OscConfig+0x242>
 80019b0:	4b30      	ldr	r3, [pc, #192]	@ (8001a74 <HAL_RCC_OscConfig+0x294>)
 80019b2:	6dda      	ldr	r2, [r3, #92]	@ 0x5c
 80019b4:	2101      	movs	r1, #1
 80019b6:	438a      	bics	r2, r1
 80019b8:	65da      	str	r2, [r3, #92]	@ 0x5c
 80019ba:	6dda      	ldr	r2, [r3, #92]	@ 0x5c
 80019bc:	3103      	adds	r1, #3
 80019be:	438a      	bics	r2, r1
 80019c0:	65da      	str	r2, [r3, #92]	@ 0x5c

      /* Check the LSE State */
      if (RCC_OscInitStruct->LSEState != RCC_LSE_OFF)
 80019c2:	68a3      	ldr	r3, [r4, #8]
 80019c4:	2b00      	cmp	r3, #0
 80019c6:	d038      	beq.n	8001a3a <HAL_RCC_OscConfig+0x25a>
      {
        /* Get Start Tick*/
        tickstart = HAL_GetTick();
 80019c8:	f7ff f802 	bl	80009d0 <HAL_GetTick>
 80019cc:	0004      	movs	r4, r0

        /* Wait till LSE is ready */
        while (READ_BIT(RCC->CSR1, RCC_CSR1_LSERDY) == 0U)
 80019ce:	4b29      	ldr	r3, [pc, #164]	@ (8001a74 <HAL_RCC_OscConfig+0x294>)
 80019d0:	6ddb      	ldr	r3, [r3, #92]	@ 0x5c
 80019d2:	079b      	lsls	r3, r3, #30
 80019d4:	d42f      	bmi.n	8001a36 <HAL_RCC_OscConfig+0x256>
        {
          if ((HAL_GetTick() - tickstart) > RCC_LSE_TIMEOUT_VALUE)
 80019d6:	f7fe fffb 	bl	80009d0 <HAL_GetTick>
 80019da:	1b00      	subs	r0, r0, r4
 80019dc:	4b2e      	ldr	r3, [pc, #184]	@ (8001a98 <HAL_RCC_OscConfig+0x2b8>)
 80019de:	4298      	cmp	r0, r3
 80019e0:	d9f5      	bls.n	80019ce <HAL_RCC_OscConfig+0x1ee>
          {
            return HAL_TIMEOUT;
 80019e2:	2003      	movs	r0, #3
 80019e4:	e03b      	b.n	8001a5e <HAL_RCC_OscConfig+0x27e>
        __HAL_RCC_LSI_DISABLE();
 80019e6:	4a23      	ldr	r2, [pc, #140]	@ (8001a74 <HAL_RCC_OscConfig+0x294>)
 80019e8:	6e13      	ldr	r3, [r2, #96]	@ 0x60
 80019ea:	2101      	movs	r1, #1
 80019ec:	438b      	bics	r3, r1
 80019ee:	6613      	str	r3, [r2, #96]	@ 0x60
        tickstart = HAL_GetTick();
 80019f0:	f7fe ffee 	bl	80009d0 <HAL_GetTick>
 80019f4:	0005      	movs	r5, r0
        while (READ_BIT(RCC->CSR2, RCC_CSR2_LSIRDY) != 0U)
 80019f6:	4b1f      	ldr	r3, [pc, #124]	@ (8001a74 <HAL_RCC_OscConfig+0x294>)
 80019f8:	6e1b      	ldr	r3, [r3, #96]	@ 0x60
 80019fa:	079b      	lsls	r3, r3, #30
 80019fc:	d5ca      	bpl.n	8001994 <HAL_RCC_OscConfig+0x1b4>
          if ((HAL_GetTick() - tickstart) > RCC_LSI_TIMEOUT_VALUE)
 80019fe:	f7fe ffe7 	bl	80009d0 <HAL_GetTick>
 8001a02:	1b40      	subs	r0, r0, r5
 8001a04:	2802      	cmp	r0, #2
 8001a06:	d9f6      	bls.n	80019f6 <HAL_RCC_OscConfig+0x216>
            return HAL_TIMEOUT;
 8001a08:	2003      	movs	r0, #3
 8001a0a:	e028      	b.n	8001a5e <HAL_RCC_OscConfig+0x27e>
      if (RCC_OscInitStruct->LSEState == RCC_LSE_OFF)
 8001a0c:	68a3      	ldr	r3, [r4, #8]
 8001a0e:	2b00      	cmp	r3, #0
 8001a10:	d02e      	beq.n	8001a70 <HAL_RCC_OscConfig+0x290>
        }
      }
    }
  }
#endif /* RCC_CR_HSIUSB48ON */
  return HAL_OK;
 8001a12:	2000      	movs	r0, #0
 8001a14:	e023      	b.n	8001a5e <HAL_RCC_OscConfig+0x27e>
      __HAL_RCC_LSE_CONFIG(RCC_OscInitStruct->LSEState);
 8001a16:	4a17      	ldr	r2, [pc, #92]	@ (8001a74 <HAL_RCC_OscConfig+0x294>)
 8001a18:	6dd3      	ldr	r3, [r2, #92]	@ 0x5c
 8001a1a:	2101      	movs	r1, #1
 8001a1c:	430b      	orrs	r3, r1
 8001a1e:	65d3      	str	r3, [r2, #92]	@ 0x5c
 8001a20:	e7cf      	b.n	80019c2 <HAL_RCC_OscConfig+0x1e2>
 8001a22:	4b14      	ldr	r3, [pc, #80]	@ (8001a74 <HAL_RCC_OscConfig+0x294>)
 8001a24:	6dda      	ldr	r2, [r3, #92]	@ 0x5c
 8001a26:	2104      	movs	r1, #4
 8001a28:	430a      	orrs	r2, r1
 8001a2a:	65da      	str	r2, [r3, #92]	@ 0x5c
 8001a2c:	6dda      	ldr	r2, [r3, #92]	@ 0x5c
 8001a2e:	3903      	subs	r1, #3
 8001a30:	430a      	orrs	r2, r1
 8001a32:	65da      	str	r2, [r3, #92]	@ 0x5c
 8001a34:	e7c5      	b.n	80019c2 <HAL_RCC_OscConfig+0x1e2>
  return HAL_OK;
 8001a36:	2000      	movs	r0, #0
 8001a38:	e011      	b.n	8001a5e <HAL_RCC_OscConfig+0x27e>
        tickstart = HAL_GetTick();
 8001a3a:	f7fe ffc9 	bl	80009d0 <HAL_GetTick>
 8001a3e:	0004      	movs	r4, r0
        while (READ_BIT(RCC->CSR1, RCC_CSR1_LSERDY) != 0U)
 8001a40:	4b0c      	ldr	r3, [pc, #48]	@ (8001a74 <HAL_RCC_OscConfig+0x294>)
 8001a42:	6ddb      	ldr	r3, [r3, #92]	@ 0x5c
 8001a44:	079b      	lsls	r3, r3, #30
 8001a46:	d507      	bpl.n	8001a58 <HAL_RCC_OscConfig+0x278>
          if ((HAL_GetTick() - tickstart) > RCC_LSE_TIMEOUT_VALUE)
 8001a48:	f7fe ffc2 	bl	80009d0 <HAL_GetTick>
 8001a4c:	1b00      	subs	r0, r0, r4
 8001a4e:	4b12      	ldr	r3, [pc, #72]	@ (8001a98 <HAL_RCC_OscConfig+0x2b8>)
 8001a50:	4298      	cmp	r0, r3
 8001a52:	d9f5      	bls.n	8001a40 <HAL_RCC_OscConfig+0x260>
            return HAL_TIMEOUT;
 8001a54:	2003      	movs	r0, #3
 8001a56:	e002      	b.n	8001a5e <HAL_RCC_OscConfig+0x27e>
  return HAL_OK;
 8001a58:	2000      	movs	r0, #0
 8001a5a:	e000      	b.n	8001a5e <HAL_RCC_OscConfig+0x27e>
    return HAL_ERROR;
 8001a5c:	2001      	movs	r0, #1
}
 8001a5e:	bd70      	pop	{r4, r5, r6, pc}
        return HAL_ERROR;
 8001a60:	2001      	movs	r0, #1
 8001a62:	e7fc      	b.n	8001a5e <HAL_RCC_OscConfig+0x27e>
          return HAL_ERROR;
 8001a64:	2001      	movs	r0, #1
 8001a66:	e7fa      	b.n	8001a5e <HAL_RCC_OscConfig+0x27e>
        return HAL_ERROR;
 8001a68:	2001      	movs	r0, #1
 8001a6a:	e7f8      	b.n	8001a5e <HAL_RCC_OscConfig+0x27e>
  return HAL_OK;
 8001a6c:	2000      	movs	r0, #0
 8001a6e:	e7f6      	b.n	8001a5e <HAL_RCC_OscConfig+0x27e>
        return HAL_ERROR;
 8001a70:	2001      	movs	r0, #1
 8001a72:	e7f4      	b.n	8001a5e <HAL_RCC_OscConfig+0x27e>
 8001a74:	40021000 	.word	0x40021000
 8001a78:	fffeffff 	.word	0xfffeffff
 8001a7c:	fffbffff 	.word	0xfffbffff
 8001a80:	ffff80ff 	.word	0xffff80ff
 8001a84:	ffffc7ff 	.word	0xffffc7ff
 8001a88:	02dc6c00 	.word	0x02dc6c00
 8001a8c:	20000008 	.word	0x20000008
 8001a90:	20000004 	.word	0x20000004
 8001a94:	fffffeff 	.word	0xfffffeff
 8001a98:	00001388 	.word	0x00001388

08001a9c <HAL_RCC_GetSysClockFreq>:
  uint32_t sysclockfreq;
#if defined(RCC_CR_SYSDIV)
  uint32_t sysclockdiv = (uint32_t)(((RCC->CR & RCC_CR_SYSDIV) >> RCC_CR_SYSDIV_Pos) + 1U);
#endif /* RCC_CR_SYSDIV */

  if (__HAL_RCC_GET_SYSCLK_SOURCE() == RCC_CFGR_SWS_HSI)
 8001a9c:	4b14      	ldr	r3, [pc, #80]	@ (8001af0 <HAL_RCC_GetSysClockFreq+0x54>)
 8001a9e:	689b      	ldr	r3, [r3, #8]
 8001aa0:	2238      	movs	r2, #56	@ 0x38
 8001aa2:	421a      	tst	r2, r3
 8001aa4:	d107      	bne.n	8001ab6 <HAL_RCC_GetSysClockFreq+0x1a>
  {
    /* HSISYS can be derived for HSI48 */
    hsidiv = (1UL << ((READ_BIT(RCC->CR, RCC_CR_HSIDIV)) >> RCC_CR_HSIDIV_Pos));
 8001aa6:	4b12      	ldr	r3, [pc, #72]	@ (8001af0 <HAL_RCC_GetSysClockFreq+0x54>)
 8001aa8:	681a      	ldr	r2, [r3, #0]
 8001aaa:	0ad2      	lsrs	r2, r2, #11
 8001aac:	2307      	movs	r3, #7
 8001aae:	4013      	ands	r3, r2

    /* HSI used as system clock source */
    sysclockfreq = (HSI_VALUE / hsidiv);
 8001ab0:	4810      	ldr	r0, [pc, #64]	@ (8001af4 <HAL_RCC_GetSysClockFreq+0x58>)
 8001ab2:	40d8      	lsrs	r0, r3
  }
#if defined(RCC_CR_SYSDIV)
  sysclockfreq = sysclockfreq / sysclockdiv;
#endif /* RCC_CR_SYSDIV */
  return sysclockfreq;
}
 8001ab4:	4770      	bx	lr
  else if (__HAL_RCC_GET_SYSCLK_SOURCE() == RCC_CFGR_SWS_HSE)
 8001ab6:	4b0e      	ldr	r3, [pc, #56]	@ (8001af0 <HAL_RCC_GetSysClockFreq+0x54>)
 8001ab8:	689a      	ldr	r2, [r3, #8]
 8001aba:	2338      	movs	r3, #56	@ 0x38
 8001abc:	4013      	ands	r3, r2
 8001abe:	2b08      	cmp	r3, #8
 8001ac0:	d010      	beq.n	8001ae4 <HAL_RCC_GetSysClockFreq+0x48>
  else if (__HAL_RCC_GET_SYSCLK_SOURCE() == RCC_CFGR_SWS_LSE)
 8001ac2:	4b0b      	ldr	r3, [pc, #44]	@ (8001af0 <HAL_RCC_GetSysClockFreq+0x54>)
 8001ac4:	689a      	ldr	r2, [r3, #8]
 8001ac6:	2338      	movs	r3, #56	@ 0x38
 8001ac8:	4013      	ands	r3, r2
 8001aca:	2b20      	cmp	r3, #32
 8001acc:	d00c      	beq.n	8001ae8 <HAL_RCC_GetSysClockFreq+0x4c>
  else if (__HAL_RCC_GET_SYSCLK_SOURCE() == RCC_CFGR_SWS_LSI)
 8001ace:	4b08      	ldr	r3, [pc, #32]	@ (8001af0 <HAL_RCC_GetSysClockFreq+0x54>)
 8001ad0:	689a      	ldr	r2, [r3, #8]
 8001ad2:	2338      	movs	r3, #56	@ 0x38
 8001ad4:	4013      	ands	r3, r2
 8001ad6:	2b18      	cmp	r3, #24
 8001ad8:	d001      	beq.n	8001ade <HAL_RCC_GetSysClockFreq+0x42>
    sysclockfreq = 0U;
 8001ada:	2000      	movs	r0, #0
  return sysclockfreq;
 8001adc:	e7ea      	b.n	8001ab4 <HAL_RCC_GetSysClockFreq+0x18>
    sysclockfreq = LSI_VALUE;
 8001ade:	20fa      	movs	r0, #250	@ 0xfa
 8001ae0:	01c0      	lsls	r0, r0, #7
 8001ae2:	e7e7      	b.n	8001ab4 <HAL_RCC_GetSysClockFreq+0x18>
    sysclockfreq = HSE_VALUE;
 8001ae4:	4803      	ldr	r0, [pc, #12]	@ (8001af4 <HAL_RCC_GetSysClockFreq+0x58>)
 8001ae6:	e7e5      	b.n	8001ab4 <HAL_RCC_GetSysClockFreq+0x18>
    sysclockfreq = LSE_VALUE;
 8001ae8:	2080      	movs	r0, #128	@ 0x80
 8001aea:	0200      	lsls	r0, r0, #8
 8001aec:	e7e2      	b.n	8001ab4 <HAL_RCC_GetSysClockFreq+0x18>
 8001aee:	46c0      	nop			@ (mov r8, r8)
 8001af0:	40021000 	.word	0x40021000
 8001af4:	02dc6c00 	.word	0x02dc6c00

08001af8 <HAL_RCC_ClockConfig>:
{
 8001af8:	b570      	push	{r4, r5, r6, lr}
 8001afa:	0004      	movs	r4, r0
 8001afc:	000d      	movs	r5, r1
  if (RCC_ClkInitStruct == NULL)
 8001afe:	2800      	cmp	r0, #0
 8001b00:	d100      	bne.n	8001b04 <HAL_RCC_ClockConfig+0xc>
 8001b02:	e0a4      	b.n	8001c4e <HAL_RCC_ClockConfig+0x156>
  if (FLatency > __HAL_FLASH_GET_LATENCY())
 8001b04:	4b54      	ldr	r3, [pc, #336]	@ (8001c58 <HAL_RCC_ClockConfig+0x160>)
 8001b06:	681a      	ldr	r2, [r3, #0]
 8001b08:	2307      	movs	r3, #7
 8001b0a:	4013      	ands	r3, r2
 8001b0c:	428b      	cmp	r3, r1
 8001b0e:	d321      	bcc.n	8001b54 <HAL_RCC_ClockConfig+0x5c>
  if (((RCC_ClkInitStruct->ClockType) & RCC_CLOCKTYPE_HCLK) == RCC_CLOCKTYPE_HCLK)
 8001b10:	6823      	ldr	r3, [r4, #0]
 8001b12:	079a      	lsls	r2, r3, #30
 8001b14:	d510      	bpl.n	8001b38 <HAL_RCC_ClockConfig+0x40>
    if (((RCC_ClkInitStruct->ClockType) & RCC_CLOCKTYPE_PCLK1) == RCC_CLOCKTYPE_PCLK1)
 8001b16:	075b      	lsls	r3, r3, #29
 8001b18:	d507      	bpl.n	8001b2a <HAL_RCC_ClockConfig+0x32>
      MODIFY_REG(RCC->CFGR, RCC_CFGR_PPRE, RCC_HCLK_DIV16);
 8001b1a:	4950      	ldr	r1, [pc, #320]	@ (8001c5c <HAL_RCC_ClockConfig+0x164>)
 8001b1c:	688a      	ldr	r2, [r1, #8]
 8001b1e:	4b50      	ldr	r3, [pc, #320]	@ (8001c60 <HAL_RCC_ClockConfig+0x168>)
 8001b20:	401a      	ands	r2, r3
 8001b22:	23b0      	movs	r3, #176	@ 0xb0
 8001b24:	011b      	lsls	r3, r3, #4
 8001b26:	4313      	orrs	r3, r2
 8001b28:	608b      	str	r3, [r1, #8]
    MODIFY_REG(RCC->CFGR, RCC_CFGR_HPRE, RCC_ClkInitStruct->AHBCLKDivider);
 8001b2a:	4a4c      	ldr	r2, [pc, #304]	@ (8001c5c <HAL_RCC_ClockConfig+0x164>)
 8001b2c:	6893      	ldr	r3, [r2, #8]
 8001b2e:	494d      	ldr	r1, [pc, #308]	@ (8001c64 <HAL_RCC_ClockConfig+0x16c>)
 8001b30:	400b      	ands	r3, r1
 8001b32:	68e1      	ldr	r1, [r4, #12]
 8001b34:	430b      	orrs	r3, r1
 8001b36:	6093      	str	r3, [r2, #8]
  if (((RCC_ClkInitStruct->ClockType) & RCC_CLOCKTYPE_SYSCLK) == RCC_CLOCKTYPE_SYSCLK)
 8001b38:	6823      	ldr	r3, [r4, #0]
 8001b3a:	07db      	lsls	r3, r3, #31
 8001b3c:	d54c      	bpl.n	8001bd8 <HAL_RCC_ClockConfig+0xe0>
    if (RCC_ClkInitStruct->SYSCLKSource == RCC_SYSCLKSOURCE_HSE)
 8001b3e:	6863      	ldr	r3, [r4, #4]
 8001b40:	2b01      	cmp	r3, #1
 8001b42:	d01e      	beq.n	8001b82 <HAL_RCC_ClockConfig+0x8a>
    else if (RCC_ClkInitStruct->SYSCLKSource == RCC_SYSCLKSOURCE_HSI)
 8001b44:	2b00      	cmp	r3, #0
 8001b46:	d139      	bne.n	8001bbc <HAL_RCC_ClockConfig+0xc4>
      if (READ_BIT(RCC->CR, RCC_CR_HSIRDY) == 0U)
 8001b48:	4a44      	ldr	r2, [pc, #272]	@ (8001c5c <HAL_RCC_ClockConfig+0x164>)
 8001b4a:	6812      	ldr	r2, [r2, #0]
 8001b4c:	0552      	lsls	r2, r2, #21
 8001b4e:	d41c      	bmi.n	8001b8a <HAL_RCC_ClockConfig+0x92>
        return HAL_ERROR;
 8001b50:	2001      	movs	r0, #1
 8001b52:	e064      	b.n	8001c1e <HAL_RCC_ClockConfig+0x126>
    __HAL_FLASH_SET_LATENCY(FLatency);
 8001b54:	4a40      	ldr	r2, [pc, #256]	@ (8001c58 <HAL_RCC_ClockConfig+0x160>)
 8001b56:	6813      	ldr	r3, [r2, #0]
 8001b58:	2107      	movs	r1, #7
 8001b5a:	438b      	bics	r3, r1
 8001b5c:	432b      	orrs	r3, r5
 8001b5e:	6013      	str	r3, [r2, #0]
    tickstart = HAL_GetTick();
 8001b60:	f7fe ff36 	bl	80009d0 <HAL_GetTick>
 8001b64:	0006      	movs	r6, r0
    while ((FLASH->ACR & FLASH_ACR_LATENCY) != FLatency)
 8001b66:	4b3c      	ldr	r3, [pc, #240]	@ (8001c58 <HAL_RCC_ClockConfig+0x160>)
 8001b68:	681a      	ldr	r2, [r3, #0]
 8001b6a:	2307      	movs	r3, #7
 8001b6c:	4013      	ands	r3, r2
 8001b6e:	42ab      	cmp	r3, r5
 8001b70:	d0ce      	beq.n	8001b10 <HAL_RCC_ClockConfig+0x18>
      if ((HAL_GetTick() - tickstart) > RCC_CLOCKSWITCH_TIMEOUT_VALUE)
 8001b72:	f7fe ff2d 	bl	80009d0 <HAL_GetTick>
 8001b76:	1b80      	subs	r0, r0, r6
 8001b78:	4a3b      	ldr	r2, [pc, #236]	@ (8001c68 <HAL_RCC_ClockConfig+0x170>)
 8001b7a:	4290      	cmp	r0, r2
 8001b7c:	d9f3      	bls.n	8001b66 <HAL_RCC_ClockConfig+0x6e>
        return HAL_TIMEOUT;
 8001b7e:	2003      	movs	r0, #3
 8001b80:	e04d      	b.n	8001c1e <HAL_RCC_ClockConfig+0x126>
      if (READ_BIT(RCC->CR, RCC_CR_HSERDY) == 0U)
 8001b82:	4a36      	ldr	r2, [pc, #216]	@ (8001c5c <HAL_RCC_ClockConfig+0x164>)
 8001b84:	6812      	ldr	r2, [r2, #0]
 8001b86:	0392      	lsls	r2, r2, #14
 8001b88:	d563      	bpl.n	8001c52 <HAL_RCC_ClockConfig+0x15a>
    MODIFY_REG(RCC->CFGR, RCC_CFGR_SW, RCC_ClkInitStruct->SYSCLKSource);
 8001b8a:	4934      	ldr	r1, [pc, #208]	@ (8001c5c <HAL_RCC_ClockConfig+0x164>)
 8001b8c:	688a      	ldr	r2, [r1, #8]
 8001b8e:	2007      	movs	r0, #7
 8001b90:	4382      	bics	r2, r0
 8001b92:	4313      	orrs	r3, r2
 8001b94:	608b      	str	r3, [r1, #8]
    tickstart = HAL_GetTick();
 8001b96:	f7fe ff1b 	bl	80009d0 <HAL_GetTick>
 8001b9a:	0006      	movs	r6, r0
    while (__HAL_RCC_GET_SYSCLK_SOURCE() != (RCC_ClkInitStruct->SYSCLKSource << RCC_CFGR_SWS_Pos))
 8001b9c:	4b2f      	ldr	r3, [pc, #188]	@ (8001c5c <HAL_RCC_ClockConfig+0x164>)
 8001b9e:	689b      	ldr	r3, [r3, #8]
 8001ba0:	2238      	movs	r2, #56	@ 0x38
 8001ba2:	401a      	ands	r2, r3
 8001ba4:	6863      	ldr	r3, [r4, #4]
 8001ba6:	00db      	lsls	r3, r3, #3
 8001ba8:	429a      	cmp	r2, r3
 8001baa:	d015      	beq.n	8001bd8 <HAL_RCC_ClockConfig+0xe0>
      if ((HAL_GetTick() - tickstart) > RCC_CLOCKSWITCH_TIMEOUT_VALUE)
 8001bac:	f7fe ff10 	bl	80009d0 <HAL_GetTick>
 8001bb0:	1b80      	subs	r0, r0, r6
 8001bb2:	4b2d      	ldr	r3, [pc, #180]	@ (8001c68 <HAL_RCC_ClockConfig+0x170>)
 8001bb4:	4298      	cmp	r0, r3
 8001bb6:	d9f1      	bls.n	8001b9c <HAL_RCC_ClockConfig+0xa4>
        return HAL_TIMEOUT;
 8001bb8:	2003      	movs	r0, #3
 8001bba:	e030      	b.n	8001c1e <HAL_RCC_ClockConfig+0x126>
    else if (RCC_ClkInitStruct->SYSCLKSource == RCC_SYSCLKSOURCE_LSI)
 8001bbc:	2b03      	cmp	r3, #3
 8001bbe:	d005      	beq.n	8001bcc <HAL_RCC_ClockConfig+0xd4>
      if (READ_BIT(RCC->CSR1, RCC_CSR1_LSERDY) == 0U)
 8001bc0:	4a26      	ldr	r2, [pc, #152]	@ (8001c5c <HAL_RCC_ClockConfig+0x164>)
 8001bc2:	6dd2      	ldr	r2, [r2, #92]	@ 0x5c
 8001bc4:	0792      	lsls	r2, r2, #30
 8001bc6:	d4e0      	bmi.n	8001b8a <HAL_RCC_ClockConfig+0x92>
        return HAL_ERROR;
 8001bc8:	2001      	movs	r0, #1
 8001bca:	e028      	b.n	8001c1e <HAL_RCC_ClockConfig+0x126>
      if (READ_BIT(RCC->CSR2, RCC_CSR2_LSIRDY) == 0U)
 8001bcc:	4a23      	ldr	r2, [pc, #140]	@ (8001c5c <HAL_RCC_ClockConfig+0x164>)
 8001bce:	6e12      	ldr	r2, [r2, #96]	@ 0x60
 8001bd0:	0792      	lsls	r2, r2, #30
 8001bd2:	d4da      	bmi.n	8001b8a <HAL_RCC_ClockConfig+0x92>
        return HAL_ERROR;
 8001bd4:	2001      	movs	r0, #1
 8001bd6:	e022      	b.n	8001c1e <HAL_RCC_ClockConfig+0x126>
  if (FLatency < __HAL_FLASH_GET_LATENCY())
 8001bd8:	4b1f      	ldr	r3, [pc, #124]	@ (8001c58 <HAL_RCC_ClockConfig+0x160>)
 8001bda:	681a      	ldr	r2, [r3, #0]
 8001bdc:	2307      	movs	r3, #7
 8001bde:	4013      	ands	r3, r2
 8001be0:	42ab      	cmp	r3, r5
 8001be2:	d81d      	bhi.n	8001c20 <HAL_RCC_ClockConfig+0x128>
  if (((RCC_ClkInitStruct->ClockType) & RCC_CLOCKTYPE_PCLK1) == RCC_CLOCKTYPE_PCLK1)
 8001be4:	6823      	ldr	r3, [r4, #0]
 8001be6:	075b      	lsls	r3, r3, #29
 8001be8:	d506      	bpl.n	8001bf8 <HAL_RCC_ClockConfig+0x100>
    MODIFY_REG(RCC->CFGR, RCC_CFGR_PPRE, RCC_ClkInitStruct->APB1CLKDivider);
 8001bea:	4a1c      	ldr	r2, [pc, #112]	@ (8001c5c <HAL_RCC_ClockConfig+0x164>)
 8001bec:	6893      	ldr	r3, [r2, #8]
 8001bee:	491f      	ldr	r1, [pc, #124]	@ (8001c6c <HAL_RCC_ClockConfig+0x174>)
 8001bf0:	400b      	ands	r3, r1
 8001bf2:	6921      	ldr	r1, [r4, #16]
 8001bf4:	430b      	orrs	r3, r1
 8001bf6:	6093      	str	r3, [r2, #8]
  SystemCoreClock = (HAL_RCC_GetSysClockFreq() >> ((AHBPrescTable[(RCC->CFGR & RCC_CFGR_HPRE) \
 8001bf8:	f7ff ff50 	bl	8001a9c <HAL_RCC_GetSysClockFreq>
 8001bfc:	4b17      	ldr	r3, [pc, #92]	@ (8001c5c <HAL_RCC_ClockConfig+0x164>)
 8001bfe:	689a      	ldr	r2, [r3, #8]
                                                                  >> RCC_CFGR_HPRE_Pos]) & 0x1FU));
 8001c00:	0a12      	lsrs	r2, r2, #8
 8001c02:	230f      	movs	r3, #15
 8001c04:	4013      	ands	r3, r2
  SystemCoreClock = (HAL_RCC_GetSysClockFreq() >> ((AHBPrescTable[(RCC->CFGR & RCC_CFGR_HPRE) \
 8001c06:	4a1a      	ldr	r2, [pc, #104]	@ (8001c70 <HAL_RCC_ClockConfig+0x178>)
 8001c08:	009b      	lsls	r3, r3, #2
 8001c0a:	589a      	ldr	r2, [r3, r2]
                                                                  >> RCC_CFGR_HPRE_Pos]) & 0x1FU));
 8001c0c:	231f      	movs	r3, #31
 8001c0e:	4013      	ands	r3, r2
  SystemCoreClock = (HAL_RCC_GetSysClockFreq() >> ((AHBPrescTable[(RCC->CFGR & RCC_CFGR_HPRE) \
 8001c10:	40d8      	lsrs	r0, r3
 8001c12:	4b18      	ldr	r3, [pc, #96]	@ (8001c74 <HAL_RCC_ClockConfig+0x17c>)
 8001c14:	6018      	str	r0, [r3, #0]
  return HAL_InitTick(uwTickPrio);
 8001c16:	4b18      	ldr	r3, [pc, #96]	@ (8001c78 <HAL_RCC_ClockConfig+0x180>)
 8001c18:	6818      	ldr	r0, [r3, #0]
 8001c1a:	f7fe fe95 	bl	8000948 <HAL_InitTick>
}
 8001c1e:	bd70      	pop	{r4, r5, r6, pc}
    __HAL_FLASH_SET_LATENCY(FLatency);
 8001c20:	4a0d      	ldr	r2, [pc, #52]	@ (8001c58 <HAL_RCC_ClockConfig+0x160>)
 8001c22:	6813      	ldr	r3, [r2, #0]
 8001c24:	2107      	movs	r1, #7
 8001c26:	438b      	bics	r3, r1
 8001c28:	432b      	orrs	r3, r5
 8001c2a:	6013      	str	r3, [r2, #0]
    tickstart = HAL_GetTick();
 8001c2c:	f7fe fed0 	bl	80009d0 <HAL_GetTick>
 8001c30:	0006      	movs	r6, r0
    while ((FLASH->ACR & FLASH_ACR_LATENCY) != FLatency)
 8001c32:	4b09      	ldr	r3, [pc, #36]	@ (8001c58 <HAL_RCC_ClockConfig+0x160>)
 8001c34:	681a      	ldr	r2, [r3, #0]
 8001c36:	2307      	movs	r3, #7
 8001c38:	4013      	ands	r3, r2
 8001c3a:	42ab      	cmp	r3, r5
 8001c3c:	d0d2      	beq.n	8001be4 <HAL_RCC_ClockConfig+0xec>
      if ((HAL_GetTick() - tickstart) > RCC_CLOCKSWITCH_TIMEOUT_VALUE)
 8001c3e:	f7fe fec7 	bl	80009d0 <HAL_GetTick>
 8001c42:	1b80      	subs	r0, r0, r6
 8001c44:	4b08      	ldr	r3, [pc, #32]	@ (8001c68 <HAL_RCC_ClockConfig+0x170>)
 8001c46:	4298      	cmp	r0, r3
 8001c48:	d9f3      	bls.n	8001c32 <HAL_RCC_ClockConfig+0x13a>
        return HAL_TIMEOUT;
 8001c4a:	2003      	movs	r0, #3
 8001c4c:	e7e7      	b.n	8001c1e <HAL_RCC_ClockConfig+0x126>
    return HAL_ERROR;
 8001c4e:	2001      	movs	r0, #1
 8001c50:	e7e5      	b.n	8001c1e <HAL_RCC_ClockConfig+0x126>
        return HAL_ERROR;
 8001c52:	2001      	movs	r0, #1
 8001c54:	e7e3      	b.n	8001c1e <HAL_RCC_ClockConfig+0x126>
 8001c56:	46c0      	nop			@ (mov r8, r8)
 8001c58:	40022000 	.word	0x40022000
 8001c5c:	40021000 	.word	0x40021000
 8001c60:	ffff84ff 	.word	0xffff84ff
 8001c64:	fffff0ff 	.word	0xfffff0ff
 8001c68:	00001388 	.word	0x00001388
 8001c6c:	ffff8fff 	.word	0xffff8fff
 8001c70:	08003d1c 	.word	0x08003d1c
 8001c74:	20000008 	.word	0x20000008
 8001c78:	20000004 	.word	0x20000004

08001c7c <HAL_RCC_GetHCLKFreq>:
  *
  * @note   The SystemCoreClock CMSIS variable is used to store System Clock Frequency.
  * @retval HCLK frequency in Hz
  */
uint32_t HAL_RCC_GetHCLKFreq(void)
{
 8001c7c:	b510      	push	{r4, lr}
  SystemCoreClock = (HAL_RCC_GetSysClockFreq() >> ((AHBPrescTable[(RCC->CFGR & RCC_CFGR_HPRE) \
 8001c7e:	f7ff ff0d 	bl	8001a9c <HAL_RCC_GetSysClockFreq>
 8001c82:	4b07      	ldr	r3, [pc, #28]	@ (8001ca0 <HAL_RCC_GetHCLKFreq+0x24>)
 8001c84:	689a      	ldr	r2, [r3, #8]
                                                                  >> RCC_CFGR_HPRE_Pos]) & 0x1FU));
 8001c86:	0a12      	lsrs	r2, r2, #8
 8001c88:	230f      	movs	r3, #15
 8001c8a:	4013      	ands	r3, r2
  SystemCoreClock = (HAL_RCC_GetSysClockFreq() >> ((AHBPrescTable[(RCC->CFGR & RCC_CFGR_HPRE) \
 8001c8c:	4a05      	ldr	r2, [pc, #20]	@ (8001ca4 <HAL_RCC_GetHCLKFreq+0x28>)
 8001c8e:	009b      	lsls	r3, r3, #2
 8001c90:	589a      	ldr	r2, [r3, r2]
                                                                  >> RCC_CFGR_HPRE_Pos]) & 0x1FU));
 8001c92:	231f      	movs	r3, #31
 8001c94:	4013      	ands	r3, r2
  SystemCoreClock = (HAL_RCC_GetSysClockFreq() >> ((AHBPrescTable[(RCC->CFGR & RCC_CFGR_HPRE) \
 8001c96:	40d8      	lsrs	r0, r3
 8001c98:	4b03      	ldr	r3, [pc, #12]	@ (8001ca8 <HAL_RCC_GetHCLKFreq+0x2c>)
 8001c9a:	6018      	str	r0, [r3, #0]
  return SystemCoreClock;
}
 8001c9c:	bd10      	pop	{r4, pc}
 8001c9e:	46c0      	nop			@ (mov r8, r8)
 8001ca0:	40021000 	.word	0x40021000
 8001ca4:	08003d1c 	.word	0x08003d1c
 8001ca8:	20000008 	.word	0x20000008

08001cac <HAL_RCC_GetPCLK1Freq>:
  * @note   Each time PCLK1 changes, this function must be called to update the
  *         right PCLK1 value. Otherwise, any configuration based on this function will be incorrect.
  * @retval PCLK1 frequency in Hz
  */
uint32_t HAL_RCC_GetPCLK1Freq(void)
{
 8001cac:	b510      	push	{r4, lr}
  /* Get HCLK source and Compute PCLK1 frequency ---------------------------*/
  return (HAL_RCC_GetHCLKFreq() >> ((APBPrescTable[(RCC->CFGR & RCC_CFGR_PPRE) >> RCC_CFGR_PPRE_Pos]) & 0x1FU));
 8001cae:	f7ff ffe5 	bl	8001c7c <HAL_RCC_GetHCLKFreq>
 8001cb2:	4b06      	ldr	r3, [pc, #24]	@ (8001ccc <HAL_RCC_GetPCLK1Freq+0x20>)
 8001cb4:	689a      	ldr	r2, [r3, #8]
 8001cb6:	0b12      	lsrs	r2, r2, #12
 8001cb8:	2307      	movs	r3, #7
 8001cba:	4013      	ands	r3, r2
 8001cbc:	4a04      	ldr	r2, [pc, #16]	@ (8001cd0 <HAL_RCC_GetPCLK1Freq+0x24>)
 8001cbe:	009b      	lsls	r3, r3, #2
 8001cc0:	589a      	ldr	r2, [r3, r2]
 8001cc2:	231f      	movs	r3, #31
 8001cc4:	4013      	ands	r3, r2
 8001cc6:	40d8      	lsrs	r0, r3
}
 8001cc8:	bd10      	pop	{r4, pc}
 8001cca:	46c0      	nop			@ (mov r8, r8)
 8001ccc:	40021000 	.word	0x40021000
 8001cd0:	08003cfc 	.word	0x08003cfc

08001cd4 <HAL_RCCEx_PeriphCLKConfig>:
  * @note (*) not available on all devices
  *
  * @retval HAL status
  */
HAL_StatusTypeDef HAL_RCCEx_PeriphCLKConfig(const RCC_PeriphCLKInitTypeDef  *PeriphClkInit)
{
 8001cd4:	b570      	push	{r4, r5, r6, lr}
 8001cd6:	b082      	sub	sp, #8
 8001cd8:	0004      	movs	r4, r0

  /* Check the parameters */
  assert_param(IS_RCC_PERIPHCLOCK(PeriphClkInit->PeriphClockSelection));

  /*-------------------------- RTC clock source configuration ----------------------*/
  if ((PeriphClkInit->PeriphClockSelection & RCC_PERIPHCLK_RTC) == RCC_PERIPHCLK_RTC)
 8001cda:	6803      	ldr	r3, [r0, #0]
 8001cdc:	065b      	lsls	r3, r3, #25
 8001cde:	d550      	bpl.n	8001d82 <HAL_RCCEx_PeriphCLKConfig+0xae>

    /* Check for RTC Parameters used to output RTCCLK */
    assert_param(IS_RCC_RTCCLKSOURCE(PeriphClkInit->RTCClockSelection));

    /* Enable Power Clock */
    if (__HAL_RCC_PWR_IS_CLK_DISABLED())
 8001ce0:	4b42      	ldr	r3, [pc, #264]	@ (8001dec <HAL_RCCEx_PeriphCLKConfig+0x118>)
 8001ce2:	6bdb      	ldr	r3, [r3, #60]	@ 0x3c
 8001ce4:	00db      	lsls	r3, r3, #3
 8001ce6:	d435      	bmi.n	8001d54 <HAL_RCCEx_PeriphCLKConfig+0x80>
    {
      __HAL_RCC_PWR_CLK_ENABLE();
 8001ce8:	4b40      	ldr	r3, [pc, #256]	@ (8001dec <HAL_RCCEx_PeriphCLKConfig+0x118>)
 8001cea:	6bda      	ldr	r2, [r3, #60]	@ 0x3c
 8001cec:	2180      	movs	r1, #128	@ 0x80
 8001cee:	0549      	lsls	r1, r1, #21
 8001cf0:	430a      	orrs	r2, r1
 8001cf2:	63da      	str	r2, [r3, #60]	@ 0x3c
 8001cf4:	6bdb      	ldr	r3, [r3, #60]	@ 0x3c
 8001cf6:	400b      	ands	r3, r1
 8001cf8:	9301      	str	r3, [sp, #4]
 8001cfa:	9b01      	ldr	r3, [sp, #4]
      pwrclkchanged = SET;
 8001cfc:	2501      	movs	r5, #1
    }


    /* Reset the RTC domain only if the RTC Clock source selection is modified from default */
    tmpregister = READ_BIT(RCC->CSR1, RCC_CSR1_RTCSEL);
 8001cfe:	4b3b      	ldr	r3, [pc, #236]	@ (8001dec <HAL_RCCEx_PeriphCLKConfig+0x118>)
 8001d00:	6dd9      	ldr	r1, [r3, #92]	@ 0x5c
 8001d02:	22c0      	movs	r2, #192	@ 0xc0
 8001d04:	0092      	lsls	r2, r2, #2
 8001d06:	000b      	movs	r3, r1
 8001d08:	4013      	ands	r3, r2

    /* Reset the RTC domain only if the RTC Clock source selection is modified */
    if ((tmpregister != RCC_RTCCLKSOURCE_NONE) && (tmpregister != PeriphClkInit->RTCClockSelection))
 8001d0a:	4211      	tst	r1, r2
 8001d0c:	d035      	beq.n	8001d7a <HAL_RCCEx_PeriphCLKConfig+0xa6>
 8001d0e:	69a2      	ldr	r2, [r4, #24]
 8001d10:	429a      	cmp	r2, r3
 8001d12:	d00d      	beq.n	8001d30 <HAL_RCCEx_PeriphCLKConfig+0x5c>
    {
      /* Store the content of CSR1 register before the reset of RTC Domain */
      tmpregister = READ_BIT(RCC->CSR1, ~(RCC_CSR1_RTCSEL));
 8001d14:	4a35      	ldr	r2, [pc, #212]	@ (8001dec <HAL_RCCEx_PeriphCLKConfig+0x118>)
 8001d16:	6dd3      	ldr	r3, [r2, #92]	@ 0x5c
 8001d18:	4935      	ldr	r1, [pc, #212]	@ (8001df0 <HAL_RCCEx_PeriphCLKConfig+0x11c>)
 8001d1a:	400b      	ands	r3, r1
      /* RTC Clock selection can be changed only if the RTC Domain is reset */
      __HAL_RCC_BACKUPRESET_FORCE();
 8001d1c:	6dd0      	ldr	r0, [r2, #92]	@ 0x5c
 8001d1e:	2180      	movs	r1, #128	@ 0x80
 8001d20:	0249      	lsls	r1, r1, #9
 8001d22:	4301      	orrs	r1, r0
 8001d24:	65d1      	str	r1, [r2, #92]	@ 0x5c
      __HAL_RCC_BACKUPRESET_RELEASE();
 8001d26:	6dd1      	ldr	r1, [r2, #92]	@ 0x5c
 8001d28:	4832      	ldr	r0, [pc, #200]	@ (8001df4 <HAL_RCCEx_PeriphCLKConfig+0x120>)
 8001d2a:	4001      	ands	r1, r0
 8001d2c:	65d1      	str	r1, [r2, #92]	@ 0x5c
      /* Restore the Content of CSR1 register */
      RCC->CSR1 = tmpregister;
 8001d2e:	65d3      	str	r3, [r2, #92]	@ 0x5c
    }

    /* Wait for LSE reactivation if LSE was enable prior to RTC Domain reset */
    if (HAL_IS_BIT_SET(tmpregister, RCC_CSR1_LSEON))
 8001d30:	07db      	lsls	r3, r3, #31
 8001d32:	d411      	bmi.n	8001d58 <HAL_RCCEx_PeriphCLKConfig+0x84>
    }

    if (ret == HAL_OK)
    {
      /* Apply new RTC clock source selection */
      __HAL_RCC_RTC_CONFIG(PeriphClkInit->RTCClockSelection);
 8001d34:	4a2d      	ldr	r2, [pc, #180]	@ (8001dec <HAL_RCCEx_PeriphCLKConfig+0x118>)
 8001d36:	6dd3      	ldr	r3, [r2, #92]	@ 0x5c
 8001d38:	492d      	ldr	r1, [pc, #180]	@ (8001df0 <HAL_RCCEx_PeriphCLKConfig+0x11c>)
 8001d3a:	400b      	ands	r3, r1
 8001d3c:	69a1      	ldr	r1, [r4, #24]
 8001d3e:	430b      	orrs	r3, r1
 8001d40:	65d3      	str	r3, [r2, #92]	@ 0x5c
  HAL_StatusTypeDef status = HAL_OK;   /* Final status */
 8001d42:	2000      	movs	r0, #0
      /* set overall return value */
      status = ret;
    }

    /* Restore clock configuration if changed */
    if (pwrclkchanged == SET)
 8001d44:	2d01      	cmp	r5, #1
 8001d46:	d11d      	bne.n	8001d84 <HAL_RCCEx_PeriphCLKConfig+0xb0>
    {
      __HAL_RCC_PWR_CLK_DISABLE();
 8001d48:	4a28      	ldr	r2, [pc, #160]	@ (8001dec <HAL_RCCEx_PeriphCLKConfig+0x118>)
 8001d4a:	6bd3      	ldr	r3, [r2, #60]	@ 0x3c
 8001d4c:	492a      	ldr	r1, [pc, #168]	@ (8001df8 <HAL_RCCEx_PeriphCLKConfig+0x124>)
 8001d4e:	400b      	ands	r3, r1
 8001d50:	63d3      	str	r3, [r2, #60]	@ 0x3c
 8001d52:	e017      	b.n	8001d84 <HAL_RCCEx_PeriphCLKConfig+0xb0>
    FlagStatus       pwrclkchanged = RESET;
 8001d54:	2500      	movs	r5, #0
 8001d56:	e7d2      	b.n	8001cfe <HAL_RCCEx_PeriphCLKConfig+0x2a>
      tickstart = HAL_GetTick();
 8001d58:	f7fe fe3a 	bl	80009d0 <HAL_GetTick>
 8001d5c:	0006      	movs	r6, r0
      while (READ_BIT(RCC->CSR1, RCC_CSR1_LSERDY) == 0U)
 8001d5e:	4b23      	ldr	r3, [pc, #140]	@ (8001dec <HAL_RCCEx_PeriphCLKConfig+0x118>)
 8001d60:	6ddb      	ldr	r3, [r3, #92]	@ 0x5c
 8001d62:	079b      	lsls	r3, r3, #30
 8001d64:	d407      	bmi.n	8001d76 <HAL_RCCEx_PeriphCLKConfig+0xa2>
        if ((HAL_GetTick() - tickstart) > RCC_LSE_TIMEOUT_VALUE)
 8001d66:	f7fe fe33 	bl	80009d0 <HAL_GetTick>
 8001d6a:	1b80      	subs	r0, r0, r6
 8001d6c:	4b23      	ldr	r3, [pc, #140]	@ (8001dfc <HAL_RCCEx_PeriphCLKConfig+0x128>)
 8001d6e:	4298      	cmp	r0, r3
 8001d70:	d9f5      	bls.n	8001d5e <HAL_RCCEx_PeriphCLKConfig+0x8a>
          ret = HAL_TIMEOUT;
 8001d72:	2003      	movs	r0, #3
 8001d74:	e002      	b.n	8001d7c <HAL_RCCEx_PeriphCLKConfig+0xa8>
  HAL_StatusTypeDef ret    = HAL_OK;   /* Intermediate status */
 8001d76:	2000      	movs	r0, #0
 8001d78:	e000      	b.n	8001d7c <HAL_RCCEx_PeriphCLKConfig+0xa8>
 8001d7a:	2000      	movs	r0, #0
    if (ret == HAL_OK)
 8001d7c:	2800      	cmp	r0, #0
 8001d7e:	d1e1      	bne.n	8001d44 <HAL_RCCEx_PeriphCLKConfig+0x70>
 8001d80:	e7d8      	b.n	8001d34 <HAL_RCCEx_PeriphCLKConfig+0x60>
  HAL_StatusTypeDef status = HAL_OK;   /* Final status */
 8001d82:	2000      	movs	r0, #0
    }
  }

  /*-------------------------- USART1 clock source configuration -------------------*/
  if (((PeriphClkInit->PeriphClockSelection) & RCC_PERIPHCLK_USART1) == RCC_PERIPHCLK_USART1)
 8001d84:	6823      	ldr	r3, [r4, #0]
 8001d86:	07db      	lsls	r3, r3, #31
 8001d88:	d506      	bpl.n	8001d98 <HAL_RCCEx_PeriphCLKConfig+0xc4>
  {
    /* Check the parameters */
    assert_param(IS_RCC_USART1CLKSOURCE(PeriphClkInit->Usart1ClockSelection));

    /* Configure the USART1 clock source */
    __HAL_RCC_USART1_CONFIG(PeriphClkInit->Usart1ClockSelection);
 8001d8a:	4a18      	ldr	r2, [pc, #96]	@ (8001dec <HAL_RCCEx_PeriphCLKConfig+0x118>)
 8001d8c:	6d53      	ldr	r3, [r2, #84]	@ 0x54
 8001d8e:	2103      	movs	r1, #3
 8001d90:	438b      	bics	r3, r1
 8001d92:	68a1      	ldr	r1, [r4, #8]
 8001d94:	430b      	orrs	r3, r1
 8001d96:	6553      	str	r3, [r2, #84]	@ 0x54
  }

  /*-------------------------- I2C1 clock source configuration ---------------------*/
  if (((PeriphClkInit->PeriphClockSelection) & RCC_PERIPHCLK_I2C1) == RCC_PERIPHCLK_I2C1)
 8001d98:	6823      	ldr	r3, [r4, #0]
 8001d9a:	079b      	lsls	r3, r3, #30
 8001d9c:	d506      	bpl.n	8001dac <HAL_RCCEx_PeriphCLKConfig+0xd8>
  {
    /* Check the parameters */
    assert_param(IS_RCC_I2C1CLKSOURCE(PeriphClkInit->I2c1ClockSelection));

    /* Configure the I2C1 clock source */
    __HAL_RCC_I2C1_CONFIG(PeriphClkInit->I2c1ClockSelection);
 8001d9e:	4a13      	ldr	r2, [pc, #76]	@ (8001dec <HAL_RCCEx_PeriphCLKConfig+0x118>)
 8001da0:	6d53      	ldr	r3, [r2, #84]	@ 0x54
 8001da2:	4917      	ldr	r1, [pc, #92]	@ (8001e00 <HAL_RCCEx_PeriphCLKConfig+0x12c>)
 8001da4:	400b      	ands	r3, r1
 8001da6:	68e1      	ldr	r1, [r4, #12]
 8001da8:	430b      	orrs	r3, r1
 8001daa:	6553      	str	r3, [r2, #84]	@ 0x54
  }

  /*-------------------------- ADC clock source configuration ----------------------*/
  if (((PeriphClkInit->PeriphClockSelection) & RCC_PERIPHCLK_ADC) == RCC_PERIPHCLK_ADC)
 8001dac:	6823      	ldr	r3, [r4, #0]
 8001dae:	069b      	lsls	r3, r3, #26
 8001db0:	d506      	bpl.n	8001dc0 <HAL_RCCEx_PeriphCLKConfig+0xec>
  {
    /* Check the parameters */
    assert_param(IS_RCC_ADCCLKSOURCE(PeriphClkInit->AdcClockSelection));

    /* Configure the ADC interface clock source */
    __HAL_RCC_ADC_CONFIG(PeriphClkInit->AdcClockSelection);
 8001db2:	4a0e      	ldr	r2, [pc, #56]	@ (8001dec <HAL_RCCEx_PeriphCLKConfig+0x118>)
 8001db4:	6d53      	ldr	r3, [r2, #84]	@ 0x54
 8001db6:	009b      	lsls	r3, r3, #2
 8001db8:	089b      	lsrs	r3, r3, #2
 8001dba:	6961      	ldr	r1, [r4, #20]
 8001dbc:	430b      	orrs	r3, r1
 8001dbe:	6553      	str	r3, [r2, #84]	@ 0x54
    __HAL_RCC_FDCAN1_CONFIG(PeriphClkInit->Fdcan1ClockSelection);

  }
#endif /* FDCAN1 */
  /*-------------------------- I2S1 clock source configuration ---------------------*/
  if (((PeriphClkInit->PeriphClockSelection) & RCC_PERIPHCLK_I2S1) == RCC_PERIPHCLK_I2S1)
 8001dc0:	6823      	ldr	r3, [r4, #0]
 8001dc2:	075b      	lsls	r3, r3, #29
 8001dc4:	d506      	bpl.n	8001dd4 <HAL_RCCEx_PeriphCLKConfig+0x100>
  {
    /* Check the parameters */
    assert_param(IS_RCC_I2S1CLKSOURCE(PeriphClkInit->I2s1ClockSelection));

    /* Configure the I2S1 clock source */
    __HAL_RCC_I2S1_CONFIG(PeriphClkInit->I2s1ClockSelection);
 8001dc6:	4a09      	ldr	r2, [pc, #36]	@ (8001dec <HAL_RCCEx_PeriphCLKConfig+0x118>)
 8001dc8:	6d53      	ldr	r3, [r2, #84]	@ 0x54
 8001dca:	490e      	ldr	r1, [pc, #56]	@ (8001e04 <HAL_RCCEx_PeriphCLKConfig+0x130>)
 8001dcc:	400b      	ands	r3, r1
 8001dce:	6921      	ldr	r1, [r4, #16]
 8001dd0:	430b      	orrs	r3, r1
 8001dd2:	6553      	str	r3, [r2, #84]	@ 0x54
  }
  /*------------------------------------ HSI Kernel clock source configuration --------------------------------------*/
  if (((PeriphClkInit->PeriphClockSelection) & RCC_PERIPHCLK_HSIKER) == RCC_PERIPHCLK_HSIKER)
 8001dd4:	6823      	ldr	r3, [r4, #0]
 8001dd6:	061b      	lsls	r3, r3, #24
 8001dd8:	d506      	bpl.n	8001de8 <HAL_RCCEx_PeriphCLKConfig+0x114>
  {
    /* Check the parameters */
    assert_param(IS_RCC_HSIKERDIV(PeriphClkInit->HSIKerClockDivider));

    /* Configure the HSI Kernel clock source Divider */
    __HAL_RCC_HSIKER_CONFIG(PeriphClkInit->HSIKerClockDivider);
 8001dda:	4a04      	ldr	r2, [pc, #16]	@ (8001dec <HAL_RCCEx_PeriphCLKConfig+0x118>)
 8001ddc:	6813      	ldr	r3, [r2, #0]
 8001dde:	21e0      	movs	r1, #224	@ 0xe0
 8001de0:	438b      	bics	r3, r1
 8001de2:	6861      	ldr	r1, [r4, #4]
 8001de4:	430b      	orrs	r3, r1
 8001de6:	6013      	str	r3, [r2, #0]
  }
  return status;
}
 8001de8:	b002      	add	sp, #8
 8001dea:	bd70      	pop	{r4, r5, r6, pc}
 8001dec:	40021000 	.word	0x40021000
 8001df0:	fffffcff 	.word	0xfffffcff
 8001df4:	fffeffff 	.word	0xfffeffff
 8001df8:	efffffff 	.word	0xefffffff
 8001dfc:	00001388 	.word	0x00001388
 8001e00:	ffffcfff 	.word	0xffffcfff
 8001e04:	ffff3fff 	.word	0xffff3fff

08001e08 <UART_EndRxTransfer>:
  * @brief  End ongoing Rx transfer on UART peripheral (following error detection or Reception completion).
  * @param  huart UART handle.
  * @retval None
  */
static void UART_EndRxTransfer(UART_HandleTypeDef *huart)
{
 8001e08:	b530      	push	{r4, r5, lr}
 */
__STATIC_FORCEINLINE uint32_t __get_PRIMASK(void)
{
  uint32_t result;

  __ASM volatile ("MRS %0, primask" : "=r" (result) );
 8001e0a:	f3ef 8410 	mrs	r4, PRIMASK
  \details Assigns the given value to the Priority Mask Register.
  \param [in]    priMask  Priority Mask
 */
__STATIC_FORCEINLINE void __set_PRIMASK(uint32_t priMask)
{
  __ASM volatile ("MSR primask, %0" : : "r" (priMask) : "memory");
 8001e0e:	2201      	movs	r2, #1
 8001e10:	f382 8810 	msr	PRIMASK, r2
  /* Disable RXNE, PE and ERR (Frame error, noise error, overrun error) interrupts */
  ATOMIC_CLEAR_BIT(huart->Instance->CR1, (USART_CR1_RXNEIE_RXFNEIE | USART_CR1_PEIE));
 8001e14:	6801      	ldr	r1, [r0, #0]
 8001e16:	680b      	ldr	r3, [r1, #0]
 8001e18:	4d12      	ldr	r5, [pc, #72]	@ (8001e64 <UART_EndRxTransfer+0x5c>)
 8001e1a:	402b      	ands	r3, r5
 8001e1c:	600b      	str	r3, [r1, #0]
 8001e1e:	f384 8810 	msr	PRIMASK, r4
  __ASM volatile ("MRS %0, primask" : "=r" (result) );
 8001e22:	f3ef 8110 	mrs	r1, PRIMASK
  __ASM volatile ("MSR primask, %0" : : "r" (priMask) : "memory");
 8001e26:	f382 8810 	msr	PRIMASK, r2
  ATOMIC_CLEAR_BIT(huart->Instance->CR3, (USART_CR3_EIE | USART_CR3_RXFTIE));
 8001e2a:	6802      	ldr	r2, [r0, #0]
 8001e2c:	6893      	ldr	r3, [r2, #8]
 8001e2e:	4c0e      	ldr	r4, [pc, #56]	@ (8001e68 <UART_EndRxTransfer+0x60>)
 8001e30:	4023      	ands	r3, r4
 8001e32:	6093      	str	r3, [r2, #8]
 8001e34:	f381 8810 	msr	PRIMASK, r1

  /* In case of reception waiting for IDLE event, disable also the IDLE IE interrupt source */
  if (huart->ReceptionType == HAL_UART_RECEPTION_TOIDLE)
 8001e38:	6ec3      	ldr	r3, [r0, #108]	@ 0x6c
 8001e3a:	2b01      	cmp	r3, #1
 8001e3c:	d006      	beq.n	8001e4c <UART_EndRxTransfer+0x44>
  {
    ATOMIC_CLEAR_BIT(huart->Instance->CR1, USART_CR1_IDLEIE);
  }

  /* At end of Rx process, restore huart->RxState to Ready */
  huart->RxState = HAL_UART_STATE_READY;
 8001e3e:	238c      	movs	r3, #140	@ 0x8c
 8001e40:	2220      	movs	r2, #32
 8001e42:	50c2      	str	r2, [r0, r3]
  huart->ReceptionType = HAL_UART_RECEPTION_STANDARD;
 8001e44:	2300      	movs	r3, #0
 8001e46:	66c3      	str	r3, [r0, #108]	@ 0x6c

  /* Reset RxIsr function pointer */
  huart->RxISR = NULL;
 8001e48:	6743      	str	r3, [r0, #116]	@ 0x74
}
 8001e4a:	bd30      	pop	{r4, r5, pc}
  __ASM volatile ("MRS %0, primask" : "=r" (result) );
 8001e4c:	f3ef 8110 	mrs	r1, PRIMASK
  __ASM volatile ("MSR primask, %0" : : "r" (priMask) : "memory");
 8001e50:	f383 8810 	msr	PRIMASK, r3
    ATOMIC_CLEAR_BIT(huart->Instance->CR1, USART_CR1_IDLEIE);
 8001e54:	6802      	ldr	r2, [r0, #0]
 8001e56:	6813      	ldr	r3, [r2, #0]
 8001e58:	2410      	movs	r4, #16
 8001e5a:	43a3      	bics	r3, r4
 8001e5c:	6013      	str	r3, [r2, #0]
 8001e5e:	f381 8810 	msr	PRIMASK, r1
}
 8001e62:	e7ec      	b.n	8001e3e <UART_EndRxTransfer+0x36>
 8001e64:	fffffedf 	.word	0xfffffedf
 8001e68:	effffffe 	.word	0xeffffffe

08001e6c <UART_SetConfig>:
{
 8001e6c:	b510      	push	{r4, lr}
 8001e6e:	0004      	movs	r4, r0
  tmpreg = (uint32_t)huart->Init.WordLength | huart->Init.Parity | huart->Init.Mode | huart->Init.OverSampling ;
 8001e70:	6883      	ldr	r3, [r0, #8]
 8001e72:	6902      	ldr	r2, [r0, #16]
 8001e74:	4313      	orrs	r3, r2
 8001e76:	6942      	ldr	r2, [r0, #20]
 8001e78:	4313      	orrs	r3, r2
 8001e7a:	69c2      	ldr	r2, [r0, #28]
 8001e7c:	4313      	orrs	r3, r2
  MODIFY_REG(huart->Instance->CR1, USART_CR1_FIELDS, tmpreg);
 8001e7e:	6801      	ldr	r1, [r0, #0]
 8001e80:	680a      	ldr	r2, [r1, #0]
 8001e82:	4862      	ldr	r0, [pc, #392]	@ (800200c <UART_SetConfig+0x1a0>)
 8001e84:	4002      	ands	r2, r0
 8001e86:	4313      	orrs	r3, r2
 8001e88:	600b      	str	r3, [r1, #0]
  MODIFY_REG(huart->Instance->CR2, USART_CR2_STOP, huart->Init.StopBits);
 8001e8a:	6822      	ldr	r2, [r4, #0]
 8001e8c:	6853      	ldr	r3, [r2, #4]
 8001e8e:	4960      	ldr	r1, [pc, #384]	@ (8002010 <UART_SetConfig+0x1a4>)
 8001e90:	400b      	ands	r3, r1
 8001e92:	68e1      	ldr	r1, [r4, #12]
 8001e94:	430b      	orrs	r3, r1
 8001e96:	6053      	str	r3, [r2, #4]
  tmpreg = (uint32_t)huart->Init.HwFlowCtl;
 8001e98:	69a3      	ldr	r3, [r4, #24]
  tmpreg |= huart->Init.OneBitSampling;
 8001e9a:	6a22      	ldr	r2, [r4, #32]
 8001e9c:	431a      	orrs	r2, r3
  MODIFY_REG(huart->Instance->CR3, USART_CR3_FIELDS, tmpreg);
 8001e9e:	6821      	ldr	r1, [r4, #0]
 8001ea0:	688b      	ldr	r3, [r1, #8]
 8001ea2:	485c      	ldr	r0, [pc, #368]	@ (8002014 <UART_SetConfig+0x1a8>)
 8001ea4:	4003      	ands	r3, r0
 8001ea6:	4313      	orrs	r3, r2
 8001ea8:	608b      	str	r3, [r1, #8]
  MODIFY_REG(huart->Instance->PRESC, USART_PRESC_PRESCALER, huart->Init.ClockPrescaler);
 8001eaa:	6822      	ldr	r2, [r4, #0]
 8001eac:	6ad3      	ldr	r3, [r2, #44]	@ 0x2c
 8001eae:	210f      	movs	r1, #15
 8001eb0:	438b      	bics	r3, r1
 8001eb2:	6a61      	ldr	r1, [r4, #36]	@ 0x24
 8001eb4:	430b      	orrs	r3, r1
 8001eb6:	62d3      	str	r3, [r2, #44]	@ 0x2c
  UART_GETCLOCKSOURCE(huart, clocksource);
 8001eb8:	6823      	ldr	r3, [r4, #0]
 8001eba:	4a57      	ldr	r2, [pc, #348]	@ (8002018 <UART_SetConfig+0x1ac>)
 8001ebc:	4293      	cmp	r3, r2
 8001ebe:	d030      	beq.n	8001f22 <UART_SetConfig+0xb6>
 8001ec0:	4a56      	ldr	r2, [pc, #344]	@ (800201c <UART_SetConfig+0x1b0>)
 8001ec2:	4293      	cmp	r3, r2
 8001ec4:	d03e      	beq.n	8001f44 <UART_SetConfig+0xd8>
 8001ec6:	2310      	movs	r3, #16
  if (huart->Init.OverSampling == UART_OVERSAMPLING_8)
 8001ec8:	69e0      	ldr	r0, [r4, #28]
 8001eca:	2280      	movs	r2, #128	@ 0x80
 8001ecc:	0212      	lsls	r2, r2, #8
 8001ece:	4290      	cmp	r0, r2
 8001ed0:	d042      	beq.n	8001f58 <UART_SetConfig+0xec>
    switch (clocksource)
 8001ed2:	2b04      	cmp	r3, #4
 8001ed4:	d100      	bne.n	8001ed8 <UART_SetConfig+0x6c>
 8001ed6:	e089      	b.n	8001fec <UART_SetConfig+0x180>
 8001ed8:	d87b      	bhi.n	8001fd2 <UART_SetConfig+0x166>
 8001eda:	2b00      	cmp	r3, #0
 8001edc:	d100      	bne.n	8001ee0 <UART_SetConfig+0x74>
 8001ede:	e07f      	b.n	8001fe0 <UART_SetConfig+0x174>
 8001ee0:	2b02      	cmp	r3, #2
 8001ee2:	d174      	bne.n	8001fce <UART_SetConfig+0x162>
        pclk = (HSI_VALUE / ((__HAL_RCC_GET_HSIKER_DIVIDER() >> RCC_CR_HSIKERDIV_Pos) + 1U));
 8001ee4:	4b4e      	ldr	r3, [pc, #312]	@ (8002020 <UART_SetConfig+0x1b4>)
 8001ee6:	681b      	ldr	r3, [r3, #0]
 8001ee8:	095b      	lsrs	r3, r3, #5
 8001eea:	2107      	movs	r1, #7
 8001eec:	4019      	ands	r1, r3
 8001eee:	3101      	adds	r1, #1
 8001ef0:	484c      	ldr	r0, [pc, #304]	@ (8002024 <UART_SetConfig+0x1b8>)
 8001ef2:	f7fe f8f7 	bl	80000e4 <__udivsi3>
      usartdiv = (uint32_t)(UART_DIV_SAMPLING16(pclk, huart->Init.BaudRate, huart->Init.ClockPrescaler));
 8001ef6:	6a62      	ldr	r2, [r4, #36]	@ 0x24
 8001ef8:	4b4b      	ldr	r3, [pc, #300]	@ (8002028 <UART_SetConfig+0x1bc>)
 8001efa:	0052      	lsls	r2, r2, #1
 8001efc:	5ad1      	ldrh	r1, [r2, r3]
 8001efe:	f7fe f8f1 	bl	80000e4 <__udivsi3>
 8001f02:	6861      	ldr	r1, [r4, #4]
 8001f04:	084b      	lsrs	r3, r1, #1
 8001f06:	18c0      	adds	r0, r0, r3
 8001f08:	f7fe f8ec 	bl	80000e4 <__udivsi3>
      if ((usartdiv >= UART_BRR_MIN) && (usartdiv <= UART_BRR_MAX))
 8001f0c:	0002      	movs	r2, r0
 8001f0e:	3a10      	subs	r2, #16
 8001f10:	4b46      	ldr	r3, [pc, #280]	@ (800202c <UART_SetConfig+0x1c0>)
 8001f12:	429a      	cmp	r2, r3
 8001f14:	d86f      	bhi.n	8001ff6 <UART_SetConfig+0x18a>
        huart->Instance->BRR = (uint16_t)usartdiv;
 8001f16:	6823      	ldr	r3, [r4, #0]
 8001f18:	0400      	lsls	r0, r0, #16
 8001f1a:	0c00      	lsrs	r0, r0, #16
 8001f1c:	60d8      	str	r0, [r3, #12]
 8001f1e:	2000      	movs	r0, #0
 8001f20:	e06a      	b.n	8001ff8 <UART_SetConfig+0x18c>
  UART_GETCLOCKSOURCE(huart, clocksource);
 8001f22:	4b3f      	ldr	r3, [pc, #252]	@ (8002020 <UART_SetConfig+0x1b4>)
 8001f24:	6d5a      	ldr	r2, [r3, #84]	@ 0x54
 8001f26:	2303      	movs	r3, #3
 8001f28:	4013      	ands	r3, r2
 8001f2a:	2b02      	cmp	r3, #2
 8001f2c:	d00c      	beq.n	8001f48 <UART_SetConfig+0xdc>
 8001f2e:	d805      	bhi.n	8001f3c <UART_SetConfig+0xd0>
 8001f30:	2b00      	cmp	r3, #0
 8001f32:	d00b      	beq.n	8001f4c <UART_SetConfig+0xe0>
 8001f34:	2b01      	cmp	r3, #1
 8001f36:	d10b      	bne.n	8001f50 <UART_SetConfig+0xe4>
 8001f38:	3303      	adds	r3, #3
 8001f3a:	e7c5      	b.n	8001ec8 <UART_SetConfig+0x5c>
 8001f3c:	2b03      	cmp	r3, #3
 8001f3e:	d109      	bne.n	8001f54 <UART_SetConfig+0xe8>
 8001f40:	3305      	adds	r3, #5
 8001f42:	e7c1      	b.n	8001ec8 <UART_SetConfig+0x5c>
 8001f44:	2300      	movs	r3, #0
 8001f46:	e7bf      	b.n	8001ec8 <UART_SetConfig+0x5c>
 8001f48:	2302      	movs	r3, #2
 8001f4a:	e7bd      	b.n	8001ec8 <UART_SetConfig+0x5c>
 8001f4c:	2300      	movs	r3, #0
 8001f4e:	e7bb      	b.n	8001ec8 <UART_SetConfig+0x5c>
 8001f50:	2310      	movs	r3, #16
 8001f52:	e7b9      	b.n	8001ec8 <UART_SetConfig+0x5c>
 8001f54:	2310      	movs	r3, #16
 8001f56:	e7b7      	b.n	8001ec8 <UART_SetConfig+0x5c>
    switch (clocksource)
 8001f58:	2b04      	cmp	r3, #4
 8001f5a:	d035      	beq.n	8001fc8 <UART_SetConfig+0x15c>
 8001f5c:	d82a      	bhi.n	8001fb4 <UART_SetConfig+0x148>
 8001f5e:	2b00      	cmp	r3, #0
 8001f60:	d02c      	beq.n	8001fbc <UART_SetConfig+0x150>
 8001f62:	2b02      	cmp	r3, #2
 8001f64:	d124      	bne.n	8001fb0 <UART_SetConfig+0x144>
        pclk = (HSI_VALUE / ((__HAL_RCC_GET_HSIKER_DIVIDER() >> RCC_CR_HSIKERDIV_Pos) + 1U));
 8001f66:	4b2e      	ldr	r3, [pc, #184]	@ (8002020 <UART_SetConfig+0x1b4>)
 8001f68:	681b      	ldr	r3, [r3, #0]
 8001f6a:	095b      	lsrs	r3, r3, #5
 8001f6c:	2107      	movs	r1, #7
 8001f6e:	4019      	ands	r1, r3
 8001f70:	3101      	adds	r1, #1
 8001f72:	482c      	ldr	r0, [pc, #176]	@ (8002024 <UART_SetConfig+0x1b8>)
 8001f74:	f7fe f8b6 	bl	80000e4 <__udivsi3>
      usartdiv = (uint32_t)(UART_DIV_SAMPLING8(pclk, huart->Init.BaudRate, huart->Init.ClockPrescaler));
 8001f78:	6a62      	ldr	r2, [r4, #36]	@ 0x24
 8001f7a:	4b2b      	ldr	r3, [pc, #172]	@ (8002028 <UART_SetConfig+0x1bc>)
 8001f7c:	0052      	lsls	r2, r2, #1
 8001f7e:	5ad1      	ldrh	r1, [r2, r3]
 8001f80:	f7fe f8b0 	bl	80000e4 <__udivsi3>
 8001f84:	0040      	lsls	r0, r0, #1
 8001f86:	6861      	ldr	r1, [r4, #4]
 8001f88:	084b      	lsrs	r3, r1, #1
 8001f8a:	18c0      	adds	r0, r0, r3
 8001f8c:	f7fe f8aa 	bl	80000e4 <__udivsi3>
      if ((usartdiv >= UART_BRR_MIN) && (usartdiv <= UART_BRR_MAX))
 8001f90:	0002      	movs	r2, r0
 8001f92:	3a10      	subs	r2, #16
 8001f94:	4b25      	ldr	r3, [pc, #148]	@ (800202c <UART_SetConfig+0x1c0>)
 8001f96:	429a      	cmp	r2, r3
 8001f98:	d82b      	bhi.n	8001ff2 <UART_SetConfig+0x186>
        brrtemp = (uint16_t)(usartdiv & 0xFFF0U);
 8001f9a:	b282      	uxth	r2, r0
 8001f9c:	230f      	movs	r3, #15
 8001f9e:	439a      	bics	r2, r3
        brrtemp |= (uint16_t)((usartdiv & (uint16_t)0x000FU) >> 1U);
 8001fa0:	0840      	lsrs	r0, r0, #1
 8001fa2:	3b08      	subs	r3, #8
 8001fa4:	4003      	ands	r3, r0
 8001fa6:	4313      	orrs	r3, r2
        huart->Instance->BRR = brrtemp;
 8001fa8:	6822      	ldr	r2, [r4, #0]
 8001faa:	60d3      	str	r3, [r2, #12]
 8001fac:	2000      	movs	r0, #0
 8001fae:	e023      	b.n	8001ff8 <UART_SetConfig+0x18c>
    switch (clocksource)
 8001fb0:	2001      	movs	r0, #1
 8001fb2:	e021      	b.n	8001ff8 <UART_SetConfig+0x18c>
 8001fb4:	2b08      	cmp	r3, #8
 8001fb6:	d0df      	beq.n	8001f78 <UART_SetConfig+0x10c>
 8001fb8:	2001      	movs	r0, #1
 8001fba:	e01d      	b.n	8001ff8 <UART_SetConfig+0x18c>
        pclk = HAL_RCC_GetPCLK1Freq();
 8001fbc:	f7ff fe76 	bl	8001cac <HAL_RCC_GetPCLK1Freq>
    if (pclk != 0U)
 8001fc0:	2800      	cmp	r0, #0
 8001fc2:	d1d9      	bne.n	8001f78 <UART_SetConfig+0x10c>
 8001fc4:	2000      	movs	r0, #0
 8001fc6:	e017      	b.n	8001ff8 <UART_SetConfig+0x18c>
        pclk = HAL_RCC_GetSysClockFreq();
 8001fc8:	f7ff fd68 	bl	8001a9c <HAL_RCC_GetSysClockFreq>
        break;
 8001fcc:	e7f8      	b.n	8001fc0 <UART_SetConfig+0x154>
    switch (clocksource)
 8001fce:	2001      	movs	r0, #1
 8001fd0:	e012      	b.n	8001ff8 <UART_SetConfig+0x18c>
 8001fd2:	2b08      	cmp	r3, #8
 8001fd4:	d102      	bne.n	8001fdc <UART_SetConfig+0x170>
 8001fd6:	2080      	movs	r0, #128	@ 0x80
 8001fd8:	0200      	lsls	r0, r0, #8
 8001fda:	e78c      	b.n	8001ef6 <UART_SetConfig+0x8a>
 8001fdc:	2001      	movs	r0, #1
 8001fde:	e00b      	b.n	8001ff8 <UART_SetConfig+0x18c>
        pclk = HAL_RCC_GetPCLK1Freq();
 8001fe0:	f7ff fe64 	bl	8001cac <HAL_RCC_GetPCLK1Freq>
    if (pclk != 0U)
 8001fe4:	2800      	cmp	r0, #0
 8001fe6:	d186      	bne.n	8001ef6 <UART_SetConfig+0x8a>
 8001fe8:	2000      	movs	r0, #0
 8001fea:	e005      	b.n	8001ff8 <UART_SetConfig+0x18c>
        pclk = HAL_RCC_GetSysClockFreq();
 8001fec:	f7ff fd56 	bl	8001a9c <HAL_RCC_GetSysClockFreq>
        break;
 8001ff0:	e7f8      	b.n	8001fe4 <UART_SetConfig+0x178>
        ret = HAL_ERROR;
 8001ff2:	2001      	movs	r0, #1
 8001ff4:	e000      	b.n	8001ff8 <UART_SetConfig+0x18c>
        ret = HAL_ERROR;
 8001ff6:	2001      	movs	r0, #1
  huart->NbTxDataToProcess = 1;
 8001ff8:	2301      	movs	r3, #1
 8001ffa:	226a      	movs	r2, #106	@ 0x6a
 8001ffc:	52a3      	strh	r3, [r4, r2]
  huart->NbRxDataToProcess = 1;
 8001ffe:	3a02      	subs	r2, #2
 8002000:	52a3      	strh	r3, [r4, r2]
  huart->RxISR = NULL;
 8002002:	2300      	movs	r3, #0
 8002004:	6763      	str	r3, [r4, #116]	@ 0x74
  huart->TxISR = NULL;
 8002006:	67a3      	str	r3, [r4, #120]	@ 0x78
}
 8002008:	bd10      	pop	{r4, pc}
 800200a:	46c0      	nop			@ (mov r8, r8)
 800200c:	cfff69f3 	.word	0xcfff69f3
 8002010:	ffffcfff 	.word	0xffffcfff
 8002014:	11fff4ff 	.word	0x11fff4ff
 8002018:	40013800 	.word	0x40013800
 800201c:	40004400 	.word	0x40004400
 8002020:	40021000 	.word	0x40021000
 8002024:	02dc6c00 	.word	0x02dc6c00
 8002028:	08003ce4 	.word	0x08003ce4
 800202c:	0000ffef 	.word	0x0000ffef

08002030 <UART_AdvFeatureConfig>:
  if (HAL_IS_BIT_SET(huart->AdvancedInit.AdvFeatureInit, UART_ADVFEATURE_SWAP_INIT))
 8002030:	6a83      	ldr	r3, [r0, #40]	@ 0x28
 8002032:	071b      	lsls	r3, r3, #28
 8002034:	d506      	bpl.n	8002044 <UART_AdvFeatureConfig+0x14>
    MODIFY_REG(huart->Instance->CR2, USART_CR2_SWAP, huart->AdvancedInit.Swap);
 8002036:	6802      	ldr	r2, [r0, #0]
 8002038:	6853      	ldr	r3, [r2, #4]
 800203a:	492c      	ldr	r1, [pc, #176]	@ (80020ec <UART_AdvFeatureConfig+0xbc>)
 800203c:	400b      	ands	r3, r1
 800203e:	6b81      	ldr	r1, [r0, #56]	@ 0x38
 8002040:	430b      	orrs	r3, r1
 8002042:	6053      	str	r3, [r2, #4]
  if (HAL_IS_BIT_SET(huart->AdvancedInit.AdvFeatureInit, UART_ADVFEATURE_TXINVERT_INIT))
 8002044:	6a83      	ldr	r3, [r0, #40]	@ 0x28
 8002046:	07db      	lsls	r3, r3, #31
 8002048:	d506      	bpl.n	8002058 <UART_AdvFeatureConfig+0x28>
    MODIFY_REG(huart->Instance->CR2, USART_CR2_TXINV, huart->AdvancedInit.TxPinLevelInvert);
 800204a:	6802      	ldr	r2, [r0, #0]
 800204c:	6853      	ldr	r3, [r2, #4]
 800204e:	4928      	ldr	r1, [pc, #160]	@ (80020f0 <UART_AdvFeatureConfig+0xc0>)
 8002050:	400b      	ands	r3, r1
 8002052:	6ac1      	ldr	r1, [r0, #44]	@ 0x2c
 8002054:	430b      	orrs	r3, r1
 8002056:	6053      	str	r3, [r2, #4]
  if (HAL_IS_BIT_SET(huart->AdvancedInit.AdvFeatureInit, UART_ADVFEATURE_RXINVERT_INIT))
 8002058:	6a83      	ldr	r3, [r0, #40]	@ 0x28
 800205a:	079b      	lsls	r3, r3, #30
 800205c:	d506      	bpl.n	800206c <UART_AdvFeatureConfig+0x3c>
    MODIFY_REG(huart->Instance->CR2, USART_CR2_RXINV, huart->AdvancedInit.RxPinLevelInvert);
 800205e:	6802      	ldr	r2, [r0, #0]
 8002060:	6853      	ldr	r3, [r2, #4]
 8002062:	4924      	ldr	r1, [pc, #144]	@ (80020f4 <UART_AdvFeatureConfig+0xc4>)
 8002064:	400b      	ands	r3, r1
 8002066:	6b01      	ldr	r1, [r0, #48]	@ 0x30
 8002068:	430b      	orrs	r3, r1
 800206a:	6053      	str	r3, [r2, #4]
  if (HAL_IS_BIT_SET(huart->AdvancedInit.AdvFeatureInit, UART_ADVFEATURE_DATAINVERT_INIT))
 800206c:	6a83      	ldr	r3, [r0, #40]	@ 0x28
 800206e:	075b      	lsls	r3, r3, #29
 8002070:	d506      	bpl.n	8002080 <UART_AdvFeatureConfig+0x50>
    MODIFY_REG(huart->Instance->CR2, USART_CR2_DATAINV, huart->AdvancedInit.DataInvert);
 8002072:	6802      	ldr	r2, [r0, #0]
 8002074:	6853      	ldr	r3, [r2, #4]
 8002076:	4920      	ldr	r1, [pc, #128]	@ (80020f8 <UART_AdvFeatureConfig+0xc8>)
 8002078:	400b      	ands	r3, r1
 800207a:	6b41      	ldr	r1, [r0, #52]	@ 0x34
 800207c:	430b      	orrs	r3, r1
 800207e:	6053      	str	r3, [r2, #4]
  if (HAL_IS_BIT_SET(huart->AdvancedInit.AdvFeatureInit, UART_ADVFEATURE_RXOVERRUNDISABLE_INIT))
 8002080:	6a83      	ldr	r3, [r0, #40]	@ 0x28
 8002082:	06db      	lsls	r3, r3, #27
 8002084:	d506      	bpl.n	8002094 <UART_AdvFeatureConfig+0x64>
    MODIFY_REG(huart->Instance->CR3, USART_CR3_OVRDIS, huart->AdvancedInit.OverrunDisable);
 8002086:	6802      	ldr	r2, [r0, #0]
 8002088:	6893      	ldr	r3, [r2, #8]
 800208a:	491c      	ldr	r1, [pc, #112]	@ (80020fc <UART_AdvFeatureConfig+0xcc>)
 800208c:	400b      	ands	r3, r1
 800208e:	6bc1      	ldr	r1, [r0, #60]	@ 0x3c
 8002090:	430b      	orrs	r3, r1
 8002092:	6093      	str	r3, [r2, #8]
  if (HAL_IS_BIT_SET(huart->AdvancedInit.AdvFeatureInit, UART_ADVFEATURE_DMADISABLEONERROR_INIT))
 8002094:	6a83      	ldr	r3, [r0, #40]	@ 0x28
 8002096:	069b      	lsls	r3, r3, #26
 8002098:	d506      	bpl.n	80020a8 <UART_AdvFeatureConfig+0x78>
    MODIFY_REG(huart->Instance->CR3, USART_CR3_DDRE, huart->AdvancedInit.DMADisableonRxError);
 800209a:	6802      	ldr	r2, [r0, #0]
 800209c:	6893      	ldr	r3, [r2, #8]
 800209e:	4918      	ldr	r1, [pc, #96]	@ (8002100 <UART_AdvFeatureConfig+0xd0>)
 80020a0:	400b      	ands	r3, r1
 80020a2:	6c01      	ldr	r1, [r0, #64]	@ 0x40
 80020a4:	430b      	orrs	r3, r1
 80020a6:	6093      	str	r3, [r2, #8]
  if (HAL_IS_BIT_SET(huart->AdvancedInit.AdvFeatureInit, UART_ADVFEATURE_AUTOBAUDRATE_INIT))
 80020a8:	6a83      	ldr	r3, [r0, #40]	@ 0x28
 80020aa:	065b      	lsls	r3, r3, #25
 80020ac:	d50b      	bpl.n	80020c6 <UART_AdvFeatureConfig+0x96>
    MODIFY_REG(huart->Instance->CR2, USART_CR2_ABREN, huart->AdvancedInit.AutoBaudRateEnable);
 80020ae:	6802      	ldr	r2, [r0, #0]
 80020b0:	6853      	ldr	r3, [r2, #4]
 80020b2:	4914      	ldr	r1, [pc, #80]	@ (8002104 <UART_AdvFeatureConfig+0xd4>)
 80020b4:	400b      	ands	r3, r1
 80020b6:	6c41      	ldr	r1, [r0, #68]	@ 0x44
 80020b8:	430b      	orrs	r3, r1
 80020ba:	6053      	str	r3, [r2, #4]
    if (huart->AdvancedInit.AutoBaudRateEnable == UART_ADVFEATURE_AUTOBAUDRATE_ENABLE)
 80020bc:	6c42      	ldr	r2, [r0, #68]	@ 0x44
 80020be:	2380      	movs	r3, #128	@ 0x80
 80020c0:	035b      	lsls	r3, r3, #13
 80020c2:	429a      	cmp	r2, r3
 80020c4:	d00a      	beq.n	80020dc <UART_AdvFeatureConfig+0xac>
  if (HAL_IS_BIT_SET(huart->AdvancedInit.AdvFeatureInit, UART_ADVFEATURE_MSBFIRST_INIT))
 80020c6:	6a83      	ldr	r3, [r0, #40]	@ 0x28
 80020c8:	061b      	lsls	r3, r3, #24
 80020ca:	d506      	bpl.n	80020da <UART_AdvFeatureConfig+0xaa>
    MODIFY_REG(huart->Instance->CR2, USART_CR2_MSBFIRST, huart->AdvancedInit.MSBFirst);
 80020cc:	6802      	ldr	r2, [r0, #0]
 80020ce:	6853      	ldr	r3, [r2, #4]
 80020d0:	490d      	ldr	r1, [pc, #52]	@ (8002108 <UART_AdvFeatureConfig+0xd8>)
 80020d2:	400b      	ands	r3, r1
 80020d4:	6cc1      	ldr	r1, [r0, #76]	@ 0x4c
 80020d6:	430b      	orrs	r3, r1
 80020d8:	6053      	str	r3, [r2, #4]
}
 80020da:	4770      	bx	lr
      MODIFY_REG(huart->Instance->CR2, USART_CR2_ABRMODE, huart->AdvancedInit.AutoBaudRateMode);
 80020dc:	6802      	ldr	r2, [r0, #0]
 80020de:	6853      	ldr	r3, [r2, #4]
 80020e0:	490a      	ldr	r1, [pc, #40]	@ (800210c <UART_AdvFeatureConfig+0xdc>)
 80020e2:	400b      	ands	r3, r1
 80020e4:	6c81      	ldr	r1, [r0, #72]	@ 0x48
 80020e6:	430b      	orrs	r3, r1
 80020e8:	6053      	str	r3, [r2, #4]
 80020ea:	e7ec      	b.n	80020c6 <UART_AdvFeatureConfig+0x96>
 80020ec:	ffff7fff 	.word	0xffff7fff
 80020f0:	fffdffff 	.word	0xfffdffff
 80020f4:	fffeffff 	.word	0xfffeffff
 80020f8:	fffbffff 	.word	0xfffbffff
 80020fc:	ffffefff 	.word	0xffffefff
 8002100:	ffffdfff 	.word	0xffffdfff
 8002104:	ffefffff 	.word	0xffefffff
 8002108:	fff7ffff 	.word	0xfff7ffff
 800210c:	ff9fffff 	.word	0xff9fffff

08002110 <UART_WaitOnFlagUntilTimeout>:
{
 8002110:	b5f8      	push	{r3, r4, r5, r6, r7, lr}
 8002112:	46ce      	mov	lr, r9
 8002114:	4647      	mov	r7, r8
 8002116:	b580      	push	{r7, lr}
 8002118:	0006      	movs	r6, r0
 800211a:	000d      	movs	r5, r1
 800211c:	0017      	movs	r7, r2
 800211e:	4699      	mov	r9, r3
 8002120:	9b08      	ldr	r3, [sp, #32]
 8002122:	4698      	mov	r8, r3
  while ((__HAL_UART_GET_FLAG(huart, Flag) ? SET : RESET) == Status)
 8002124:	6833      	ldr	r3, [r6, #0]
 8002126:	69dc      	ldr	r4, [r3, #28]
 8002128:	402c      	ands	r4, r5
 800212a:	1b64      	subs	r4, r4, r5
 800212c:	4263      	negs	r3, r4
 800212e:	415c      	adcs	r4, r3
 8002130:	42bc      	cmp	r4, r7
 8002132:	d133      	bne.n	800219c <UART_WaitOnFlagUntilTimeout+0x8c>
    if (Timeout != HAL_MAX_DELAY)
 8002134:	4643      	mov	r3, r8
 8002136:	3301      	adds	r3, #1
 8002138:	d0f4      	beq.n	8002124 <UART_WaitOnFlagUntilTimeout+0x14>
      if (((HAL_GetTick() - Tickstart) > Timeout) || (Timeout == 0U))
 800213a:	f7fe fc49 	bl	80009d0 <HAL_GetTick>
 800213e:	464b      	mov	r3, r9
 8002140:	1ac0      	subs	r0, r0, r3
 8002142:	4540      	cmp	r0, r8
 8002144:	d82f      	bhi.n	80021a6 <UART_WaitOnFlagUntilTimeout+0x96>
 8002146:	4643      	mov	r3, r8
 8002148:	2b00      	cmp	r3, #0
 800214a:	d02e      	beq.n	80021aa <UART_WaitOnFlagUntilTimeout+0x9a>
      if ((READ_BIT(huart->Instance->CR1, USART_CR1_RE) != 0U) && (Flag != UART_FLAG_TXE) && (Flag != UART_FLAG_TC))
 800214c:	6832      	ldr	r2, [r6, #0]
 800214e:	6813      	ldr	r3, [r2, #0]
 8002150:	075b      	lsls	r3, r3, #29
 8002152:	d5e7      	bpl.n	8002124 <UART_WaitOnFlagUntilTimeout+0x14>
 8002154:	2d80      	cmp	r5, #128	@ 0x80
 8002156:	d0e5      	beq.n	8002124 <UART_WaitOnFlagUntilTimeout+0x14>
 8002158:	2d40      	cmp	r5, #64	@ 0x40
 800215a:	d0e3      	beq.n	8002124 <UART_WaitOnFlagUntilTimeout+0x14>
        if (__HAL_UART_GET_FLAG(huart, UART_FLAG_ORE) == SET)
 800215c:	69d3      	ldr	r3, [r2, #28]
 800215e:	071b      	lsls	r3, r3, #28
 8002160:	d410      	bmi.n	8002184 <UART_WaitOnFlagUntilTimeout+0x74>
        if (__HAL_UART_GET_FLAG(huart, UART_FLAG_RTOF) == SET)
 8002162:	69d3      	ldr	r3, [r2, #28]
 8002164:	051b      	lsls	r3, r3, #20
 8002166:	d5dd      	bpl.n	8002124 <UART_WaitOnFlagUntilTimeout+0x14>
          __HAL_UART_CLEAR_FLAG(huart, UART_CLEAR_RTOF);
 8002168:	2380      	movs	r3, #128	@ 0x80
 800216a:	011b      	lsls	r3, r3, #4
 800216c:	6213      	str	r3, [r2, #32]
          UART_EndRxTransfer(huart);
 800216e:	0030      	movs	r0, r6
 8002170:	f7ff fe4a 	bl	8001e08 <UART_EndRxTransfer>
          huart->ErrorCode = HAL_UART_ERROR_RTO;
 8002174:	2390      	movs	r3, #144	@ 0x90
 8002176:	2220      	movs	r2, #32
 8002178:	50f2      	str	r2, [r6, r3]
          __HAL_UNLOCK(huart);
 800217a:	3b0c      	subs	r3, #12
 800217c:	2200      	movs	r2, #0
 800217e:	54f2      	strb	r2, [r6, r3]
          return HAL_TIMEOUT;
 8002180:	2003      	movs	r0, #3
 8002182:	e00c      	b.n	800219e <UART_WaitOnFlagUntilTimeout+0x8e>
          __HAL_UART_CLEAR_FLAG(huart, UART_CLEAR_OREF);
 8002184:	2408      	movs	r4, #8
 8002186:	6214      	str	r4, [r2, #32]
          UART_EndRxTransfer(huart);
 8002188:	0030      	movs	r0, r6
 800218a:	f7ff fe3d 	bl	8001e08 <UART_EndRxTransfer>
          huart->ErrorCode = HAL_UART_ERROR_ORE;
 800218e:	2390      	movs	r3, #144	@ 0x90
 8002190:	50f4      	str	r4, [r6, r3]
          __HAL_UNLOCK(huart);
 8002192:	3b0c      	subs	r3, #12
 8002194:	2200      	movs	r2, #0
 8002196:	54f2      	strb	r2, [r6, r3]
          return HAL_ERROR;
 8002198:	2001      	movs	r0, #1
 800219a:	e000      	b.n	800219e <UART_WaitOnFlagUntilTimeout+0x8e>
  return HAL_OK;
 800219c:	2000      	movs	r0, #0
}
 800219e:	bcc0      	pop	{r6, r7}
 80021a0:	46b9      	mov	r9, r7
 80021a2:	46b0      	mov	r8, r6
 80021a4:	bdf8      	pop	{r3, r4, r5, r6, r7, pc}
        return HAL_TIMEOUT;
 80021a6:	2003      	movs	r0, #3
 80021a8:	e7f9      	b.n	800219e <UART_WaitOnFlagUntilTimeout+0x8e>
 80021aa:	2003      	movs	r0, #3
 80021ac:	e7f7      	b.n	800219e <UART_WaitOnFlagUntilTimeout+0x8e>

080021ae <HAL_UART_Transmit>:
{
 80021ae:	b5f0      	push	{r4, r5, r6, r7, lr}
 80021b0:	46c6      	mov	lr, r8
 80021b2:	b500      	push	{lr}
 80021b4:	b082      	sub	sp, #8
 80021b6:	0004      	movs	r4, r0
 80021b8:	000d      	movs	r5, r1
 80021ba:	4690      	mov	r8, r2
 80021bc:	001e      	movs	r6, r3
  if (huart->gState == HAL_UART_STATE_READY)
 80021be:	2388      	movs	r3, #136	@ 0x88
 80021c0:	58c3      	ldr	r3, [r0, r3]
 80021c2:	2b20      	cmp	r3, #32
 80021c4:	d165      	bne.n	8002292 <HAL_UART_Transmit+0xe4>
    if ((pData == NULL) || (Size == 0U))
 80021c6:	2900      	cmp	r1, #0
 80021c8:	d068      	beq.n	800229c <HAL_UART_Transmit+0xee>
 80021ca:	2a00      	cmp	r2, #0
 80021cc:	d068      	beq.n	80022a0 <HAL_UART_Transmit+0xf2>
    if ((huart->Init.WordLength == UART_WORDLENGTH_9B) && (huart->Init.Parity == UART_PARITY_NONE))
 80021ce:	6882      	ldr	r2, [r0, #8]
 80021d0:	2380      	movs	r3, #128	@ 0x80
 80021d2:	015b      	lsls	r3, r3, #5
 80021d4:	429a      	cmp	r2, r3
 80021d6:	d104      	bne.n	80021e2 <HAL_UART_Transmit+0x34>
 80021d8:	6903      	ldr	r3, [r0, #16]
 80021da:	2b00      	cmp	r3, #0
 80021dc:	d101      	bne.n	80021e2 <HAL_UART_Transmit+0x34>
      if ((((uint32_t)pData) & 1U) != 0U)
 80021de:	07cb      	lsls	r3, r1, #31
 80021e0:	d460      	bmi.n	80022a4 <HAL_UART_Transmit+0xf6>
    huart->ErrorCode = HAL_UART_ERROR_NONE;
 80021e2:	2390      	movs	r3, #144	@ 0x90
 80021e4:	2200      	movs	r2, #0
 80021e6:	50e2      	str	r2, [r4, r3]
    huart->gState = HAL_UART_STATE_BUSY_TX;
 80021e8:	3b08      	subs	r3, #8
 80021ea:	3221      	adds	r2, #33	@ 0x21
 80021ec:	50e2      	str	r2, [r4, r3]
    tickstart = HAL_GetTick();
 80021ee:	f7fe fbef 	bl	80009d0 <HAL_GetTick>
 80021f2:	0007      	movs	r7, r0
    huart->TxXferSize  = Size;
 80021f4:	2354      	movs	r3, #84	@ 0x54
 80021f6:	4642      	mov	r2, r8
 80021f8:	52e2      	strh	r2, [r4, r3]
    huart->TxXferCount = Size;
 80021fa:	3302      	adds	r3, #2
 80021fc:	52e2      	strh	r2, [r4, r3]
    if ((huart->Init.WordLength == UART_WORDLENGTH_9B) && (huart->Init.Parity == UART_PARITY_NONE))
 80021fe:	68a2      	ldr	r2, [r4, #8]
 8002200:	2380      	movs	r3, #128	@ 0x80
 8002202:	015b      	lsls	r3, r3, #5
 8002204:	429a      	cmp	r2, r3
 8002206:	d002      	beq.n	800220e <HAL_UART_Transmit+0x60>
      pdata16bits = NULL;
 8002208:	2300      	movs	r3, #0
 800220a:	4698      	mov	r8, r3
 800220c:	e018      	b.n	8002240 <HAL_UART_Transmit+0x92>
    if ((huart->Init.WordLength == UART_WORDLENGTH_9B) && (huart->Init.Parity == UART_PARITY_NONE))
 800220e:	6923      	ldr	r3, [r4, #16]
 8002210:	2b00      	cmp	r3, #0
 8002212:	d029      	beq.n	8002268 <HAL_UART_Transmit+0xba>
      pdata16bits = NULL;
 8002214:	2300      	movs	r3, #0
 8002216:	4698      	mov	r8, r3
 8002218:	e012      	b.n	8002240 <HAL_UART_Transmit+0x92>
        huart->gState = HAL_UART_STATE_READY;
 800221a:	2388      	movs	r3, #136	@ 0x88
 800221c:	2220      	movs	r2, #32
 800221e:	50e2      	str	r2, [r4, r3]
        return HAL_TIMEOUT;
 8002220:	2003      	movs	r0, #3
 8002222:	e037      	b.n	8002294 <HAL_UART_Transmit+0xe6>
        huart->Instance->TDR = (uint16_t)(*pdata16bits & 0x01FFU);
 8002224:	4643      	mov	r3, r8
 8002226:	881b      	ldrh	r3, [r3, #0]
 8002228:	6822      	ldr	r2, [r4, #0]
 800222a:	05db      	lsls	r3, r3, #23
 800222c:	0ddb      	lsrs	r3, r3, #23
 800222e:	6293      	str	r3, [r2, #40]	@ 0x28
        pdata16bits++;
 8002230:	2302      	movs	r3, #2
 8002232:	469c      	mov	ip, r3
 8002234:	44e0      	add	r8, ip
      huart->TxXferCount--;
 8002236:	2356      	movs	r3, #86	@ 0x56
 8002238:	5ae2      	ldrh	r2, [r4, r3]
 800223a:	3a01      	subs	r2, #1
 800223c:	b292      	uxth	r2, r2
 800223e:	52e2      	strh	r2, [r4, r3]
    while (huart->TxXferCount > 0U)
 8002240:	2356      	movs	r3, #86	@ 0x56
 8002242:	5ae3      	ldrh	r3, [r4, r3]
 8002244:	2b00      	cmp	r3, #0
 8002246:	d012      	beq.n	800226e <HAL_UART_Transmit+0xc0>
      if (UART_WaitOnFlagUntilTimeout(huart, UART_FLAG_TXE, RESET, tickstart, Timeout) != HAL_OK)
 8002248:	9600      	str	r6, [sp, #0]
 800224a:	003b      	movs	r3, r7
 800224c:	2200      	movs	r2, #0
 800224e:	2180      	movs	r1, #128	@ 0x80
 8002250:	0020      	movs	r0, r4
 8002252:	f7ff ff5d 	bl	8002110 <UART_WaitOnFlagUntilTimeout>
 8002256:	2800      	cmp	r0, #0
 8002258:	d1df      	bne.n	800221a <HAL_UART_Transmit+0x6c>
      if (pdata8bits == NULL)
 800225a:	2d00      	cmp	r5, #0
 800225c:	d0e2      	beq.n	8002224 <HAL_UART_Transmit+0x76>
        huart->Instance->TDR = (uint8_t)(*pdata8bits & 0xFFU);
 800225e:	782a      	ldrb	r2, [r5, #0]
 8002260:	6823      	ldr	r3, [r4, #0]
 8002262:	629a      	str	r2, [r3, #40]	@ 0x28
        pdata8bits++;
 8002264:	3501      	adds	r5, #1
 8002266:	e7e6      	b.n	8002236 <HAL_UART_Transmit+0x88>
      pdata16bits = (const uint16_t *) pData;
 8002268:	46a8      	mov	r8, r5
      pdata8bits  = NULL;
 800226a:	2500      	movs	r5, #0
 800226c:	e7e8      	b.n	8002240 <HAL_UART_Transmit+0x92>
    if (UART_WaitOnFlagUntilTimeout(huart, UART_FLAG_TC, RESET, tickstart, Timeout) != HAL_OK)
 800226e:	9600      	str	r6, [sp, #0]
 8002270:	003b      	movs	r3, r7
 8002272:	2200      	movs	r2, #0
 8002274:	2140      	movs	r1, #64	@ 0x40
 8002276:	0020      	movs	r0, r4
 8002278:	f7ff ff4a 	bl	8002110 <UART_WaitOnFlagUntilTimeout>
 800227c:	2800      	cmp	r0, #0
 800227e:	d103      	bne.n	8002288 <HAL_UART_Transmit+0xda>
    huart->gState = HAL_UART_STATE_READY;
 8002280:	2388      	movs	r3, #136	@ 0x88
 8002282:	2220      	movs	r2, #32
 8002284:	50e2      	str	r2, [r4, r3]
    return HAL_OK;
 8002286:	e005      	b.n	8002294 <HAL_UART_Transmit+0xe6>
      huart->gState = HAL_UART_STATE_READY;
 8002288:	2388      	movs	r3, #136	@ 0x88
 800228a:	2220      	movs	r2, #32
 800228c:	50e2      	str	r2, [r4, r3]
      return HAL_TIMEOUT;
 800228e:	2003      	movs	r0, #3
 8002290:	e000      	b.n	8002294 <HAL_UART_Transmit+0xe6>
    return HAL_BUSY;
 8002292:	2002      	movs	r0, #2
}
 8002294:	b002      	add	sp, #8
 8002296:	bc80      	pop	{r7}
 8002298:	46b8      	mov	r8, r7
 800229a:	bdf0      	pop	{r4, r5, r6, r7, pc}
      return  HAL_ERROR;
 800229c:	2001      	movs	r0, #1
 800229e:	e7f9      	b.n	8002294 <HAL_UART_Transmit+0xe6>
 80022a0:	2001      	movs	r0, #1
 80022a2:	e7f7      	b.n	8002294 <HAL_UART_Transmit+0xe6>
        return  HAL_ERROR;
 80022a4:	2001      	movs	r0, #1
 80022a6:	e7f5      	b.n	8002294 <HAL_UART_Transmit+0xe6>

080022a8 <HAL_UART_Receive>:
{
 80022a8:	b5f0      	push	{r4, r5, r6, r7, lr}
 80022aa:	46c6      	mov	lr, r8
 80022ac:	b500      	push	{lr}
 80022ae:	b084      	sub	sp, #16
 80022b0:	0004      	movs	r4, r0
 80022b2:	000e      	movs	r6, r1
 80022b4:	0015      	movs	r5, r2
 80022b6:	001f      	movs	r7, r3
  if (huart->RxState == HAL_UART_STATE_READY)
 80022b8:	238c      	movs	r3, #140	@ 0x8c
 80022ba:	58c3      	ldr	r3, [r0, r3]
 80022bc:	2b20      	cmp	r3, #32
 80022be:	d000      	beq.n	80022c2 <HAL_UART_Receive+0x1a>
 80022c0:	e08a      	b.n	80023d8 <HAL_UART_Receive+0x130>
    if ((pData == NULL) || (Size == 0U))
 80022c2:	2900      	cmp	r1, #0
 80022c4:	d100      	bne.n	80022c8 <HAL_UART_Receive+0x20>
 80022c6:	e08c      	b.n	80023e2 <HAL_UART_Receive+0x13a>
 80022c8:	2a00      	cmp	r2, #0
 80022ca:	d100      	bne.n	80022ce <HAL_UART_Receive+0x26>
 80022cc:	e08b      	b.n	80023e6 <HAL_UART_Receive+0x13e>
    if ((huart->Init.WordLength == UART_WORDLENGTH_9B) && (huart->Init.Parity == UART_PARITY_NONE))
 80022ce:	6882      	ldr	r2, [r0, #8]
 80022d0:	2380      	movs	r3, #128	@ 0x80
 80022d2:	015b      	lsls	r3, r3, #5
 80022d4:	429a      	cmp	r2, r3
 80022d6:	d105      	bne.n	80022e4 <HAL_UART_Receive+0x3c>
 80022d8:	6903      	ldr	r3, [r0, #16]
 80022da:	2b00      	cmp	r3, #0
 80022dc:	d102      	bne.n	80022e4 <HAL_UART_Receive+0x3c>
      if ((((uint32_t)pData) & 1U) != 0U)
 80022de:	07cb      	lsls	r3, r1, #31
 80022e0:	d500      	bpl.n	80022e4 <HAL_UART_Receive+0x3c>
 80022e2:	e082      	b.n	80023ea <HAL_UART_Receive+0x142>
    huart->ErrorCode = HAL_UART_ERROR_NONE;
 80022e4:	2300      	movs	r3, #0
 80022e6:	2290      	movs	r2, #144	@ 0x90
 80022e8:	50a3      	str	r3, [r4, r2]
    huart->RxState = HAL_UART_STATE_BUSY_RX;
 80022ea:	3a04      	subs	r2, #4
 80022ec:	2122      	movs	r1, #34	@ 0x22
 80022ee:	50a1      	str	r1, [r4, r2]
    huart->ReceptionType = HAL_UART_RECEPTION_STANDARD;
 80022f0:	66e3      	str	r3, [r4, #108]	@ 0x6c
    tickstart = HAL_GetTick();
 80022f2:	f7fe fb6d 	bl	80009d0 <HAL_GetTick>
 80022f6:	4680      	mov	r8, r0
    huart->RxXferSize  = Size;
 80022f8:	235c      	movs	r3, #92	@ 0x5c
 80022fa:	52e5      	strh	r5, [r4, r3]
    huart->RxXferCount = Size;
 80022fc:	3302      	adds	r3, #2
 80022fe:	52e5      	strh	r5, [r4, r3]
    UART_MASK_COMPUTATION(huart);
 8002300:	68a3      	ldr	r3, [r4, #8]
 8002302:	2280      	movs	r2, #128	@ 0x80
 8002304:	0152      	lsls	r2, r2, #5
 8002306:	4293      	cmp	r3, r2
 8002308:	d008      	beq.n	800231c <HAL_UART_Receive+0x74>
 800230a:	2b00      	cmp	r3, #0
 800230c:	d115      	bne.n	800233a <HAL_UART_Receive+0x92>
 800230e:	6922      	ldr	r2, [r4, #16]
 8002310:	2a00      	cmp	r2, #0
 8002312:	d10e      	bne.n	8002332 <HAL_UART_Receive+0x8a>
 8002314:	3260      	adds	r2, #96	@ 0x60
 8002316:	21ff      	movs	r1, #255	@ 0xff
 8002318:	52a1      	strh	r1, [r4, r2]
 800231a:	e015      	b.n	8002348 <HAL_UART_Receive+0xa0>
 800231c:	6922      	ldr	r2, [r4, #16]
 800231e:	2a00      	cmp	r2, #0
 8002320:	d103      	bne.n	800232a <HAL_UART_Receive+0x82>
 8002322:	3260      	adds	r2, #96	@ 0x60
 8002324:	4932      	ldr	r1, [pc, #200]	@ (80023f0 <HAL_UART_Receive+0x148>)
 8002326:	52a1      	strh	r1, [r4, r2]
 8002328:	e00e      	b.n	8002348 <HAL_UART_Receive+0xa0>
 800232a:	2260      	movs	r2, #96	@ 0x60
 800232c:	21ff      	movs	r1, #255	@ 0xff
 800232e:	52a1      	strh	r1, [r4, r2]
 8002330:	e00a      	b.n	8002348 <HAL_UART_Receive+0xa0>
 8002332:	2260      	movs	r2, #96	@ 0x60
 8002334:	217f      	movs	r1, #127	@ 0x7f
 8002336:	52a1      	strh	r1, [r4, r2]
 8002338:	e006      	b.n	8002348 <HAL_UART_Receive+0xa0>
 800233a:	2280      	movs	r2, #128	@ 0x80
 800233c:	0552      	lsls	r2, r2, #21
 800233e:	4293      	cmp	r3, r2
 8002340:	d00b      	beq.n	800235a <HAL_UART_Receive+0xb2>
 8002342:	2260      	movs	r2, #96	@ 0x60
 8002344:	2100      	movs	r1, #0
 8002346:	52a1      	strh	r1, [r4, r2]
    uhMask = huart->Mask;
 8002348:	2260      	movs	r2, #96	@ 0x60
 800234a:	5aa2      	ldrh	r2, [r4, r2]
 800234c:	9203      	str	r2, [sp, #12]
    if ((huart->Init.WordLength == UART_WORDLENGTH_9B) && (huart->Init.Parity == UART_PARITY_NONE))
 800234e:	2280      	movs	r2, #128	@ 0x80
 8002350:	0152      	lsls	r2, r2, #5
 8002352:	4293      	cmp	r3, r2
 8002354:	d00c      	beq.n	8002370 <HAL_UART_Receive+0xc8>
      pdata16bits = NULL;
 8002356:	2500      	movs	r5, #0
 8002358:	e01f      	b.n	800239a <HAL_UART_Receive+0xf2>
    UART_MASK_COMPUTATION(huart);
 800235a:	6922      	ldr	r2, [r4, #16]
 800235c:	2a00      	cmp	r2, #0
 800235e:	d103      	bne.n	8002368 <HAL_UART_Receive+0xc0>
 8002360:	3260      	adds	r2, #96	@ 0x60
 8002362:	217f      	movs	r1, #127	@ 0x7f
 8002364:	52a1      	strh	r1, [r4, r2]
 8002366:	e7ef      	b.n	8002348 <HAL_UART_Receive+0xa0>
 8002368:	2260      	movs	r2, #96	@ 0x60
 800236a:	213f      	movs	r1, #63	@ 0x3f
 800236c:	52a1      	strh	r1, [r4, r2]
 800236e:	e7eb      	b.n	8002348 <HAL_UART_Receive+0xa0>
    if ((huart->Init.WordLength == UART_WORDLENGTH_9B) && (huart->Init.Parity == UART_PARITY_NONE))
 8002370:	6923      	ldr	r3, [r4, #16]
 8002372:	2b00      	cmp	r3, #0
 8002374:	d028      	beq.n	80023c8 <HAL_UART_Receive+0x120>
      pdata16bits = NULL;
 8002376:	2500      	movs	r5, #0
 8002378:	e00f      	b.n	800239a <HAL_UART_Receive+0xf2>
        huart->RxState = HAL_UART_STATE_READY;
 800237a:	238c      	movs	r3, #140	@ 0x8c
 800237c:	2220      	movs	r2, #32
 800237e:	50e2      	str	r2, [r4, r3]
        return HAL_TIMEOUT;
 8002380:	2003      	movs	r0, #3
 8002382:	e02a      	b.n	80023da <HAL_UART_Receive+0x132>
        *pdata16bits = (uint16_t)(huart->Instance->RDR & uhMask);
 8002384:	6823      	ldr	r3, [r4, #0]
 8002386:	6a5b      	ldr	r3, [r3, #36]	@ 0x24
 8002388:	9a03      	ldr	r2, [sp, #12]
 800238a:	4013      	ands	r3, r2
 800238c:	802b      	strh	r3, [r5, #0]
        pdata16bits++;
 800238e:	3502      	adds	r5, #2
      huart->RxXferCount--;
 8002390:	235e      	movs	r3, #94	@ 0x5e
 8002392:	5ae2      	ldrh	r2, [r4, r3]
 8002394:	3a01      	subs	r2, #1
 8002396:	b292      	uxth	r2, r2
 8002398:	52e2      	strh	r2, [r4, r3]
    while (huart->RxXferCount > 0U)
 800239a:	235e      	movs	r3, #94	@ 0x5e
 800239c:	5ae3      	ldrh	r3, [r4, r3]
 800239e:	2b00      	cmp	r3, #0
 80023a0:	d015      	beq.n	80023ce <HAL_UART_Receive+0x126>
      if (UART_WaitOnFlagUntilTimeout(huart, UART_FLAG_RXNE, RESET, tickstart, Timeout) != HAL_OK)
 80023a2:	9700      	str	r7, [sp, #0]
 80023a4:	4643      	mov	r3, r8
 80023a6:	2200      	movs	r2, #0
 80023a8:	2120      	movs	r1, #32
 80023aa:	0020      	movs	r0, r4
 80023ac:	f7ff feb0 	bl	8002110 <UART_WaitOnFlagUntilTimeout>
 80023b0:	2800      	cmp	r0, #0
 80023b2:	d1e2      	bne.n	800237a <HAL_UART_Receive+0xd2>
      if (pdata8bits == NULL)
 80023b4:	2e00      	cmp	r6, #0
 80023b6:	d0e5      	beq.n	8002384 <HAL_UART_Receive+0xdc>
        *pdata8bits = (uint8_t)(huart->Instance->RDR & (uint8_t)uhMask);
 80023b8:	6823      	ldr	r3, [r4, #0]
 80023ba:	6a5b      	ldr	r3, [r3, #36]	@ 0x24
 80023bc:	466a      	mov	r2, sp
 80023be:	7b12      	ldrb	r2, [r2, #12]
 80023c0:	4013      	ands	r3, r2
 80023c2:	7033      	strb	r3, [r6, #0]
        pdata8bits++;
 80023c4:	3601      	adds	r6, #1
 80023c6:	e7e3      	b.n	8002390 <HAL_UART_Receive+0xe8>
      pdata16bits = (uint16_t *) pData;
 80023c8:	0035      	movs	r5, r6
      pdata8bits  = NULL;
 80023ca:	2600      	movs	r6, #0
 80023cc:	e7e5      	b.n	800239a <HAL_UART_Receive+0xf2>
    huart->RxState = HAL_UART_STATE_READY;
 80023ce:	338c      	adds	r3, #140	@ 0x8c
 80023d0:	2220      	movs	r2, #32
 80023d2:	50e2      	str	r2, [r4, r3]
    return HAL_OK;
 80023d4:	2000      	movs	r0, #0
 80023d6:	e000      	b.n	80023da <HAL_UART_Receive+0x132>
    return HAL_BUSY;
 80023d8:	2002      	movs	r0, #2
}
 80023da:	b004      	add	sp, #16
 80023dc:	bc80      	pop	{r7}
 80023de:	46b8      	mov	r8, r7
 80023e0:	bdf0      	pop	{r4, r5, r6, r7, pc}
      return  HAL_ERROR;
 80023e2:	2001      	movs	r0, #1
 80023e4:	e7f9      	b.n	80023da <HAL_UART_Receive+0x132>
 80023e6:	2001      	movs	r0, #1
 80023e8:	e7f7      	b.n	80023da <HAL_UART_Receive+0x132>
        return  HAL_ERROR;
 80023ea:	2001      	movs	r0, #1
 80023ec:	e7f5      	b.n	80023da <HAL_UART_Receive+0x132>
 80023ee:	46c0      	nop			@ (mov r8, r8)
 80023f0:	000001ff 	.word	0x000001ff

080023f4 <UART_CheckIdleState>:
{
 80023f4:	b530      	push	{r4, r5, lr}
 80023f6:	b083      	sub	sp, #12
 80023f8:	0004      	movs	r4, r0
  huart->ErrorCode = HAL_UART_ERROR_NONE;
 80023fa:	2390      	movs	r3, #144	@ 0x90
 80023fc:	2200      	movs	r2, #0
 80023fe:	50c2      	str	r2, [r0, r3]
  tickstart = HAL_GetTick();
 8002400:	f7fe fae6 	bl	80009d0 <HAL_GetTick>
 8002404:	0005      	movs	r5, r0
  if ((huart->Instance->CR1 & USART_CR1_TE) == USART_CR1_TE)
 8002406:	6823      	ldr	r3, [r4, #0]
 8002408:	681b      	ldr	r3, [r3, #0]
 800240a:	071b      	lsls	r3, r3, #28
 800240c:	d410      	bmi.n	8002430 <UART_CheckIdleState+0x3c>
  if ((huart->Instance->CR1 & USART_CR1_RE) == USART_CR1_RE)
 800240e:	6823      	ldr	r3, [r4, #0]
 8002410:	681b      	ldr	r3, [r3, #0]
 8002412:	075b      	lsls	r3, r3, #29
 8002414:	d42b      	bmi.n	800246e <UART_CheckIdleState+0x7a>
  huart->gState = HAL_UART_STATE_READY;
 8002416:	2320      	movs	r3, #32
 8002418:	2288      	movs	r2, #136	@ 0x88
 800241a:	50a3      	str	r3, [r4, r2]
  huart->RxState = HAL_UART_STATE_READY;
 800241c:	3204      	adds	r2, #4
 800241e:	50a3      	str	r3, [r4, r2]
  huart->ReceptionType = HAL_UART_RECEPTION_STANDARD;
 8002420:	2300      	movs	r3, #0
 8002422:	66e3      	str	r3, [r4, #108]	@ 0x6c
  huart->RxEventType = HAL_UART_RXEVENT_TC;
 8002424:	6723      	str	r3, [r4, #112]	@ 0x70
  __HAL_UNLOCK(huart);
 8002426:	3a08      	subs	r2, #8
 8002428:	54a3      	strb	r3, [r4, r2]
  return HAL_OK;
 800242a:	2000      	movs	r0, #0
}
 800242c:	b003      	add	sp, #12
 800242e:	bd30      	pop	{r4, r5, pc}
    if (UART_WaitOnFlagUntilTimeout(huart, USART_ISR_TEACK, RESET, tickstart, HAL_UART_TIMEOUT_VALUE) != HAL_OK)
 8002430:	2180      	movs	r1, #128	@ 0x80
 8002432:	4b23      	ldr	r3, [pc, #140]	@ (80024c0 <UART_CheckIdleState+0xcc>)
 8002434:	9300      	str	r3, [sp, #0]
 8002436:	0003      	movs	r3, r0
 8002438:	2200      	movs	r2, #0
 800243a:	0389      	lsls	r1, r1, #14
 800243c:	0020      	movs	r0, r4
 800243e:	f7ff fe67 	bl	8002110 <UART_WaitOnFlagUntilTimeout>
 8002442:	2800      	cmp	r0, #0
 8002444:	d0e3      	beq.n	800240e <UART_CheckIdleState+0x1a>
  __ASM volatile ("MRS %0, primask" : "=r" (result) );
 8002446:	f3ef 8110 	mrs	r1, PRIMASK
  __ASM volatile ("MSR primask, %0" : : "r" (priMask) : "memory");
 800244a:	2301      	movs	r3, #1
 800244c:	f383 8810 	msr	PRIMASK, r3
      ATOMIC_CLEAR_BIT(huart->Instance->CR1, (USART_CR1_TXEIE_TXFNFIE));
 8002450:	6822      	ldr	r2, [r4, #0]
 8002452:	6813      	ldr	r3, [r2, #0]
 8002454:	2080      	movs	r0, #128	@ 0x80
 8002456:	4383      	bics	r3, r0
 8002458:	6013      	str	r3, [r2, #0]
 800245a:	f381 8810 	msr	PRIMASK, r1
      huart->gState = HAL_UART_STATE_READY;
 800245e:	2388      	movs	r3, #136	@ 0x88
 8002460:	2220      	movs	r2, #32
 8002462:	50e2      	str	r2, [r4, r3]
      __HAL_UNLOCK(huart);
 8002464:	3b04      	subs	r3, #4
 8002466:	2200      	movs	r2, #0
 8002468:	54e2      	strb	r2, [r4, r3]
      return HAL_TIMEOUT;
 800246a:	387d      	subs	r0, #125	@ 0x7d
 800246c:	e7de      	b.n	800242c <UART_CheckIdleState+0x38>
    if (UART_WaitOnFlagUntilTimeout(huart, USART_ISR_REACK, RESET, tickstart, HAL_UART_TIMEOUT_VALUE) != HAL_OK)
 800246e:	2180      	movs	r1, #128	@ 0x80
 8002470:	4b13      	ldr	r3, [pc, #76]	@ (80024c0 <UART_CheckIdleState+0xcc>)
 8002472:	9300      	str	r3, [sp, #0]
 8002474:	002b      	movs	r3, r5
 8002476:	2200      	movs	r2, #0
 8002478:	03c9      	lsls	r1, r1, #15
 800247a:	0020      	movs	r0, r4
 800247c:	f7ff fe48 	bl	8002110 <UART_WaitOnFlagUntilTimeout>
 8002480:	2800      	cmp	r0, #0
 8002482:	d0c8      	beq.n	8002416 <UART_CheckIdleState+0x22>
  __ASM volatile ("MRS %0, primask" : "=r" (result) );
 8002484:	f3ef 8010 	mrs	r0, PRIMASK
  __ASM volatile ("MSR primask, %0" : : "r" (priMask) : "memory");
 8002488:	2201      	movs	r2, #1
 800248a:	f382 8810 	msr	PRIMASK, r2
      ATOMIC_CLEAR_BIT(huart->Instance->CR1, (USART_CR1_RXNEIE_RXFNEIE | USART_CR1_PEIE));
 800248e:	6821      	ldr	r1, [r4, #0]
 8002490:	680b      	ldr	r3, [r1, #0]
 8002492:	4d0c      	ldr	r5, [pc, #48]	@ (80024c4 <UART_CheckIdleState+0xd0>)
 8002494:	402b      	ands	r3, r5
 8002496:	600b      	str	r3, [r1, #0]
 8002498:	f380 8810 	msr	PRIMASK, r0
  __ASM volatile ("MRS %0, primask" : "=r" (result) );
 800249c:	f3ef 8010 	mrs	r0, PRIMASK
  __ASM volatile ("MSR primask, %0" : : "r" (priMask) : "memory");
 80024a0:	f382 8810 	msr	PRIMASK, r2
      ATOMIC_CLEAR_BIT(huart->Instance->CR3, USART_CR3_EIE);
 80024a4:	6821      	ldr	r1, [r4, #0]
 80024a6:	688b      	ldr	r3, [r1, #8]
 80024a8:	4393      	bics	r3, r2
 80024aa:	608b      	str	r3, [r1, #8]
 80024ac:	f380 8810 	msr	PRIMASK, r0
      huart->RxState = HAL_UART_STATE_READY;
 80024b0:	238c      	movs	r3, #140	@ 0x8c
 80024b2:	321f      	adds	r2, #31
 80024b4:	50e2      	str	r2, [r4, r3]
      __HAL_UNLOCK(huart);
 80024b6:	3b08      	subs	r3, #8
 80024b8:	2200      	movs	r2, #0
 80024ba:	54e2      	strb	r2, [r4, r3]
      return HAL_TIMEOUT;
 80024bc:	2003      	movs	r0, #3
 80024be:	e7b5      	b.n	800242c <UART_CheckIdleState+0x38>
 80024c0:	01ffffff 	.word	0x01ffffff
 80024c4:	fffffedf 	.word	0xfffffedf

080024c8 <HAL_UART_Init>:
{
 80024c8:	b510      	push	{r4, lr}
 80024ca:	1e04      	subs	r4, r0, #0
  if (huart == NULL)
 80024cc:	d030      	beq.n	8002530 <HAL_UART_Init+0x68>
  if (huart->gState == HAL_UART_STATE_RESET)
 80024ce:	2388      	movs	r3, #136	@ 0x88
 80024d0:	58c3      	ldr	r3, [r0, r3]
 80024d2:	2b00      	cmp	r3, #0
 80024d4:	d022      	beq.n	800251c <HAL_UART_Init+0x54>
  huart->gState = HAL_UART_STATE_BUSY;
 80024d6:	2388      	movs	r3, #136	@ 0x88
 80024d8:	2224      	movs	r2, #36	@ 0x24
 80024da:	50e2      	str	r2, [r4, r3]
  __HAL_UART_DISABLE(huart);
 80024dc:	6822      	ldr	r2, [r4, #0]
 80024de:	6813      	ldr	r3, [r2, #0]
 80024e0:	2101      	movs	r1, #1
 80024e2:	438b      	bics	r3, r1
 80024e4:	6013      	str	r3, [r2, #0]
  if (huart->AdvancedInit.AdvFeatureInit != UART_ADVFEATURE_NO_INIT)
 80024e6:	6aa3      	ldr	r3, [r4, #40]	@ 0x28
 80024e8:	2b00      	cmp	r3, #0
 80024ea:	d11d      	bne.n	8002528 <HAL_UART_Init+0x60>
  if (UART_SetConfig(huart) == HAL_ERROR)
 80024ec:	0020      	movs	r0, r4
 80024ee:	f7ff fcbd 	bl	8001e6c <UART_SetConfig>
 80024f2:	2801      	cmp	r0, #1
 80024f4:	d011      	beq.n	800251a <HAL_UART_Init+0x52>
  CLEAR_BIT(huart->Instance->CR2, (USART_CR2_LINEN | USART_CR2_CLKEN));
 80024f6:	6822      	ldr	r2, [r4, #0]
 80024f8:	6853      	ldr	r3, [r2, #4]
 80024fa:	490e      	ldr	r1, [pc, #56]	@ (8002534 <HAL_UART_Init+0x6c>)
 80024fc:	400b      	ands	r3, r1
 80024fe:	6053      	str	r3, [r2, #4]
  CLEAR_BIT(huart->Instance->CR3, (USART_CR3_SCEN | USART_CR3_HDSEL | USART_CR3_IREN));
 8002500:	6822      	ldr	r2, [r4, #0]
 8002502:	6893      	ldr	r3, [r2, #8]
 8002504:	212a      	movs	r1, #42	@ 0x2a
 8002506:	438b      	bics	r3, r1
 8002508:	6093      	str	r3, [r2, #8]
  __HAL_UART_ENABLE(huart);
 800250a:	6822      	ldr	r2, [r4, #0]
 800250c:	6813      	ldr	r3, [r2, #0]
 800250e:	3929      	subs	r1, #41	@ 0x29
 8002510:	430b      	orrs	r3, r1
 8002512:	6013      	str	r3, [r2, #0]
  return (UART_CheckIdleState(huart));
 8002514:	0020      	movs	r0, r4
 8002516:	f7ff ff6d 	bl	80023f4 <UART_CheckIdleState>
}
 800251a:	bd10      	pop	{r4, pc}
    huart->Lock = HAL_UNLOCKED;
 800251c:	3384      	adds	r3, #132	@ 0x84
 800251e:	2200      	movs	r2, #0
 8002520:	54c2      	strb	r2, [r0, r3]
    HAL_UART_MspInit(huart);
 8002522:	f7ff f92d 	bl	8001780 <HAL_UART_MspInit>
 8002526:	e7d6      	b.n	80024d6 <HAL_UART_Init+0xe>
    UART_AdvFeatureConfig(huart);
 8002528:	0020      	movs	r0, r4
 800252a:	f7ff fd81 	bl	8002030 <UART_AdvFeatureConfig>
 800252e:	e7dd      	b.n	80024ec <HAL_UART_Init+0x24>
    return HAL_ERROR;
 8002530:	2001      	movs	r0, #1
 8002532:	e7f2      	b.n	800251a <HAL_UART_Init+0x52>
 8002534:	ffffb7ff 	.word	0xffffb7ff

08002538 <NMI_Handler>:
{
  /* USER CODE BEGIN NonMaskableInt_IRQn 0 */

  /* USER CODE END NonMaskableInt_IRQn 0 */
  /* USER CODE BEGIN NonMaskableInt_IRQn 1 */
   while (1)
 8002538:	e7fe      	b.n	8002538 <NMI_Handler>

0800253a <HardFault_Handler>:
void HardFault_Handler(void)
{
  /* USER CODE BEGIN HardFault_IRQn 0 */

  /* USER CODE END HardFault_IRQn 0 */
  while (1)
 800253a:	e7fe      	b.n	800253a <HardFault_Handler>

0800253c <SVC_Handler>:

  /* USER CODE END SVC_IRQn 0 */
  /* USER CODE BEGIN SVC_IRQn 1 */

  /* USER CODE END SVC_IRQn 1 */
}
 800253c:	4770      	bx	lr

0800253e <PendSV_Handler>:

  /* USER CODE END PendSV_IRQn 0 */
  /* USER CODE BEGIN PendSV_IRQn 1 */

  /* USER CODE END PendSV_IRQn 1 */
}
 800253e:	4770      	bx	lr

08002540 <SysTick_Handler>:

/**
  * @brief This function handles System tick timer.
  */
void SysTick_Handler(void)
{
 8002540:	b510      	push	{r4, lr}
  /* USER CODE BEGIN SysTick_IRQn 0 */

  /* USER CODE END SysTick_IRQn 0 */
  HAL_IncTick();
 8002542:	f7fe fa39 	bl	80009b8 <HAL_IncTick>
  /* USER CODE BEGIN SysTick_IRQn 1 */

  /* USER CODE END SysTick_IRQn 1 */
}
 8002546:	bd10      	pop	{r4, pc}

08002548 <DMA1_Channel1_IRQHandler>:

/**
  * @brief This function handles DMA1 channel 1 interrupt.
  */
void DMA1_Channel1_IRQHandler(void)
{
 8002548:	b510      	push	{r4, lr}
  /* USER CODE BEGIN DMA1_Channel1_IRQn 0 */

  /* USER CODE END DMA1_Channel1_IRQn 0 */
  HAL_DMA_IRQHandler(&hdma_adc1);
 800254a:	4802      	ldr	r0, [pc, #8]	@ (8002554 <DMA1_Channel1_IRQHandler+0xc>)
 800254c:	f7fe ff2c 	bl	80013a8 <HAL_DMA_IRQHandler>
  /* USER CODE BEGIN DMA1_Channel1_IRQn 1 */

  /* USER CODE END DMA1_Channel1_IRQn 1 */
}
 8002550:	bd10      	pop	{r4, pc}
 8002552:	46c0      	nop			@ (mov r8, r8)
 8002554:	20000380 	.word	0x20000380

08002558 <EXTI0_1_IRQHandler>:

/* USER CODE BEGIN 1 */
void EXTI0_1_IRQHandler(void)
{
 8002558:	b510      	push	{r4, lr}
    HAL_GPIO_EXTI_IRQHandler(GPIO_PIN_1);
 800255a:	2002      	movs	r0, #2
 800255c:	f7ff f880 	bl	8001660 <HAL_GPIO_EXTI_IRQHandler>
}
 8002560:	bd10      	pop	{r4, pc}

08002562 <_getpid>:
}

int _getpid(void)
{
  return 1;
}
 8002562:	2001      	movs	r0, #1
 8002564:	4770      	bx	lr

08002566 <_kill>:

int _kill(int pid, int sig)
{
 8002566:	b510      	push	{r4, lr}
  (void)pid;
  (void)sig;
  errno = EINVAL;
 8002568:	f000 fa50 	bl	8002a0c <__errno>
 800256c:	2316      	movs	r3, #22
 800256e:	6003      	str	r3, [r0, #0]
  return -1;
 8002570:	2001      	movs	r0, #1
}
 8002572:	4240      	negs	r0, r0
 8002574:	bd10      	pop	{r4, pc}

08002576 <_exit>:

void _exit (int status)
{
 8002576:	b510      	push	{r4, lr}
  _kill(status, -1);
 8002578:	2101      	movs	r1, #1
 800257a:	4249      	negs	r1, r1
 800257c:	f7ff fff3 	bl	8002566 <_kill>
  while (1) {}    /* Make sure we hang here */
 8002580:	e7fe      	b.n	8002580 <_exit+0xa>

08002582 <_read>:
}

__attribute__((weak)) int _read(int file, char *ptr, int len)
{
 8002582:	b570      	push	{r4, r5, r6, lr}
 8002584:	000c      	movs	r4, r1
 8002586:	0016      	movs	r6, r2
  (void)file;
  int DataIdx;

  for (DataIdx = 0; DataIdx < len; DataIdx++)
 8002588:	2500      	movs	r5, #0
 800258a:	e004      	b.n	8002596 <_read+0x14>
  {
    *ptr++ = __io_getchar();
 800258c:	e000      	b.n	8002590 <_read+0xe>
 800258e:	bf00      	nop
 8002590:	7020      	strb	r0, [r4, #0]
  for (DataIdx = 0; DataIdx < len; DataIdx++)
 8002592:	3501      	adds	r5, #1
    *ptr++ = __io_getchar();
 8002594:	3401      	adds	r4, #1
  for (DataIdx = 0; DataIdx < len; DataIdx++)
 8002596:	42b5      	cmp	r5, r6
 8002598:	dbf8      	blt.n	800258c <_read+0xa>
  }

  return len;
}
 800259a:	0030      	movs	r0, r6
 800259c:	bd70      	pop	{r4, r5, r6, pc}

0800259e <_write>:

__attribute__((weak)) int _write(int file, char *ptr, int len)
{
 800259e:	b570      	push	{r4, r5, r6, lr}
 80025a0:	0016      	movs	r6, r2
  (void)file;
  int DataIdx;

  for (DataIdx = 0; DataIdx < len; DataIdx++)
 80025a2:	2400      	movs	r4, #0
 80025a4:	e005      	b.n	80025b2 <_write+0x14>
  {
    __io_putchar(*ptr++);
 80025a6:	1c4d      	adds	r5, r1, #1
 80025a8:	7808      	ldrb	r0, [r1, #0]
 80025aa:	e000      	b.n	80025ae <_write+0x10>
 80025ac:	bf00      	nop
  for (DataIdx = 0; DataIdx < len; DataIdx++)
 80025ae:	3401      	adds	r4, #1
    __io_putchar(*ptr++);
 80025b0:	0029      	movs	r1, r5
  for (DataIdx = 0; DataIdx < len; DataIdx++)
 80025b2:	42b4      	cmp	r4, r6
 80025b4:	dbf7      	blt.n	80025a6 <_write+0x8>
  }
  return len;
}
 80025b6:	0030      	movs	r0, r6
 80025b8:	bd70      	pop	{r4, r5, r6, pc}

080025ba <_close>:

int _close(int file)
{
  (void)file;
  return -1;
 80025ba:	2001      	movs	r0, #1
}
 80025bc:	4240      	negs	r0, r0
 80025be:	4770      	bx	lr

080025c0 <_fstat>:


int _fstat(int file, struct stat *st)
{
  (void)file;
  st->st_mode = S_IFCHR;
 80025c0:	2380      	movs	r3, #128	@ 0x80
 80025c2:	019b      	lsls	r3, r3, #6
 80025c4:	604b      	str	r3, [r1, #4]
  return 0;
}
 80025c6:	2000      	movs	r0, #0
 80025c8:	4770      	bx	lr

080025ca <_isatty>:

int _isatty(int file)
{
  (void)file;
  return 1;
}
 80025ca:	2001      	movs	r0, #1
 80025cc:	4770      	bx	lr

080025ce <_lseek>:
{
  (void)file;
  (void)ptr;
  (void)dir;
  return 0;
}
 80025ce:	2000      	movs	r0, #0
 80025d0:	4770      	bx	lr
	...

080025d4 <_sbrk>:
 *
 * @param incr Memory size
 * @return Pointer to allocated memory
 */
void *_sbrk(ptrdiff_t incr)
{
 80025d4:	b510      	push	{r4, lr}
 80025d6:	0003      	movs	r3, r0
  extern uint8_t _end; /* Symbol defined in the linker script */
  extern uint8_t _estack; /* Symbol defined in the linker script */
  extern uint32_t _Min_Stack_Size; /* Symbol defined in the linker script */
  const uint32_t stack_limit = (uint32_t)&_estack - (uint32_t)&_Min_Stack_Size;
 80025d8:	4a0c      	ldr	r2, [pc, #48]	@ (800260c <_sbrk+0x38>)
 80025da:	490d      	ldr	r1, [pc, #52]	@ (8002610 <_sbrk+0x3c>)
 80025dc:	1a52      	subs	r2, r2, r1
  const uint8_t *max_heap = (uint8_t *)stack_limit;
  uint8_t *prev_heap_end;

  /* Initialize heap end at first call */
  if (NULL == __sbrk_heap_end)
 80025de:	490d      	ldr	r1, [pc, #52]	@ (8002614 <_sbrk+0x40>)
 80025e0:	6809      	ldr	r1, [r1, #0]
 80025e2:	2900      	cmp	r1, #0
 80025e4:	d007      	beq.n	80025f6 <_sbrk+0x22>
  {
    __sbrk_heap_end = &_end;
  }

  /* Protect heap from growing into the reserved MSP stack */
  if (__sbrk_heap_end + incr > max_heap)
 80025e6:	490b      	ldr	r1, [pc, #44]	@ (8002614 <_sbrk+0x40>)
 80025e8:	6808      	ldr	r0, [r1, #0]
 80025ea:	18c3      	adds	r3, r0, r3
 80025ec:	4293      	cmp	r3, r2
 80025ee:	d806      	bhi.n	80025fe <_sbrk+0x2a>
    errno = ENOMEM;
    return (void *)-1;
  }

  prev_heap_end = __sbrk_heap_end;
  __sbrk_heap_end += incr;
 80025f0:	4a08      	ldr	r2, [pc, #32]	@ (8002614 <_sbrk+0x40>)
 80025f2:	6013      	str	r3, [r2, #0]

  return (void *)prev_heap_end;
}
 80025f4:	bd10      	pop	{r4, pc}
    __sbrk_heap_end = &_end;
 80025f6:	4907      	ldr	r1, [pc, #28]	@ (8002614 <_sbrk+0x40>)
 80025f8:	4807      	ldr	r0, [pc, #28]	@ (8002618 <_sbrk+0x44>)
 80025fa:	6008      	str	r0, [r1, #0]
 80025fc:	e7f3      	b.n	80025e6 <_sbrk+0x12>
    errno = ENOMEM;
 80025fe:	f000 fa05 	bl	8002a0c <__errno>
 8002602:	230c      	movs	r3, #12
 8002604:	6003      	str	r3, [r0, #0]
    return (void *)-1;
 8002606:	2001      	movs	r0, #1
 8002608:	4240      	negs	r0, r0
 800260a:	e7f3      	b.n	80025f4 <_sbrk+0x20>
 800260c:	20003000 	.word	0x20003000
 8002610:	00000400 	.word	0x00000400
 8002614:	20000444 	.word	0x20000444
 8002618:	20000598 	.word	0x20000598

0800261c <SystemInit>:
  
  /* Configure the Vector Table location add offset address ------------------*/
#ifdef VECT_TAB_SRAM
  SCB->VTOR = SRAM_BASE | VECT_TAB_OFFSET; /* Vector Table Relocation in Internal SRAM */
#else
  SCB->VTOR = FLASH_BASE | VECT_TAB_OFFSET; /* Vector Table Relocation in Internal FLASH */
 800261c:	4b02      	ldr	r3, [pc, #8]	@ (8002628 <SystemInit+0xc>)
 800261e:	2280      	movs	r2, #128	@ 0x80
 8002620:	0512      	lsls	r2, r2, #20
 8002622:	609a      	str	r2, [r3, #8]
#endif
}
 8002624:	4770      	bx	lr
 8002626:	46c0      	nop			@ (mov r8, r8)
 8002628:	e000ed00 	.word	0xe000ed00

0800262c <Reset_Handler>:

  .section .text.Reset_Handler
  .weak Reset_Handler
  .type Reset_Handler, %function
Reset_Handler:
  ldr   r0, =_estack
 800262c:	480d      	ldr	r0, [pc, #52]	@ (8002664 <LoopForever+0x2>)
  mov   sp, r0          /* set stack pointer */
 800262e:	4685      	mov	sp, r0
/* Call the clock system initialization function.*/
  bl  SystemInit
 8002630:	f7ff fff4 	bl	800261c <SystemInit>

/* Copy the data segment initializers from flash to SRAM */
  movs r1, #0
 8002634:	2100      	movs	r1, #0
  b LoopCopyDataInit
 8002636:	e003      	b.n	8002640 <LoopCopyDataInit>

08002638 <CopyDataInit>:

CopyDataInit:
  ldr r3, =_sidata
 8002638:	4b0b      	ldr	r3, [pc, #44]	@ (8002668 <LoopForever+0x6>)
  ldr r3, [r3, r1]
 800263a:	585b      	ldr	r3, [r3, r1]
  str r3, [r0, r1]
 800263c:	5043      	str	r3, [r0, r1]
  adds r1, r1, #4
 800263e:	3104      	adds	r1, #4

08002640 <LoopCopyDataInit>:

LoopCopyDataInit:
  ldr r0, =_sdata
 8002640:	480a      	ldr	r0, [pc, #40]	@ (800266c <LoopForever+0xa>)
  ldr r3, =_edata
 8002642:	4b0b      	ldr	r3, [pc, #44]	@ (8002670 <LoopForever+0xe>)
  adds r2, r0, r1
 8002644:	1842      	adds	r2, r0, r1
  cmp r2, r3
 8002646:	429a      	cmp	r2, r3
  bcc CopyDataInit
 8002648:	d3f6      	bcc.n	8002638 <CopyDataInit>
  ldr r2, =_sbss
 800264a:	4a0a      	ldr	r2, [pc, #40]	@ (8002674 <LoopForever+0x12>)
  b LoopFillZerobss
 800264c:	e002      	b.n	8002654 <LoopFillZerobss>

0800264e <FillZerobss>:
/* Zero fill the bss segment. */
FillZerobss:
  movs r3, #0
 800264e:	2300      	movs	r3, #0
  str  r3, [r2]
 8002650:	6013      	str	r3, [r2, #0]
  adds r2, r2, #4
 8002652:	3204      	adds	r2, #4

08002654 <LoopFillZerobss>:


LoopFillZerobss:
  ldr r3, = _ebss
 8002654:	4b08      	ldr	r3, [pc, #32]	@ (8002678 <LoopForever+0x16>)
  cmp r2, r3
 8002656:	429a      	cmp	r2, r3
  bcc FillZerobss
 8002658:	d3f9      	bcc.n	800264e <FillZerobss>


/* Call static constructors */
  bl __libc_init_array
 800265a:	f000 f9dd 	bl	8002a18 <__libc_init_array>
/* Call the application's entry point.*/
  bl main
 800265e:	f7fe f839 	bl	80006d4 <main>

08002662 <LoopForever>:

LoopForever:
    b LoopForever
 8002662:	e7fe      	b.n	8002662 <LoopForever>
  ldr   r0, =_estack
 8002664:	20003000 	.word	0x20003000
  ldr r3, =_sidata
 8002668:	08003e74 	.word	0x08003e74
  ldr r0, =_sdata
 800266c:	20000000 	.word	0x20000000
  ldr r3, =_edata
 8002670:	20000068 	.word	0x20000068
  ldr r2, =_sbss
 8002674:	20000068 	.word	0x20000068
  ldr r3, = _ebss
 8002678:	20000594 	.word	0x20000594

0800267c <ADC1_IRQHandler>:
 * @retval : None
*/
    .section .text.Default_Handler,"ax",%progbits
Default_Handler:
Infinite_Loop:
  b Infinite_Loop
 800267c:	e7fe      	b.n	800267c <ADC1_IRQHandler>
	...

08002680 <rand>:
 8002680:	4b16      	ldr	r3, [pc, #88]	@ (80026dc <rand+0x5c>)
 8002682:	b570      	push	{r4, r5, r6, lr}
 8002684:	681d      	ldr	r5, [r3, #0]
 8002686:	6b2c      	ldr	r4, [r5, #48]	@ 0x30
 8002688:	2c00      	cmp	r4, #0
 800268a:	d117      	bne.n	80026bc <rand+0x3c>
 800268c:	2018      	movs	r0, #24
 800268e:	f000 fa53 	bl	8002b38 <malloc>
 8002692:	1e04      	subs	r4, r0, #0
 8002694:	6328      	str	r0, [r5, #48]	@ 0x30
 8002696:	d105      	bne.n	80026a4 <rand+0x24>
 8002698:	0022      	movs	r2, r4
 800269a:	2152      	movs	r1, #82	@ 0x52
 800269c:	4b10      	ldr	r3, [pc, #64]	@ (80026e0 <rand+0x60>)
 800269e:	4811      	ldr	r0, [pc, #68]	@ (80026e4 <rand+0x64>)
 80026a0:	f000 f9e2 	bl	8002a68 <__assert_func>
 80026a4:	4b10      	ldr	r3, [pc, #64]	@ (80026e8 <rand+0x68>)
 80026a6:	2201      	movs	r2, #1
 80026a8:	6003      	str	r3, [r0, #0]
 80026aa:	4b10      	ldr	r3, [pc, #64]	@ (80026ec <rand+0x6c>)
 80026ac:	6043      	str	r3, [r0, #4]
 80026ae:	4b10      	ldr	r3, [pc, #64]	@ (80026f0 <rand+0x70>)
 80026b0:	6083      	str	r3, [r0, #8]
 80026b2:	230b      	movs	r3, #11
 80026b4:	8183      	strh	r3, [r0, #12]
 80026b6:	2300      	movs	r3, #0
 80026b8:	6102      	str	r2, [r0, #16]
 80026ba:	6143      	str	r3, [r0, #20]
 80026bc:	6920      	ldr	r0, [r4, #16]
 80026be:	6961      	ldr	r1, [r4, #20]
 80026c0:	4a0c      	ldr	r2, [pc, #48]	@ (80026f4 <rand+0x74>)
 80026c2:	4b0d      	ldr	r3, [pc, #52]	@ (80026f8 <rand+0x78>)
 80026c4:	f001 f9ca 	bl	8003a5c <__aeabi_lmul>
 80026c8:	2201      	movs	r2, #1
 80026ca:	2300      	movs	r3, #0
 80026cc:	1880      	adds	r0, r0, r2
 80026ce:	4159      	adcs	r1, r3
 80026d0:	6120      	str	r0, [r4, #16]
 80026d2:	6161      	str	r1, [r4, #20]
 80026d4:	0048      	lsls	r0, r1, #1
 80026d6:	0840      	lsrs	r0, r0, #1
 80026d8:	bd70      	pop	{r4, r5, r6, pc}
 80026da:	46c0      	nop			@ (mov r8, r8)
 80026dc:	20000018 	.word	0x20000018
 80026e0:	08003d5c 	.word	0x08003d5c
 80026e4:	08003d73 	.word	0x08003d73
 80026e8:	abcd330e 	.word	0xabcd330e
 80026ec:	e66d1234 	.word	0xe66d1234
 80026f0:	0005deec 	.word	0x0005deec
 80026f4:	4c957f2d 	.word	0x4c957f2d
 80026f8:	5851f42d 	.word	0x5851f42d

080026fc <std>:
 80026fc:	2300      	movs	r3, #0
 80026fe:	b510      	push	{r4, lr}
 8002700:	0004      	movs	r4, r0
 8002702:	6003      	str	r3, [r0, #0]
 8002704:	6043      	str	r3, [r0, #4]
 8002706:	6083      	str	r3, [r0, #8]
 8002708:	8181      	strh	r1, [r0, #12]
 800270a:	6643      	str	r3, [r0, #100]	@ 0x64
 800270c:	81c2      	strh	r2, [r0, #14]
 800270e:	6103      	str	r3, [r0, #16]
 8002710:	6143      	str	r3, [r0, #20]
 8002712:	6183      	str	r3, [r0, #24]
 8002714:	0019      	movs	r1, r3
 8002716:	2208      	movs	r2, #8
 8002718:	305c      	adds	r0, #92	@ 0x5c
 800271a:	f000 f921 	bl	8002960 <memset>
 800271e:	4b0b      	ldr	r3, [pc, #44]	@ (800274c <std+0x50>)
 8002720:	6224      	str	r4, [r4, #32]
 8002722:	6263      	str	r3, [r4, #36]	@ 0x24
 8002724:	4b0a      	ldr	r3, [pc, #40]	@ (8002750 <std+0x54>)
 8002726:	62a3      	str	r3, [r4, #40]	@ 0x28
 8002728:	4b0a      	ldr	r3, [pc, #40]	@ (8002754 <std+0x58>)
 800272a:	62e3      	str	r3, [r4, #44]	@ 0x2c
 800272c:	4b0a      	ldr	r3, [pc, #40]	@ (8002758 <std+0x5c>)
 800272e:	6323      	str	r3, [r4, #48]	@ 0x30
 8002730:	4b0a      	ldr	r3, [pc, #40]	@ (800275c <std+0x60>)
 8002732:	429c      	cmp	r4, r3
 8002734:	d005      	beq.n	8002742 <std+0x46>
 8002736:	4b0a      	ldr	r3, [pc, #40]	@ (8002760 <std+0x64>)
 8002738:	429c      	cmp	r4, r3
 800273a:	d002      	beq.n	8002742 <std+0x46>
 800273c:	4b09      	ldr	r3, [pc, #36]	@ (8002764 <std+0x68>)
 800273e:	429c      	cmp	r4, r3
 8002740:	d103      	bne.n	800274a <std+0x4e>
 8002742:	0020      	movs	r0, r4
 8002744:	3058      	adds	r0, #88	@ 0x58
 8002746:	f000 f98b 	bl	8002a60 <__retarget_lock_init_recursive>
 800274a:	bd10      	pop	{r4, pc}
 800274c:	080028c9 	.word	0x080028c9
 8002750:	080028f1 	.word	0x080028f1
 8002754:	08002929 	.word	0x08002929
 8002758:	08002955 	.word	0x08002955
 800275c:	20000448 	.word	0x20000448
 8002760:	200004b0 	.word	0x200004b0
 8002764:	20000518 	.word	0x20000518

08002768 <stdio_exit_handler>:
 8002768:	b510      	push	{r4, lr}
 800276a:	4a03      	ldr	r2, [pc, #12]	@ (8002778 <stdio_exit_handler+0x10>)
 800276c:	4903      	ldr	r1, [pc, #12]	@ (800277c <stdio_exit_handler+0x14>)
 800276e:	4804      	ldr	r0, [pc, #16]	@ (8002780 <stdio_exit_handler+0x18>)
 8002770:	f000 f86c 	bl	800284c <_fwalk_sglue>
 8002774:	bd10      	pop	{r4, pc}
 8002776:	46c0      	nop			@ (mov r8, r8)
 8002778:	2000000c 	.word	0x2000000c
 800277c:	0800338d 	.word	0x0800338d
 8002780:	2000001c 	.word	0x2000001c

08002784 <cleanup_stdio>:
 8002784:	6841      	ldr	r1, [r0, #4]
 8002786:	4b0b      	ldr	r3, [pc, #44]	@ (80027b4 <cleanup_stdio+0x30>)
 8002788:	b510      	push	{r4, lr}
 800278a:	0004      	movs	r4, r0
 800278c:	4299      	cmp	r1, r3
 800278e:	d001      	beq.n	8002794 <cleanup_stdio+0x10>
 8002790:	f000 fdfc 	bl	800338c <_fflush_r>
 8002794:	68a1      	ldr	r1, [r4, #8]
 8002796:	4b08      	ldr	r3, [pc, #32]	@ (80027b8 <cleanup_stdio+0x34>)
 8002798:	4299      	cmp	r1, r3
 800279a:	d002      	beq.n	80027a2 <cleanup_stdio+0x1e>
 800279c:	0020      	movs	r0, r4
 800279e:	f000 fdf5 	bl	800338c <_fflush_r>
 80027a2:	68e1      	ldr	r1, [r4, #12]
 80027a4:	4b05      	ldr	r3, [pc, #20]	@ (80027bc <cleanup_stdio+0x38>)
 80027a6:	4299      	cmp	r1, r3
 80027a8:	d002      	beq.n	80027b0 <cleanup_stdio+0x2c>
 80027aa:	0020      	movs	r0, r4
 80027ac:	f000 fdee 	bl	800338c <_fflush_r>
 80027b0:	bd10      	pop	{r4, pc}
 80027b2:	46c0      	nop			@ (mov r8, r8)
 80027b4:	20000448 	.word	0x20000448
 80027b8:	200004b0 	.word	0x200004b0
 80027bc:	20000518 	.word	0x20000518

080027c0 <global_stdio_init.part.0>:
 80027c0:	b510      	push	{r4, lr}
 80027c2:	4b09      	ldr	r3, [pc, #36]	@ (80027e8 <global_stdio_init.part.0+0x28>)
 80027c4:	4a09      	ldr	r2, [pc, #36]	@ (80027ec <global_stdio_init.part.0+0x2c>)
 80027c6:	2104      	movs	r1, #4
 80027c8:	601a      	str	r2, [r3, #0]
 80027ca:	4809      	ldr	r0, [pc, #36]	@ (80027f0 <global_stdio_init.part.0+0x30>)
 80027cc:	2200      	movs	r2, #0
 80027ce:	f7ff ff95 	bl	80026fc <std>
 80027d2:	2201      	movs	r2, #1
 80027d4:	2109      	movs	r1, #9
 80027d6:	4807      	ldr	r0, [pc, #28]	@ (80027f4 <global_stdio_init.part.0+0x34>)
 80027d8:	f7ff ff90 	bl	80026fc <std>
 80027dc:	2202      	movs	r2, #2
 80027de:	2112      	movs	r1, #18
 80027e0:	4805      	ldr	r0, [pc, #20]	@ (80027f8 <global_stdio_init.part.0+0x38>)
 80027e2:	f7ff ff8b 	bl	80026fc <std>
 80027e6:	bd10      	pop	{r4, pc}
 80027e8:	20000580 	.word	0x20000580
 80027ec:	08002769 	.word	0x08002769
 80027f0:	20000448 	.word	0x20000448
 80027f4:	200004b0 	.word	0x200004b0
 80027f8:	20000518 	.word	0x20000518

080027fc <__sfp_lock_acquire>:
 80027fc:	b510      	push	{r4, lr}
 80027fe:	4802      	ldr	r0, [pc, #8]	@ (8002808 <__sfp_lock_acquire+0xc>)
 8002800:	f000 f92f 	bl	8002a62 <__retarget_lock_acquire_recursive>
 8002804:	bd10      	pop	{r4, pc}
 8002806:	46c0      	nop			@ (mov r8, r8)
 8002808:	20000589 	.word	0x20000589

0800280c <__sfp_lock_release>:
 800280c:	b510      	push	{r4, lr}
 800280e:	4802      	ldr	r0, [pc, #8]	@ (8002818 <__sfp_lock_release+0xc>)
 8002810:	f000 f928 	bl	8002a64 <__retarget_lock_release_recursive>
 8002814:	bd10      	pop	{r4, pc}
 8002816:	46c0      	nop			@ (mov r8, r8)
 8002818:	20000589 	.word	0x20000589

0800281c <__sinit>:
 800281c:	b510      	push	{r4, lr}
 800281e:	0004      	movs	r4, r0
 8002820:	f7ff ffec 	bl	80027fc <__sfp_lock_acquire>
 8002824:	6a23      	ldr	r3, [r4, #32]
 8002826:	2b00      	cmp	r3, #0
 8002828:	d002      	beq.n	8002830 <__sinit+0x14>
 800282a:	f7ff ffef 	bl	800280c <__sfp_lock_release>
 800282e:	bd10      	pop	{r4, pc}
 8002830:	4b04      	ldr	r3, [pc, #16]	@ (8002844 <__sinit+0x28>)
 8002832:	6223      	str	r3, [r4, #32]
 8002834:	4b04      	ldr	r3, [pc, #16]	@ (8002848 <__sinit+0x2c>)
 8002836:	681b      	ldr	r3, [r3, #0]
 8002838:	2b00      	cmp	r3, #0
 800283a:	d1f6      	bne.n	800282a <__sinit+0xe>
 800283c:	f7ff ffc0 	bl	80027c0 <global_stdio_init.part.0>
 8002840:	e7f3      	b.n	800282a <__sinit+0xe>
 8002842:	46c0      	nop			@ (mov r8, r8)
 8002844:	08002785 	.word	0x08002785
 8002848:	20000580 	.word	0x20000580

0800284c <_fwalk_sglue>:
 800284c:	b5f7      	push	{r0, r1, r2, r4, r5, r6, r7, lr}
 800284e:	0014      	movs	r4, r2
 8002850:	2600      	movs	r6, #0
 8002852:	9000      	str	r0, [sp, #0]
 8002854:	9101      	str	r1, [sp, #4]
 8002856:	68a5      	ldr	r5, [r4, #8]
 8002858:	6867      	ldr	r7, [r4, #4]
 800285a:	3f01      	subs	r7, #1
 800285c:	d504      	bpl.n	8002868 <_fwalk_sglue+0x1c>
 800285e:	6824      	ldr	r4, [r4, #0]
 8002860:	2c00      	cmp	r4, #0
 8002862:	d1f8      	bne.n	8002856 <_fwalk_sglue+0xa>
 8002864:	0030      	movs	r0, r6
 8002866:	bdfe      	pop	{r1, r2, r3, r4, r5, r6, r7, pc}
 8002868:	89ab      	ldrh	r3, [r5, #12]
 800286a:	2b01      	cmp	r3, #1
 800286c:	d908      	bls.n	8002880 <_fwalk_sglue+0x34>
 800286e:	220e      	movs	r2, #14
 8002870:	5eab      	ldrsh	r3, [r5, r2]
 8002872:	3301      	adds	r3, #1
 8002874:	d004      	beq.n	8002880 <_fwalk_sglue+0x34>
 8002876:	0029      	movs	r1, r5
 8002878:	9800      	ldr	r0, [sp, #0]
 800287a:	9b01      	ldr	r3, [sp, #4]
 800287c:	4798      	blx	r3
 800287e:	4306      	orrs	r6, r0
 8002880:	3568      	adds	r5, #104	@ 0x68
 8002882:	e7ea      	b.n	800285a <_fwalk_sglue+0xe>

08002884 <siprintf>:
 8002884:	b40e      	push	{r1, r2, r3}
 8002886:	b510      	push	{r4, lr}
 8002888:	2400      	movs	r4, #0
 800288a:	b09d      	sub	sp, #116	@ 0x74
 800288c:	9002      	str	r0, [sp, #8]
 800288e:	9006      	str	r0, [sp, #24]
 8002890:	480a      	ldr	r0, [pc, #40]	@ (80028bc <siprintf+0x38>)
 8002892:	ab1f      	add	r3, sp, #124	@ 0x7c
 8002894:	9007      	str	r0, [sp, #28]
 8002896:	9004      	str	r0, [sp, #16]
 8002898:	4809      	ldr	r0, [pc, #36]	@ (80028c0 <siprintf+0x3c>)
 800289a:	cb04      	ldmia	r3!, {r2}
 800289c:	9005      	str	r0, [sp, #20]
 800289e:	4809      	ldr	r0, [pc, #36]	@ (80028c4 <siprintf+0x40>)
 80028a0:	a902      	add	r1, sp, #8
 80028a2:	6800      	ldr	r0, [r0, #0]
 80028a4:	9301      	str	r3, [sp, #4]
 80028a6:	664c      	str	r4, [r1, #100]	@ 0x64
 80028a8:	f000 fa66 	bl	8002d78 <_svfiprintf_r>
 80028ac:	9b02      	ldr	r3, [sp, #8]
 80028ae:	701c      	strb	r4, [r3, #0]
 80028b0:	b01d      	add	sp, #116	@ 0x74
 80028b2:	bc10      	pop	{r4}
 80028b4:	bc08      	pop	{r3}
 80028b6:	b003      	add	sp, #12
 80028b8:	4718      	bx	r3
 80028ba:	46c0      	nop			@ (mov r8, r8)
 80028bc:	7fffffff 	.word	0x7fffffff
 80028c0:	ffff0208 	.word	0xffff0208
 80028c4:	20000018 	.word	0x20000018

080028c8 <__sread>:
 80028c8:	b570      	push	{r4, r5, r6, lr}
 80028ca:	000c      	movs	r4, r1
 80028cc:	250e      	movs	r5, #14
 80028ce:	5f49      	ldrsh	r1, [r1, r5]
 80028d0:	f000 f874 	bl	80029bc <_read_r>
 80028d4:	2800      	cmp	r0, #0
 80028d6:	db03      	blt.n	80028e0 <__sread+0x18>
 80028d8:	6d63      	ldr	r3, [r4, #84]	@ 0x54
 80028da:	181b      	adds	r3, r3, r0
 80028dc:	6563      	str	r3, [r4, #84]	@ 0x54
 80028de:	bd70      	pop	{r4, r5, r6, pc}
 80028e0:	89a3      	ldrh	r3, [r4, #12]
 80028e2:	4a02      	ldr	r2, [pc, #8]	@ (80028ec <__sread+0x24>)
 80028e4:	4013      	ands	r3, r2
 80028e6:	81a3      	strh	r3, [r4, #12]
 80028e8:	e7f9      	b.n	80028de <__sread+0x16>
 80028ea:	46c0      	nop			@ (mov r8, r8)
 80028ec:	ffffefff 	.word	0xffffefff

080028f0 <__swrite>:
 80028f0:	b5f8      	push	{r3, r4, r5, r6, r7, lr}
 80028f2:	001f      	movs	r7, r3
 80028f4:	898b      	ldrh	r3, [r1, #12]
 80028f6:	0005      	movs	r5, r0
 80028f8:	000c      	movs	r4, r1
 80028fa:	0016      	movs	r6, r2
 80028fc:	05db      	lsls	r3, r3, #23
 80028fe:	d505      	bpl.n	800290c <__swrite+0x1c>
 8002900:	230e      	movs	r3, #14
 8002902:	5ec9      	ldrsh	r1, [r1, r3]
 8002904:	2200      	movs	r2, #0
 8002906:	2302      	movs	r3, #2
 8002908:	f000 f844 	bl	8002994 <_lseek_r>
 800290c:	89a3      	ldrh	r3, [r4, #12]
 800290e:	4a05      	ldr	r2, [pc, #20]	@ (8002924 <__swrite+0x34>)
 8002910:	0028      	movs	r0, r5
 8002912:	4013      	ands	r3, r2
 8002914:	81a3      	strh	r3, [r4, #12]
 8002916:	0032      	movs	r2, r6
 8002918:	230e      	movs	r3, #14
 800291a:	5ee1      	ldrsh	r1, [r4, r3]
 800291c:	003b      	movs	r3, r7
 800291e:	f000 f861 	bl	80029e4 <_write_r>
 8002922:	bdf8      	pop	{r3, r4, r5, r6, r7, pc}
 8002924:	ffffefff 	.word	0xffffefff

08002928 <__sseek>:
 8002928:	b570      	push	{r4, r5, r6, lr}
 800292a:	000c      	movs	r4, r1
 800292c:	250e      	movs	r5, #14
 800292e:	5f49      	ldrsh	r1, [r1, r5]
 8002930:	f000 f830 	bl	8002994 <_lseek_r>
 8002934:	220c      	movs	r2, #12
 8002936:	5ea3      	ldrsh	r3, [r4, r2]
 8002938:	1c42      	adds	r2, r0, #1
 800293a:	d103      	bne.n	8002944 <__sseek+0x1c>
 800293c:	4a04      	ldr	r2, [pc, #16]	@ (8002950 <__sseek+0x28>)
 800293e:	4013      	ands	r3, r2
 8002940:	81a3      	strh	r3, [r4, #12]
 8002942:	bd70      	pop	{r4, r5, r6, pc}
 8002944:	2280      	movs	r2, #128	@ 0x80
 8002946:	0152      	lsls	r2, r2, #5
 8002948:	4313      	orrs	r3, r2
 800294a:	81a3      	strh	r3, [r4, #12]
 800294c:	6560      	str	r0, [r4, #84]	@ 0x54
 800294e:	e7f8      	b.n	8002942 <__sseek+0x1a>
 8002950:	ffffefff 	.word	0xffffefff

08002954 <__sclose>:
 8002954:	b510      	push	{r4, lr}
 8002956:	230e      	movs	r3, #14
 8002958:	5ec9      	ldrsh	r1, [r1, r3]
 800295a:	f000 f809 	bl	8002970 <_close_r>
 800295e:	bd10      	pop	{r4, pc}

08002960 <memset>:
 8002960:	0003      	movs	r3, r0
 8002962:	1882      	adds	r2, r0, r2
 8002964:	4293      	cmp	r3, r2
 8002966:	d100      	bne.n	800296a <memset+0xa>
 8002968:	4770      	bx	lr
 800296a:	7019      	strb	r1, [r3, #0]
 800296c:	3301      	adds	r3, #1
 800296e:	e7f9      	b.n	8002964 <memset+0x4>

08002970 <_close_r>:
 8002970:	2300      	movs	r3, #0
 8002972:	b570      	push	{r4, r5, r6, lr}
 8002974:	4d06      	ldr	r5, [pc, #24]	@ (8002990 <_close_r+0x20>)
 8002976:	0004      	movs	r4, r0
 8002978:	0008      	movs	r0, r1
 800297a:	602b      	str	r3, [r5, #0]
 800297c:	f7ff fe1d 	bl	80025ba <_close>
 8002980:	1c43      	adds	r3, r0, #1
 8002982:	d103      	bne.n	800298c <_close_r+0x1c>
 8002984:	682b      	ldr	r3, [r5, #0]
 8002986:	2b00      	cmp	r3, #0
 8002988:	d000      	beq.n	800298c <_close_r+0x1c>
 800298a:	6023      	str	r3, [r4, #0]
 800298c:	bd70      	pop	{r4, r5, r6, pc}
 800298e:	46c0      	nop			@ (mov r8, r8)
 8002990:	20000584 	.word	0x20000584

08002994 <_lseek_r>:
 8002994:	b570      	push	{r4, r5, r6, lr}
 8002996:	0004      	movs	r4, r0
 8002998:	0008      	movs	r0, r1
 800299a:	0011      	movs	r1, r2
 800299c:	001a      	movs	r2, r3
 800299e:	2300      	movs	r3, #0
 80029a0:	4d05      	ldr	r5, [pc, #20]	@ (80029b8 <_lseek_r+0x24>)
 80029a2:	602b      	str	r3, [r5, #0]
 80029a4:	f7ff fe13 	bl	80025ce <_lseek>
 80029a8:	1c43      	adds	r3, r0, #1
 80029aa:	d103      	bne.n	80029b4 <_lseek_r+0x20>
 80029ac:	682b      	ldr	r3, [r5, #0]
 80029ae:	2b00      	cmp	r3, #0
 80029b0:	d000      	beq.n	80029b4 <_lseek_r+0x20>
 80029b2:	6023      	str	r3, [r4, #0]
 80029b4:	bd70      	pop	{r4, r5, r6, pc}
 80029b6:	46c0      	nop			@ (mov r8, r8)
 80029b8:	20000584 	.word	0x20000584

080029bc <_read_r>:
 80029bc:	b570      	push	{r4, r5, r6, lr}
 80029be:	0004      	movs	r4, r0
 80029c0:	0008      	movs	r0, r1
 80029c2:	0011      	movs	r1, r2
 80029c4:	001a      	movs	r2, r3
 80029c6:	2300      	movs	r3, #0
 80029c8:	4d05      	ldr	r5, [pc, #20]	@ (80029e0 <_read_r+0x24>)
 80029ca:	602b      	str	r3, [r5, #0]
 80029cc:	f7ff fdd9 	bl	8002582 <_read>
 80029d0:	1c43      	adds	r3, r0, #1
 80029d2:	d103      	bne.n	80029dc <_read_r+0x20>
 80029d4:	682b      	ldr	r3, [r5, #0]
 80029d6:	2b00      	cmp	r3, #0
 80029d8:	d000      	beq.n	80029dc <_read_r+0x20>
 80029da:	6023      	str	r3, [r4, #0]
 80029dc:	bd70      	pop	{r4, r5, r6, pc}
 80029de:	46c0      	nop			@ (mov r8, r8)
 80029e0:	20000584 	.word	0x20000584

080029e4 <_write_r>:
 80029e4:	b570      	push	{r4, r5, r6, lr}
 80029e6:	0004      	movs	r4, r0
 80029e8:	0008      	movs	r0, r1
 80029ea:	0011      	movs	r1, r2
 80029ec:	001a      	movs	r2, r3
 80029ee:	2300      	movs	r3, #0
 80029f0:	4d05      	ldr	r5, [pc, #20]	@ (8002a08 <_write_r+0x24>)
 80029f2:	602b      	str	r3, [r5, #0]
 80029f4:	f7ff fdd3 	bl	800259e <_write>
 80029f8:	1c43      	adds	r3, r0, #1
 80029fa:	d103      	bne.n	8002a04 <_write_r+0x20>
 80029fc:	682b      	ldr	r3, [r5, #0]
 80029fe:	2b00      	cmp	r3, #0
 8002a00:	d000      	beq.n	8002a04 <_write_r+0x20>
 8002a02:	6023      	str	r3, [r4, #0]
 8002a04:	bd70      	pop	{r4, r5, r6, pc}
 8002a06:	46c0      	nop			@ (mov r8, r8)
 8002a08:	20000584 	.word	0x20000584

08002a0c <__errno>:
 8002a0c:	4b01      	ldr	r3, [pc, #4]	@ (8002a14 <__errno+0x8>)
 8002a0e:	6818      	ldr	r0, [r3, #0]
 8002a10:	4770      	bx	lr
 8002a12:	46c0      	nop			@ (mov r8, r8)
 8002a14:	20000018 	.word	0x20000018

08002a18 <__libc_init_array>:
 8002a18:	b570      	push	{r4, r5, r6, lr}
 8002a1a:	2600      	movs	r6, #0
 8002a1c:	4c0c      	ldr	r4, [pc, #48]	@ (8002a50 <__libc_init_array+0x38>)
 8002a1e:	4d0d      	ldr	r5, [pc, #52]	@ (8002a54 <__libc_init_array+0x3c>)
 8002a20:	1b64      	subs	r4, r4, r5
 8002a22:	10a4      	asrs	r4, r4, #2
 8002a24:	42a6      	cmp	r6, r4
 8002a26:	d109      	bne.n	8002a3c <__libc_init_array+0x24>
 8002a28:	2600      	movs	r6, #0
 8002a2a:	f001 f911 	bl	8003c50 <_init>
 8002a2e:	4c0a      	ldr	r4, [pc, #40]	@ (8002a58 <__libc_init_array+0x40>)
 8002a30:	4d0a      	ldr	r5, [pc, #40]	@ (8002a5c <__libc_init_array+0x44>)
 8002a32:	1b64      	subs	r4, r4, r5
 8002a34:	10a4      	asrs	r4, r4, #2
 8002a36:	42a6      	cmp	r6, r4
 8002a38:	d105      	bne.n	8002a46 <__libc_init_array+0x2e>
 8002a3a:	bd70      	pop	{r4, r5, r6, pc}
 8002a3c:	00b3      	lsls	r3, r6, #2
 8002a3e:	58eb      	ldr	r3, [r5, r3]
 8002a40:	4798      	blx	r3
 8002a42:	3601      	adds	r6, #1
 8002a44:	e7ee      	b.n	8002a24 <__libc_init_array+0xc>
 8002a46:	00b3      	lsls	r3, r6, #2
 8002a48:	58eb      	ldr	r3, [r5, r3]
 8002a4a:	4798      	blx	r3
 8002a4c:	3601      	adds	r6, #1
 8002a4e:	e7f2      	b.n	8002a36 <__libc_init_array+0x1e>
 8002a50:	08003e6c 	.word	0x08003e6c
 8002a54:	08003e6c 	.word	0x08003e6c
 8002a58:	08003e70 	.word	0x08003e70
 8002a5c:	08003e6c 	.word	0x08003e6c

08002a60 <__retarget_lock_init_recursive>:
 8002a60:	4770      	bx	lr

08002a62 <__retarget_lock_acquire_recursive>:
 8002a62:	4770      	bx	lr

08002a64 <__retarget_lock_release_recursive>:
 8002a64:	4770      	bx	lr
	...

08002a68 <__assert_func>:
 8002a68:	b57f      	push	{r0, r1, r2, r3, r4, r5, r6, lr}
 8002a6a:	0014      	movs	r4, r2
 8002a6c:	001a      	movs	r2, r3
 8002a6e:	4b09      	ldr	r3, [pc, #36]	@ (8002a94 <__assert_func+0x2c>)
 8002a70:	0005      	movs	r5, r0
 8002a72:	681b      	ldr	r3, [r3, #0]
 8002a74:	000e      	movs	r6, r1
 8002a76:	68d8      	ldr	r0, [r3, #12]
 8002a78:	4b07      	ldr	r3, [pc, #28]	@ (8002a98 <__assert_func+0x30>)
 8002a7a:	2c00      	cmp	r4, #0
 8002a7c:	d101      	bne.n	8002a82 <__assert_func+0x1a>
 8002a7e:	4b07      	ldr	r3, [pc, #28]	@ (8002a9c <__assert_func+0x34>)
 8002a80:	001c      	movs	r4, r3
 8002a82:	4907      	ldr	r1, [pc, #28]	@ (8002aa0 <__assert_func+0x38>)
 8002a84:	9301      	str	r3, [sp, #4]
 8002a86:	9402      	str	r4, [sp, #8]
 8002a88:	002b      	movs	r3, r5
 8002a8a:	9600      	str	r6, [sp, #0]
 8002a8c:	f000 fcaa 	bl	80033e4 <fiprintf>
 8002a90:	f000 fcf0 	bl	8003474 <abort>
 8002a94:	20000018 	.word	0x20000018
 8002a98:	08003df5 	.word	0x08003df5
 8002a9c:	08003e30 	.word	0x08003e30
 8002aa0:	08003e02 	.word	0x08003e02

08002aa4 <_free_r>:
 8002aa4:	b570      	push	{r4, r5, r6, lr}
 8002aa6:	0005      	movs	r5, r0
 8002aa8:	1e0c      	subs	r4, r1, #0
 8002aaa:	d010      	beq.n	8002ace <_free_r+0x2a>
 8002aac:	3c04      	subs	r4, #4
 8002aae:	6823      	ldr	r3, [r4, #0]
 8002ab0:	2b00      	cmp	r3, #0
 8002ab2:	da00      	bge.n	8002ab6 <_free_r+0x12>
 8002ab4:	18e4      	adds	r4, r4, r3
 8002ab6:	0028      	movs	r0, r5
 8002ab8:	f000 f8ea 	bl	8002c90 <__malloc_lock>
 8002abc:	4a1d      	ldr	r2, [pc, #116]	@ (8002b34 <_free_r+0x90>)
 8002abe:	6813      	ldr	r3, [r2, #0]
 8002ac0:	2b00      	cmp	r3, #0
 8002ac2:	d105      	bne.n	8002ad0 <_free_r+0x2c>
 8002ac4:	6063      	str	r3, [r4, #4]
 8002ac6:	6014      	str	r4, [r2, #0]
 8002ac8:	0028      	movs	r0, r5
 8002aca:	f000 f8e9 	bl	8002ca0 <__malloc_unlock>
 8002ace:	bd70      	pop	{r4, r5, r6, pc}
 8002ad0:	42a3      	cmp	r3, r4
 8002ad2:	d908      	bls.n	8002ae6 <_free_r+0x42>
 8002ad4:	6820      	ldr	r0, [r4, #0]
 8002ad6:	1821      	adds	r1, r4, r0
 8002ad8:	428b      	cmp	r3, r1
 8002ada:	d1f3      	bne.n	8002ac4 <_free_r+0x20>
 8002adc:	6819      	ldr	r1, [r3, #0]
 8002ade:	685b      	ldr	r3, [r3, #4]
 8002ae0:	1809      	adds	r1, r1, r0
 8002ae2:	6021      	str	r1, [r4, #0]
 8002ae4:	e7ee      	b.n	8002ac4 <_free_r+0x20>
 8002ae6:	001a      	movs	r2, r3
 8002ae8:	685b      	ldr	r3, [r3, #4]
 8002aea:	2b00      	cmp	r3, #0
 8002aec:	d001      	beq.n	8002af2 <_free_r+0x4e>
 8002aee:	42a3      	cmp	r3, r4
 8002af0:	d9f9      	bls.n	8002ae6 <_free_r+0x42>
 8002af2:	6811      	ldr	r1, [r2, #0]
 8002af4:	1850      	adds	r0, r2, r1
 8002af6:	42a0      	cmp	r0, r4
 8002af8:	d10b      	bne.n	8002b12 <_free_r+0x6e>
 8002afa:	6820      	ldr	r0, [r4, #0]
 8002afc:	1809      	adds	r1, r1, r0
 8002afe:	1850      	adds	r0, r2, r1
 8002b00:	6011      	str	r1, [r2, #0]
 8002b02:	4283      	cmp	r3, r0
 8002b04:	d1e0      	bne.n	8002ac8 <_free_r+0x24>
 8002b06:	6818      	ldr	r0, [r3, #0]
 8002b08:	685b      	ldr	r3, [r3, #4]
 8002b0a:	1841      	adds	r1, r0, r1
 8002b0c:	6011      	str	r1, [r2, #0]
 8002b0e:	6053      	str	r3, [r2, #4]
 8002b10:	e7da      	b.n	8002ac8 <_free_r+0x24>
 8002b12:	42a0      	cmp	r0, r4
 8002b14:	d902      	bls.n	8002b1c <_free_r+0x78>
 8002b16:	230c      	movs	r3, #12
 8002b18:	602b      	str	r3, [r5, #0]
 8002b1a:	e7d5      	b.n	8002ac8 <_free_r+0x24>
 8002b1c:	6820      	ldr	r0, [r4, #0]
 8002b1e:	1821      	adds	r1, r4, r0
 8002b20:	428b      	cmp	r3, r1
 8002b22:	d103      	bne.n	8002b2c <_free_r+0x88>
 8002b24:	6819      	ldr	r1, [r3, #0]
 8002b26:	685b      	ldr	r3, [r3, #4]
 8002b28:	1809      	adds	r1, r1, r0
 8002b2a:	6021      	str	r1, [r4, #0]
 8002b2c:	6063      	str	r3, [r4, #4]
 8002b2e:	6054      	str	r4, [r2, #4]
 8002b30:	e7ca      	b.n	8002ac8 <_free_r+0x24>
 8002b32:	46c0      	nop			@ (mov r8, r8)
 8002b34:	20000590 	.word	0x20000590

08002b38 <malloc>:
 8002b38:	b510      	push	{r4, lr}
 8002b3a:	4b03      	ldr	r3, [pc, #12]	@ (8002b48 <malloc+0x10>)
 8002b3c:	0001      	movs	r1, r0
 8002b3e:	6818      	ldr	r0, [r3, #0]
 8002b40:	f000 f826 	bl	8002b90 <_malloc_r>
 8002b44:	bd10      	pop	{r4, pc}
 8002b46:	46c0      	nop			@ (mov r8, r8)
 8002b48:	20000018 	.word	0x20000018

08002b4c <sbrk_aligned>:
 8002b4c:	b570      	push	{r4, r5, r6, lr}
 8002b4e:	4e0f      	ldr	r6, [pc, #60]	@ (8002b8c <sbrk_aligned+0x40>)
 8002b50:	000d      	movs	r5, r1
 8002b52:	6831      	ldr	r1, [r6, #0]
 8002b54:	0004      	movs	r4, r0
 8002b56:	2900      	cmp	r1, #0
 8002b58:	d102      	bne.n	8002b60 <sbrk_aligned+0x14>
 8002b5a:	f000 fc65 	bl	8003428 <_sbrk_r>
 8002b5e:	6030      	str	r0, [r6, #0]
 8002b60:	0029      	movs	r1, r5
 8002b62:	0020      	movs	r0, r4
 8002b64:	f000 fc60 	bl	8003428 <_sbrk_r>
 8002b68:	1c43      	adds	r3, r0, #1
 8002b6a:	d103      	bne.n	8002b74 <sbrk_aligned+0x28>
 8002b6c:	2501      	movs	r5, #1
 8002b6e:	426d      	negs	r5, r5
 8002b70:	0028      	movs	r0, r5
 8002b72:	bd70      	pop	{r4, r5, r6, pc}
 8002b74:	2303      	movs	r3, #3
 8002b76:	1cc5      	adds	r5, r0, #3
 8002b78:	439d      	bics	r5, r3
 8002b7a:	42a8      	cmp	r0, r5
 8002b7c:	d0f8      	beq.n	8002b70 <sbrk_aligned+0x24>
 8002b7e:	1a29      	subs	r1, r5, r0
 8002b80:	0020      	movs	r0, r4
 8002b82:	f000 fc51 	bl	8003428 <_sbrk_r>
 8002b86:	3001      	adds	r0, #1
 8002b88:	d1f2      	bne.n	8002b70 <sbrk_aligned+0x24>
 8002b8a:	e7ef      	b.n	8002b6c <sbrk_aligned+0x20>
 8002b8c:	2000058c 	.word	0x2000058c

08002b90 <_malloc_r>:
 8002b90:	b5f7      	push	{r0, r1, r2, r4, r5, r6, r7, lr}
 8002b92:	2203      	movs	r2, #3
 8002b94:	1ccb      	adds	r3, r1, #3
 8002b96:	4393      	bics	r3, r2
 8002b98:	3308      	adds	r3, #8
 8002b9a:	0005      	movs	r5, r0
 8002b9c:	001f      	movs	r7, r3
 8002b9e:	2b0c      	cmp	r3, #12
 8002ba0:	d234      	bcs.n	8002c0c <_malloc_r+0x7c>
 8002ba2:	270c      	movs	r7, #12
 8002ba4:	42b9      	cmp	r1, r7
 8002ba6:	d833      	bhi.n	8002c10 <_malloc_r+0x80>
 8002ba8:	0028      	movs	r0, r5
 8002baa:	f000 f871 	bl	8002c90 <__malloc_lock>
 8002bae:	4e37      	ldr	r6, [pc, #220]	@ (8002c8c <_malloc_r+0xfc>)
 8002bb0:	6833      	ldr	r3, [r6, #0]
 8002bb2:	001c      	movs	r4, r3
 8002bb4:	2c00      	cmp	r4, #0
 8002bb6:	d12f      	bne.n	8002c18 <_malloc_r+0x88>
 8002bb8:	0039      	movs	r1, r7
 8002bba:	0028      	movs	r0, r5
 8002bbc:	f7ff ffc6 	bl	8002b4c <sbrk_aligned>
 8002bc0:	0004      	movs	r4, r0
 8002bc2:	1c43      	adds	r3, r0, #1
 8002bc4:	d15f      	bne.n	8002c86 <_malloc_r+0xf6>
 8002bc6:	6834      	ldr	r4, [r6, #0]
 8002bc8:	9400      	str	r4, [sp, #0]
 8002bca:	9b00      	ldr	r3, [sp, #0]
 8002bcc:	2b00      	cmp	r3, #0
 8002bce:	d14a      	bne.n	8002c66 <_malloc_r+0xd6>
 8002bd0:	2c00      	cmp	r4, #0
 8002bd2:	d052      	beq.n	8002c7a <_malloc_r+0xea>
 8002bd4:	6823      	ldr	r3, [r4, #0]
 8002bd6:	0028      	movs	r0, r5
 8002bd8:	18e3      	adds	r3, r4, r3
 8002bda:	9900      	ldr	r1, [sp, #0]
 8002bdc:	9301      	str	r3, [sp, #4]
 8002bde:	f000 fc23 	bl	8003428 <_sbrk_r>
 8002be2:	9b01      	ldr	r3, [sp, #4]
 8002be4:	4283      	cmp	r3, r0
 8002be6:	d148      	bne.n	8002c7a <_malloc_r+0xea>
 8002be8:	6823      	ldr	r3, [r4, #0]
 8002bea:	0028      	movs	r0, r5
 8002bec:	1aff      	subs	r7, r7, r3
 8002bee:	0039      	movs	r1, r7
 8002bf0:	f7ff ffac 	bl	8002b4c <sbrk_aligned>
 8002bf4:	3001      	adds	r0, #1
 8002bf6:	d040      	beq.n	8002c7a <_malloc_r+0xea>
 8002bf8:	6823      	ldr	r3, [r4, #0]
 8002bfa:	19db      	adds	r3, r3, r7
 8002bfc:	6023      	str	r3, [r4, #0]
 8002bfe:	6833      	ldr	r3, [r6, #0]
 8002c00:	685a      	ldr	r2, [r3, #4]
 8002c02:	2a00      	cmp	r2, #0
 8002c04:	d133      	bne.n	8002c6e <_malloc_r+0xde>
 8002c06:	9b00      	ldr	r3, [sp, #0]
 8002c08:	6033      	str	r3, [r6, #0]
 8002c0a:	e019      	b.n	8002c40 <_malloc_r+0xb0>
 8002c0c:	2b00      	cmp	r3, #0
 8002c0e:	dac9      	bge.n	8002ba4 <_malloc_r+0x14>
 8002c10:	230c      	movs	r3, #12
 8002c12:	602b      	str	r3, [r5, #0]
 8002c14:	2000      	movs	r0, #0
 8002c16:	bdfe      	pop	{r1, r2, r3, r4, r5, r6, r7, pc}
 8002c18:	6821      	ldr	r1, [r4, #0]
 8002c1a:	1bc9      	subs	r1, r1, r7
 8002c1c:	d420      	bmi.n	8002c60 <_malloc_r+0xd0>
 8002c1e:	290b      	cmp	r1, #11
 8002c20:	d90a      	bls.n	8002c38 <_malloc_r+0xa8>
 8002c22:	19e2      	adds	r2, r4, r7
 8002c24:	6027      	str	r7, [r4, #0]
 8002c26:	42a3      	cmp	r3, r4
 8002c28:	d104      	bne.n	8002c34 <_malloc_r+0xa4>
 8002c2a:	6032      	str	r2, [r6, #0]
 8002c2c:	6863      	ldr	r3, [r4, #4]
 8002c2e:	6011      	str	r1, [r2, #0]
 8002c30:	6053      	str	r3, [r2, #4]
 8002c32:	e005      	b.n	8002c40 <_malloc_r+0xb0>
 8002c34:	605a      	str	r2, [r3, #4]
 8002c36:	e7f9      	b.n	8002c2c <_malloc_r+0x9c>
 8002c38:	6862      	ldr	r2, [r4, #4]
 8002c3a:	42a3      	cmp	r3, r4
 8002c3c:	d10e      	bne.n	8002c5c <_malloc_r+0xcc>
 8002c3e:	6032      	str	r2, [r6, #0]
 8002c40:	0028      	movs	r0, r5
 8002c42:	f000 f82d 	bl	8002ca0 <__malloc_unlock>
 8002c46:	0020      	movs	r0, r4
 8002c48:	2207      	movs	r2, #7
 8002c4a:	300b      	adds	r0, #11
 8002c4c:	1d23      	adds	r3, r4, #4
 8002c4e:	4390      	bics	r0, r2
 8002c50:	1ac2      	subs	r2, r0, r3
 8002c52:	4298      	cmp	r0, r3
 8002c54:	d0df      	beq.n	8002c16 <_malloc_r+0x86>
 8002c56:	1a1b      	subs	r3, r3, r0
 8002c58:	50a3      	str	r3, [r4, r2]
 8002c5a:	e7dc      	b.n	8002c16 <_malloc_r+0x86>
 8002c5c:	605a      	str	r2, [r3, #4]
 8002c5e:	e7ef      	b.n	8002c40 <_malloc_r+0xb0>
 8002c60:	0023      	movs	r3, r4
 8002c62:	6864      	ldr	r4, [r4, #4]
 8002c64:	e7a6      	b.n	8002bb4 <_malloc_r+0x24>
 8002c66:	9c00      	ldr	r4, [sp, #0]
 8002c68:	6863      	ldr	r3, [r4, #4]
 8002c6a:	9300      	str	r3, [sp, #0]
 8002c6c:	e7ad      	b.n	8002bca <_malloc_r+0x3a>
 8002c6e:	001a      	movs	r2, r3
 8002c70:	685b      	ldr	r3, [r3, #4]
 8002c72:	42a3      	cmp	r3, r4
 8002c74:	d1fb      	bne.n	8002c6e <_malloc_r+0xde>
 8002c76:	2300      	movs	r3, #0
 8002c78:	e7da      	b.n	8002c30 <_malloc_r+0xa0>
 8002c7a:	230c      	movs	r3, #12
 8002c7c:	0028      	movs	r0, r5
 8002c7e:	602b      	str	r3, [r5, #0]
 8002c80:	f000 f80e 	bl	8002ca0 <__malloc_unlock>
 8002c84:	e7c6      	b.n	8002c14 <_malloc_r+0x84>
 8002c86:	6007      	str	r7, [r0, #0]
 8002c88:	e7da      	b.n	8002c40 <_malloc_r+0xb0>
 8002c8a:	46c0      	nop			@ (mov r8, r8)
 8002c8c:	20000590 	.word	0x20000590

08002c90 <__malloc_lock>:
 8002c90:	b510      	push	{r4, lr}
 8002c92:	4802      	ldr	r0, [pc, #8]	@ (8002c9c <__malloc_lock+0xc>)
 8002c94:	f7ff fee5 	bl	8002a62 <__retarget_lock_acquire_recursive>
 8002c98:	bd10      	pop	{r4, pc}
 8002c9a:	46c0      	nop			@ (mov r8, r8)
 8002c9c:	20000588 	.word	0x20000588

08002ca0 <__malloc_unlock>:
 8002ca0:	b510      	push	{r4, lr}
 8002ca2:	4802      	ldr	r0, [pc, #8]	@ (8002cac <__malloc_unlock+0xc>)
 8002ca4:	f7ff fede 	bl	8002a64 <__retarget_lock_release_recursive>
 8002ca8:	bd10      	pop	{r4, pc}
 8002caa:	46c0      	nop			@ (mov r8, r8)
 8002cac:	20000588 	.word	0x20000588

08002cb0 <__ssputs_r>:
 8002cb0:	b5f0      	push	{r4, r5, r6, r7, lr}
 8002cb2:	688e      	ldr	r6, [r1, #8]
 8002cb4:	b085      	sub	sp, #20
 8002cb6:	001f      	movs	r7, r3
 8002cb8:	000c      	movs	r4, r1
 8002cba:	0033      	movs	r3, r6
 8002cbc:	9002      	str	r0, [sp, #8]
 8002cbe:	9203      	str	r2, [sp, #12]
 8002cc0:	42be      	cmp	r6, r7
 8002cc2:	d854      	bhi.n	8002d6e <__ssputs_r+0xbe>
 8002cc4:	220c      	movs	r2, #12
 8002cc6:	5e88      	ldrsh	r0, [r1, r2]
 8002cc8:	2290      	movs	r2, #144	@ 0x90
 8002cca:	00d2      	lsls	r2, r2, #3
 8002ccc:	4210      	tst	r0, r2
 8002cce:	d02c      	beq.n	8002d2a <__ssputs_r+0x7a>
 8002cd0:	2203      	movs	r2, #3
 8002cd2:	6909      	ldr	r1, [r1, #16]
 8002cd4:	6823      	ldr	r3, [r4, #0]
 8002cd6:	1a5b      	subs	r3, r3, r1
 8002cd8:	9301      	str	r3, [sp, #4]
 8002cda:	6963      	ldr	r3, [r4, #20]
 8002cdc:	4353      	muls	r3, r2
 8002cde:	9a01      	ldr	r2, [sp, #4]
 8002ce0:	0fdd      	lsrs	r5, r3, #31
 8002ce2:	18ed      	adds	r5, r5, r3
 8002ce4:	1c7b      	adds	r3, r7, #1
 8002ce6:	106d      	asrs	r5, r5, #1
 8002ce8:	189b      	adds	r3, r3, r2
 8002cea:	002a      	movs	r2, r5
 8002cec:	42ab      	cmp	r3, r5
 8002cee:	d901      	bls.n	8002cf4 <__ssputs_r+0x44>
 8002cf0:	001d      	movs	r5, r3
 8002cf2:	001a      	movs	r2, r3
 8002cf4:	0540      	lsls	r0, r0, #21
 8002cf6:	d527      	bpl.n	8002d48 <__ssputs_r+0x98>
 8002cf8:	0011      	movs	r1, r2
 8002cfa:	9802      	ldr	r0, [sp, #8]
 8002cfc:	f7ff ff48 	bl	8002b90 <_malloc_r>
 8002d00:	1e06      	subs	r6, r0, #0
 8002d02:	d02a      	beq.n	8002d5a <__ssputs_r+0xaa>
 8002d04:	9a01      	ldr	r2, [sp, #4]
 8002d06:	6921      	ldr	r1, [r4, #16]
 8002d08:	f000 fbab 	bl	8003462 <memcpy>
 8002d0c:	89a2      	ldrh	r2, [r4, #12]
 8002d0e:	4b19      	ldr	r3, [pc, #100]	@ (8002d74 <__ssputs_r+0xc4>)
 8002d10:	401a      	ands	r2, r3
 8002d12:	2380      	movs	r3, #128	@ 0x80
 8002d14:	4313      	orrs	r3, r2
 8002d16:	81a3      	strh	r3, [r4, #12]
 8002d18:	9b01      	ldr	r3, [sp, #4]
 8002d1a:	6126      	str	r6, [r4, #16]
 8002d1c:	18f6      	adds	r6, r6, r3
 8002d1e:	6026      	str	r6, [r4, #0]
 8002d20:	6165      	str	r5, [r4, #20]
 8002d22:	003e      	movs	r6, r7
 8002d24:	1aed      	subs	r5, r5, r3
 8002d26:	003b      	movs	r3, r7
 8002d28:	60a5      	str	r5, [r4, #8]
 8002d2a:	001f      	movs	r7, r3
 8002d2c:	003a      	movs	r2, r7
 8002d2e:	9903      	ldr	r1, [sp, #12]
 8002d30:	6820      	ldr	r0, [r4, #0]
 8002d32:	f000 fb67 	bl	8003404 <memmove>
 8002d36:	2000      	movs	r0, #0
 8002d38:	68a3      	ldr	r3, [r4, #8]
 8002d3a:	1b9b      	subs	r3, r3, r6
 8002d3c:	60a3      	str	r3, [r4, #8]
 8002d3e:	6823      	ldr	r3, [r4, #0]
 8002d40:	19db      	adds	r3, r3, r7
 8002d42:	6023      	str	r3, [r4, #0]
 8002d44:	b005      	add	sp, #20
 8002d46:	bdf0      	pop	{r4, r5, r6, r7, pc}
 8002d48:	9802      	ldr	r0, [sp, #8]
 8002d4a:	f000 fb9a 	bl	8003482 <_realloc_r>
 8002d4e:	1e06      	subs	r6, r0, #0
 8002d50:	d1e2      	bne.n	8002d18 <__ssputs_r+0x68>
 8002d52:	6921      	ldr	r1, [r4, #16]
 8002d54:	9802      	ldr	r0, [sp, #8]
 8002d56:	f7ff fea5 	bl	8002aa4 <_free_r>
 8002d5a:	230c      	movs	r3, #12
 8002d5c:	2001      	movs	r0, #1
 8002d5e:	9a02      	ldr	r2, [sp, #8]
 8002d60:	4240      	negs	r0, r0
 8002d62:	6013      	str	r3, [r2, #0]
 8002d64:	89a2      	ldrh	r2, [r4, #12]
 8002d66:	3334      	adds	r3, #52	@ 0x34
 8002d68:	4313      	orrs	r3, r2
 8002d6a:	81a3      	strh	r3, [r4, #12]
 8002d6c:	e7ea      	b.n	8002d44 <__ssputs_r+0x94>
 8002d6e:	003e      	movs	r6, r7
 8002d70:	e7dc      	b.n	8002d2c <__ssputs_r+0x7c>
 8002d72:	46c0      	nop			@ (mov r8, r8)
 8002d74:	fffffb7f 	.word	0xfffffb7f

08002d78 <_svfiprintf_r>:
 8002d78:	b5f0      	push	{r4, r5, r6, r7, lr}
 8002d7a:	b09f      	sub	sp, #124	@ 0x7c
 8002d7c:	9002      	str	r0, [sp, #8]
 8002d7e:	001c      	movs	r4, r3
 8002d80:	898b      	ldrh	r3, [r1, #12]
 8002d82:	000e      	movs	r6, r1
 8002d84:	0015      	movs	r5, r2
 8002d86:	061b      	lsls	r3, r3, #24
 8002d88:	d511      	bpl.n	8002dae <_svfiprintf_r+0x36>
 8002d8a:	690b      	ldr	r3, [r1, #16]
 8002d8c:	2b00      	cmp	r3, #0
 8002d8e:	d10e      	bne.n	8002dae <_svfiprintf_r+0x36>
 8002d90:	2140      	movs	r1, #64	@ 0x40
 8002d92:	f7ff fefd 	bl	8002b90 <_malloc_r>
 8002d96:	6030      	str	r0, [r6, #0]
 8002d98:	6130      	str	r0, [r6, #16]
 8002d9a:	2800      	cmp	r0, #0
 8002d9c:	d105      	bne.n	8002daa <_svfiprintf_r+0x32>
 8002d9e:	230c      	movs	r3, #12
 8002da0:	9a02      	ldr	r2, [sp, #8]
 8002da2:	6013      	str	r3, [r2, #0]
 8002da4:	2001      	movs	r0, #1
 8002da6:	4240      	negs	r0, r0
 8002da8:	e0d4      	b.n	8002f54 <_svfiprintf_r+0x1dc>
 8002daa:	2340      	movs	r3, #64	@ 0x40
 8002dac:	6173      	str	r3, [r6, #20]
 8002dae:	2300      	movs	r3, #0
 8002db0:	2129      	movs	r1, #41	@ 0x29
 8002db2:	aa02      	add	r2, sp, #8
 8002db4:	1852      	adds	r2, r2, r1
 8002db6:	930b      	str	r3, [sp, #44]	@ 0x2c
 8002db8:	3320      	adds	r3, #32
 8002dba:	7013      	strb	r3, [r2, #0]
 8002dbc:	3101      	adds	r1, #1
 8002dbe:	aa02      	add	r2, sp, #8
 8002dc0:	3310      	adds	r3, #16
 8002dc2:	1852      	adds	r2, r2, r1
 8002dc4:	7013      	strb	r3, [r2, #0]
 8002dc6:	9405      	str	r4, [sp, #20]
 8002dc8:	002c      	movs	r4, r5
 8002dca:	7823      	ldrb	r3, [r4, #0]
 8002dcc:	2b00      	cmp	r3, #0
 8002dce:	d001      	beq.n	8002dd4 <_svfiprintf_r+0x5c>
 8002dd0:	2b25      	cmp	r3, #37	@ 0x25
 8002dd2:	d148      	bne.n	8002e66 <_svfiprintf_r+0xee>
 8002dd4:	1b67      	subs	r7, r4, r5
 8002dd6:	42ac      	cmp	r4, r5
 8002dd8:	d00b      	beq.n	8002df2 <_svfiprintf_r+0x7a>
 8002dda:	003b      	movs	r3, r7
 8002ddc:	002a      	movs	r2, r5
 8002dde:	0031      	movs	r1, r6
 8002de0:	9802      	ldr	r0, [sp, #8]
 8002de2:	f7ff ff65 	bl	8002cb0 <__ssputs_r>
 8002de6:	3001      	adds	r0, #1
 8002de8:	d100      	bne.n	8002dec <_svfiprintf_r+0x74>
 8002dea:	e0ae      	b.n	8002f4a <_svfiprintf_r+0x1d2>
 8002dec:	9b0b      	ldr	r3, [sp, #44]	@ 0x2c
 8002dee:	19db      	adds	r3, r3, r7
 8002df0:	930b      	str	r3, [sp, #44]	@ 0x2c
 8002df2:	7823      	ldrb	r3, [r4, #0]
 8002df4:	2b00      	cmp	r3, #0
 8002df6:	d100      	bne.n	8002dfa <_svfiprintf_r+0x82>
 8002df8:	e0a7      	b.n	8002f4a <_svfiprintf_r+0x1d2>
 8002dfa:	2201      	movs	r2, #1
 8002dfc:	2153      	movs	r1, #83	@ 0x53
 8002dfe:	2300      	movs	r3, #0
 8002e00:	4252      	negs	r2, r2
 8002e02:	9207      	str	r2, [sp, #28]
 8002e04:	aa02      	add	r2, sp, #8
 8002e06:	1852      	adds	r2, r2, r1
 8002e08:	1c65      	adds	r5, r4, #1
 8002e0a:	9306      	str	r3, [sp, #24]
 8002e0c:	9309      	str	r3, [sp, #36]	@ 0x24
 8002e0e:	9308      	str	r3, [sp, #32]
 8002e10:	7013      	strb	r3, [r2, #0]
 8002e12:	931c      	str	r3, [sp, #112]	@ 0x70
 8002e14:	4f55      	ldr	r7, [pc, #340]	@ (8002f6c <_svfiprintf_r+0x1f4>)
 8002e16:	7829      	ldrb	r1, [r5, #0]
 8002e18:	2205      	movs	r2, #5
 8002e1a:	0038      	movs	r0, r7
 8002e1c:	f000 fb16 	bl	800344c <memchr>
 8002e20:	1c6c      	adds	r4, r5, #1
 8002e22:	9906      	ldr	r1, [sp, #24]
 8002e24:	ab06      	add	r3, sp, #24
 8002e26:	2800      	cmp	r0, #0
 8002e28:	d11f      	bne.n	8002e6a <_svfiprintf_r+0xf2>
 8002e2a:	06ca      	lsls	r2, r1, #27
 8002e2c:	d504      	bpl.n	8002e38 <_svfiprintf_r+0xc0>
 8002e2e:	2753      	movs	r7, #83	@ 0x53
 8002e30:	2220      	movs	r2, #32
 8002e32:	a802      	add	r0, sp, #8
 8002e34:	19c0      	adds	r0, r0, r7
 8002e36:	7002      	strb	r2, [r0, #0]
 8002e38:	070a      	lsls	r2, r1, #28
 8002e3a:	d504      	bpl.n	8002e46 <_svfiprintf_r+0xce>
 8002e3c:	2753      	movs	r7, #83	@ 0x53
 8002e3e:	222b      	movs	r2, #43	@ 0x2b
 8002e40:	a802      	add	r0, sp, #8
 8002e42:	19c0      	adds	r0, r0, r7
 8002e44:	7002      	strb	r2, [r0, #0]
 8002e46:	782a      	ldrb	r2, [r5, #0]
 8002e48:	2a2a      	cmp	r2, #42	@ 0x2a
 8002e4a:	d015      	beq.n	8002e78 <_svfiprintf_r+0x100>
 8002e4c:	002c      	movs	r4, r5
 8002e4e:	2000      	movs	r0, #0
 8002e50:	270a      	movs	r7, #10
 8002e52:	68da      	ldr	r2, [r3, #12]
 8002e54:	7821      	ldrb	r1, [r4, #0]
 8002e56:	1c65      	adds	r5, r4, #1
 8002e58:	3930      	subs	r1, #48	@ 0x30
 8002e5a:	2909      	cmp	r1, #9
 8002e5c:	d950      	bls.n	8002f00 <_svfiprintf_r+0x188>
 8002e5e:	2800      	cmp	r0, #0
 8002e60:	d011      	beq.n	8002e86 <_svfiprintf_r+0x10e>
 8002e62:	9209      	str	r2, [sp, #36]	@ 0x24
 8002e64:	e00f      	b.n	8002e86 <_svfiprintf_r+0x10e>
 8002e66:	3401      	adds	r4, #1
 8002e68:	e7af      	b.n	8002dca <_svfiprintf_r+0x52>
 8002e6a:	2301      	movs	r3, #1
 8002e6c:	1bc0      	subs	r0, r0, r7
 8002e6e:	4083      	lsls	r3, r0
 8002e70:	430b      	orrs	r3, r1
 8002e72:	0025      	movs	r5, r4
 8002e74:	9306      	str	r3, [sp, #24]
 8002e76:	e7cd      	b.n	8002e14 <_svfiprintf_r+0x9c>
 8002e78:	9a05      	ldr	r2, [sp, #20]
 8002e7a:	1d10      	adds	r0, r2, #4
 8002e7c:	6812      	ldr	r2, [r2, #0]
 8002e7e:	9005      	str	r0, [sp, #20]
 8002e80:	2a00      	cmp	r2, #0
 8002e82:	db37      	blt.n	8002ef4 <_svfiprintf_r+0x17c>
 8002e84:	60da      	str	r2, [r3, #12]
 8002e86:	7822      	ldrb	r2, [r4, #0]
 8002e88:	2a2e      	cmp	r2, #46	@ 0x2e
 8002e8a:	d10c      	bne.n	8002ea6 <_svfiprintf_r+0x12e>
 8002e8c:	7862      	ldrb	r2, [r4, #1]
 8002e8e:	2a2a      	cmp	r2, #42	@ 0x2a
 8002e90:	d13b      	bne.n	8002f0a <_svfiprintf_r+0x192>
 8002e92:	9a05      	ldr	r2, [sp, #20]
 8002e94:	3402      	adds	r4, #2
 8002e96:	1d11      	adds	r1, r2, #4
 8002e98:	6812      	ldr	r2, [r2, #0]
 8002e9a:	9105      	str	r1, [sp, #20]
 8002e9c:	2a00      	cmp	r2, #0
 8002e9e:	da01      	bge.n	8002ea4 <_svfiprintf_r+0x12c>
 8002ea0:	2201      	movs	r2, #1
 8002ea2:	4252      	negs	r2, r2
 8002ea4:	605a      	str	r2, [r3, #4]
 8002ea6:	4d32      	ldr	r5, [pc, #200]	@ (8002f70 <_svfiprintf_r+0x1f8>)
 8002ea8:	2203      	movs	r2, #3
 8002eaa:	0028      	movs	r0, r5
 8002eac:	7821      	ldrb	r1, [r4, #0]
 8002eae:	f000 facd 	bl	800344c <memchr>
 8002eb2:	af06      	add	r7, sp, #24
 8002eb4:	2800      	cmp	r0, #0
 8002eb6:	d006      	beq.n	8002ec6 <_svfiprintf_r+0x14e>
 8002eb8:	2340      	movs	r3, #64	@ 0x40
 8002eba:	1b40      	subs	r0, r0, r5
 8002ebc:	4083      	lsls	r3, r0
 8002ebe:	9a06      	ldr	r2, [sp, #24]
 8002ec0:	3401      	adds	r4, #1
 8002ec2:	4313      	orrs	r3, r2
 8002ec4:	9306      	str	r3, [sp, #24]
 8002ec6:	7821      	ldrb	r1, [r4, #0]
 8002ec8:	2206      	movs	r2, #6
 8002eca:	482a      	ldr	r0, [pc, #168]	@ (8002f74 <_svfiprintf_r+0x1fc>)
 8002ecc:	1c65      	adds	r5, r4, #1
 8002ece:	7639      	strb	r1, [r7, #24]
 8002ed0:	f000 fabc 	bl	800344c <memchr>
 8002ed4:	2800      	cmp	r0, #0
 8002ed6:	d03f      	beq.n	8002f58 <_svfiprintf_r+0x1e0>
 8002ed8:	4b27      	ldr	r3, [pc, #156]	@ (8002f78 <_svfiprintf_r+0x200>)
 8002eda:	2b00      	cmp	r3, #0
 8002edc:	d129      	bne.n	8002f32 <_svfiprintf_r+0x1ba>
 8002ede:	2207      	movs	r2, #7
 8002ee0:	9b05      	ldr	r3, [sp, #20]
 8002ee2:	3307      	adds	r3, #7
 8002ee4:	4393      	bics	r3, r2
 8002ee6:	3308      	adds	r3, #8
 8002ee8:	9305      	str	r3, [sp, #20]
 8002eea:	9b0b      	ldr	r3, [sp, #44]	@ 0x2c
 8002eec:	9903      	ldr	r1, [sp, #12]
 8002eee:	185b      	adds	r3, r3, r1
 8002ef0:	930b      	str	r3, [sp, #44]	@ 0x2c
 8002ef2:	e769      	b.n	8002dc8 <_svfiprintf_r+0x50>
 8002ef4:	4252      	negs	r2, r2
 8002ef6:	60da      	str	r2, [r3, #12]
 8002ef8:	2202      	movs	r2, #2
 8002efa:	430a      	orrs	r2, r1
 8002efc:	9206      	str	r2, [sp, #24]
 8002efe:	e7c2      	b.n	8002e86 <_svfiprintf_r+0x10e>
 8002f00:	437a      	muls	r2, r7
 8002f02:	002c      	movs	r4, r5
 8002f04:	2001      	movs	r0, #1
 8002f06:	1852      	adds	r2, r2, r1
 8002f08:	e7a4      	b.n	8002e54 <_svfiprintf_r+0xdc>
 8002f0a:	2200      	movs	r2, #0
 8002f0c:	200a      	movs	r0, #10
 8002f0e:	605a      	str	r2, [r3, #4]
 8002f10:	0011      	movs	r1, r2
 8002f12:	0013      	movs	r3, r2
 8002f14:	3401      	adds	r4, #1
 8002f16:	7822      	ldrb	r2, [r4, #0]
 8002f18:	1c65      	adds	r5, r4, #1
 8002f1a:	3a30      	subs	r2, #48	@ 0x30
 8002f1c:	2a09      	cmp	r2, #9
 8002f1e:	d903      	bls.n	8002f28 <_svfiprintf_r+0x1b0>
 8002f20:	2b00      	cmp	r3, #0
 8002f22:	d0c0      	beq.n	8002ea6 <_svfiprintf_r+0x12e>
 8002f24:	9107      	str	r1, [sp, #28]
 8002f26:	e7be      	b.n	8002ea6 <_svfiprintf_r+0x12e>
 8002f28:	4341      	muls	r1, r0
 8002f2a:	002c      	movs	r4, r5
 8002f2c:	2301      	movs	r3, #1
 8002f2e:	1889      	adds	r1, r1, r2
 8002f30:	e7f1      	b.n	8002f16 <_svfiprintf_r+0x19e>
 8002f32:	aa05      	add	r2, sp, #20
 8002f34:	9200      	str	r2, [sp, #0]
 8002f36:	0039      	movs	r1, r7
 8002f38:	0032      	movs	r2, r6
 8002f3a:	4b10      	ldr	r3, [pc, #64]	@ (8002f7c <_svfiprintf_r+0x204>)
 8002f3c:	9802      	ldr	r0, [sp, #8]
 8002f3e:	e000      	b.n	8002f42 <_svfiprintf_r+0x1ca>
 8002f40:	bf00      	nop
 8002f42:	9003      	str	r0, [sp, #12]
 8002f44:	9b03      	ldr	r3, [sp, #12]
 8002f46:	3301      	adds	r3, #1
 8002f48:	d1cf      	bne.n	8002eea <_svfiprintf_r+0x172>
 8002f4a:	89b3      	ldrh	r3, [r6, #12]
 8002f4c:	980b      	ldr	r0, [sp, #44]	@ 0x2c
 8002f4e:	065b      	lsls	r3, r3, #25
 8002f50:	d500      	bpl.n	8002f54 <_svfiprintf_r+0x1dc>
 8002f52:	e727      	b.n	8002da4 <_svfiprintf_r+0x2c>
 8002f54:	b01f      	add	sp, #124	@ 0x7c
 8002f56:	bdf0      	pop	{r4, r5, r6, r7, pc}
 8002f58:	aa05      	add	r2, sp, #20
 8002f5a:	9200      	str	r2, [sp, #0]
 8002f5c:	0039      	movs	r1, r7
 8002f5e:	0032      	movs	r2, r6
 8002f60:	4b06      	ldr	r3, [pc, #24]	@ (8002f7c <_svfiprintf_r+0x204>)
 8002f62:	9802      	ldr	r0, [sp, #8]
 8002f64:	f000 f87c 	bl	8003060 <_printf_i>
 8002f68:	e7eb      	b.n	8002f42 <_svfiprintf_r+0x1ca>
 8002f6a:	46c0      	nop			@ (mov r8, r8)
 8002f6c:	08003e31 	.word	0x08003e31
 8002f70:	08003e37 	.word	0x08003e37
 8002f74:	08003e3b 	.word	0x08003e3b
 8002f78:	00000000 	.word	0x00000000
 8002f7c:	08002cb1 	.word	0x08002cb1

08002f80 <_printf_common>:
 8002f80:	b5f7      	push	{r0, r1, r2, r4, r5, r6, r7, lr}
 8002f82:	0016      	movs	r6, r2
 8002f84:	9301      	str	r3, [sp, #4]
 8002f86:	688a      	ldr	r2, [r1, #8]
 8002f88:	690b      	ldr	r3, [r1, #16]
 8002f8a:	000c      	movs	r4, r1
 8002f8c:	9000      	str	r0, [sp, #0]
 8002f8e:	4293      	cmp	r3, r2
 8002f90:	da00      	bge.n	8002f94 <_printf_common+0x14>
 8002f92:	0013      	movs	r3, r2
 8002f94:	0022      	movs	r2, r4
 8002f96:	6033      	str	r3, [r6, #0]
 8002f98:	3243      	adds	r2, #67	@ 0x43
 8002f9a:	7812      	ldrb	r2, [r2, #0]
 8002f9c:	2a00      	cmp	r2, #0
 8002f9e:	d001      	beq.n	8002fa4 <_printf_common+0x24>
 8002fa0:	3301      	adds	r3, #1
 8002fa2:	6033      	str	r3, [r6, #0]
 8002fa4:	6823      	ldr	r3, [r4, #0]
 8002fa6:	069b      	lsls	r3, r3, #26
 8002fa8:	d502      	bpl.n	8002fb0 <_printf_common+0x30>
 8002faa:	6833      	ldr	r3, [r6, #0]
 8002fac:	3302      	adds	r3, #2
 8002fae:	6033      	str	r3, [r6, #0]
 8002fb0:	6822      	ldr	r2, [r4, #0]
 8002fb2:	2306      	movs	r3, #6
 8002fb4:	0015      	movs	r5, r2
 8002fb6:	401d      	ands	r5, r3
 8002fb8:	421a      	tst	r2, r3
 8002fba:	d027      	beq.n	800300c <_printf_common+0x8c>
 8002fbc:	0023      	movs	r3, r4
 8002fbe:	3343      	adds	r3, #67	@ 0x43
 8002fc0:	781b      	ldrb	r3, [r3, #0]
 8002fc2:	1e5a      	subs	r2, r3, #1
 8002fc4:	4193      	sbcs	r3, r2
 8002fc6:	6822      	ldr	r2, [r4, #0]
 8002fc8:	0692      	lsls	r2, r2, #26
 8002fca:	d430      	bmi.n	800302e <_printf_common+0xae>
 8002fcc:	0022      	movs	r2, r4
 8002fce:	9901      	ldr	r1, [sp, #4]
 8002fd0:	9800      	ldr	r0, [sp, #0]
 8002fd2:	9d08      	ldr	r5, [sp, #32]
 8002fd4:	3243      	adds	r2, #67	@ 0x43
 8002fd6:	47a8      	blx	r5
 8002fd8:	3001      	adds	r0, #1
 8002fda:	d025      	beq.n	8003028 <_printf_common+0xa8>
 8002fdc:	2206      	movs	r2, #6
 8002fde:	6823      	ldr	r3, [r4, #0]
 8002fe0:	2500      	movs	r5, #0
 8002fe2:	4013      	ands	r3, r2
 8002fe4:	2b04      	cmp	r3, #4
 8002fe6:	d105      	bne.n	8002ff4 <_printf_common+0x74>
 8002fe8:	6833      	ldr	r3, [r6, #0]
 8002fea:	68e5      	ldr	r5, [r4, #12]
 8002fec:	1aed      	subs	r5, r5, r3
 8002fee:	43eb      	mvns	r3, r5
 8002ff0:	17db      	asrs	r3, r3, #31
 8002ff2:	401d      	ands	r5, r3
 8002ff4:	68a3      	ldr	r3, [r4, #8]
 8002ff6:	6922      	ldr	r2, [r4, #16]
 8002ff8:	4293      	cmp	r3, r2
 8002ffa:	dd01      	ble.n	8003000 <_printf_common+0x80>
 8002ffc:	1a9b      	subs	r3, r3, r2
 8002ffe:	18ed      	adds	r5, r5, r3
 8003000:	2600      	movs	r6, #0
 8003002:	42b5      	cmp	r5, r6
 8003004:	d120      	bne.n	8003048 <_printf_common+0xc8>
 8003006:	2000      	movs	r0, #0
 8003008:	e010      	b.n	800302c <_printf_common+0xac>
 800300a:	3501      	adds	r5, #1
 800300c:	68e3      	ldr	r3, [r4, #12]
 800300e:	6832      	ldr	r2, [r6, #0]
 8003010:	1a9b      	subs	r3, r3, r2
 8003012:	42ab      	cmp	r3, r5
 8003014:	ddd2      	ble.n	8002fbc <_printf_common+0x3c>
 8003016:	0022      	movs	r2, r4
 8003018:	2301      	movs	r3, #1
 800301a:	9901      	ldr	r1, [sp, #4]
 800301c:	9800      	ldr	r0, [sp, #0]
 800301e:	9f08      	ldr	r7, [sp, #32]
 8003020:	3219      	adds	r2, #25
 8003022:	47b8      	blx	r7
 8003024:	3001      	adds	r0, #1
 8003026:	d1f0      	bne.n	800300a <_printf_common+0x8a>
 8003028:	2001      	movs	r0, #1
 800302a:	4240      	negs	r0, r0
 800302c:	bdfe      	pop	{r1, r2, r3, r4, r5, r6, r7, pc}
 800302e:	2030      	movs	r0, #48	@ 0x30
 8003030:	18e1      	adds	r1, r4, r3
 8003032:	3143      	adds	r1, #67	@ 0x43
 8003034:	7008      	strb	r0, [r1, #0]
 8003036:	0021      	movs	r1, r4
 8003038:	1c5a      	adds	r2, r3, #1
 800303a:	3145      	adds	r1, #69	@ 0x45
 800303c:	7809      	ldrb	r1, [r1, #0]
 800303e:	18a2      	adds	r2, r4, r2
 8003040:	3243      	adds	r2, #67	@ 0x43
 8003042:	3302      	adds	r3, #2
 8003044:	7011      	strb	r1, [r2, #0]
 8003046:	e7c1      	b.n	8002fcc <_printf_common+0x4c>
 8003048:	0022      	movs	r2, r4
 800304a:	2301      	movs	r3, #1
 800304c:	9901      	ldr	r1, [sp, #4]
 800304e:	9800      	ldr	r0, [sp, #0]
 8003050:	9f08      	ldr	r7, [sp, #32]
 8003052:	321a      	adds	r2, #26
 8003054:	47b8      	blx	r7
 8003056:	3001      	adds	r0, #1
 8003058:	d0e6      	beq.n	8003028 <_printf_common+0xa8>
 800305a:	3601      	adds	r6, #1
 800305c:	e7d1      	b.n	8003002 <_printf_common+0x82>
	...

08003060 <_printf_i>:
 8003060:	b5f0      	push	{r4, r5, r6, r7, lr}
 8003062:	b08b      	sub	sp, #44	@ 0x2c
 8003064:	9206      	str	r2, [sp, #24]
 8003066:	000a      	movs	r2, r1
 8003068:	3243      	adds	r2, #67	@ 0x43
 800306a:	9307      	str	r3, [sp, #28]
 800306c:	9005      	str	r0, [sp, #20]
 800306e:	9203      	str	r2, [sp, #12]
 8003070:	7e0a      	ldrb	r2, [r1, #24]
 8003072:	000c      	movs	r4, r1
 8003074:	9b10      	ldr	r3, [sp, #64]	@ 0x40
 8003076:	2a78      	cmp	r2, #120	@ 0x78
 8003078:	d809      	bhi.n	800308e <_printf_i+0x2e>
 800307a:	2a62      	cmp	r2, #98	@ 0x62
 800307c:	d80b      	bhi.n	8003096 <_printf_i+0x36>
 800307e:	2a00      	cmp	r2, #0
 8003080:	d100      	bne.n	8003084 <_printf_i+0x24>
 8003082:	e0ba      	b.n	80031fa <_printf_i+0x19a>
 8003084:	497a      	ldr	r1, [pc, #488]	@ (8003270 <_printf_i+0x210>)
 8003086:	9104      	str	r1, [sp, #16]
 8003088:	2a58      	cmp	r2, #88	@ 0x58
 800308a:	d100      	bne.n	800308e <_printf_i+0x2e>
 800308c:	e08e      	b.n	80031ac <_printf_i+0x14c>
 800308e:	0025      	movs	r5, r4
 8003090:	3542      	adds	r5, #66	@ 0x42
 8003092:	702a      	strb	r2, [r5, #0]
 8003094:	e022      	b.n	80030dc <_printf_i+0x7c>
 8003096:	0010      	movs	r0, r2
 8003098:	3863      	subs	r0, #99	@ 0x63
 800309a:	2815      	cmp	r0, #21
 800309c:	d8f7      	bhi.n	800308e <_printf_i+0x2e>
 800309e:	f7fd f817 	bl	80000d0 <__gnu_thumb1_case_shi>
 80030a2:	0016      	.short	0x0016
 80030a4:	fff6001f 	.word	0xfff6001f
 80030a8:	fff6fff6 	.word	0xfff6fff6
 80030ac:	001ffff6 	.word	0x001ffff6
 80030b0:	fff6fff6 	.word	0xfff6fff6
 80030b4:	fff6fff6 	.word	0xfff6fff6
 80030b8:	0036009f 	.word	0x0036009f
 80030bc:	fff6007e 	.word	0xfff6007e
 80030c0:	00b0fff6 	.word	0x00b0fff6
 80030c4:	0036fff6 	.word	0x0036fff6
 80030c8:	fff6fff6 	.word	0xfff6fff6
 80030cc:	0082      	.short	0x0082
 80030ce:	0025      	movs	r5, r4
 80030d0:	681a      	ldr	r2, [r3, #0]
 80030d2:	3542      	adds	r5, #66	@ 0x42
 80030d4:	1d11      	adds	r1, r2, #4
 80030d6:	6019      	str	r1, [r3, #0]
 80030d8:	6813      	ldr	r3, [r2, #0]
 80030da:	702b      	strb	r3, [r5, #0]
 80030dc:	2301      	movs	r3, #1
 80030de:	e09e      	b.n	800321e <_printf_i+0x1be>
 80030e0:	6818      	ldr	r0, [r3, #0]
 80030e2:	6809      	ldr	r1, [r1, #0]
 80030e4:	1d02      	adds	r2, r0, #4
 80030e6:	060d      	lsls	r5, r1, #24
 80030e8:	d50b      	bpl.n	8003102 <_printf_i+0xa2>
 80030ea:	6806      	ldr	r6, [r0, #0]
 80030ec:	601a      	str	r2, [r3, #0]
 80030ee:	2e00      	cmp	r6, #0
 80030f0:	da03      	bge.n	80030fa <_printf_i+0x9a>
 80030f2:	232d      	movs	r3, #45	@ 0x2d
 80030f4:	9a03      	ldr	r2, [sp, #12]
 80030f6:	4276      	negs	r6, r6
 80030f8:	7013      	strb	r3, [r2, #0]
 80030fa:	4b5d      	ldr	r3, [pc, #372]	@ (8003270 <_printf_i+0x210>)
 80030fc:	270a      	movs	r7, #10
 80030fe:	9304      	str	r3, [sp, #16]
 8003100:	e018      	b.n	8003134 <_printf_i+0xd4>
 8003102:	6806      	ldr	r6, [r0, #0]
 8003104:	601a      	str	r2, [r3, #0]
 8003106:	0649      	lsls	r1, r1, #25
 8003108:	d5f1      	bpl.n	80030ee <_printf_i+0x8e>
 800310a:	b236      	sxth	r6, r6
 800310c:	e7ef      	b.n	80030ee <_printf_i+0x8e>
 800310e:	6808      	ldr	r0, [r1, #0]
 8003110:	6819      	ldr	r1, [r3, #0]
 8003112:	c940      	ldmia	r1!, {r6}
 8003114:	0605      	lsls	r5, r0, #24
 8003116:	d402      	bmi.n	800311e <_printf_i+0xbe>
 8003118:	0640      	lsls	r0, r0, #25
 800311a:	d500      	bpl.n	800311e <_printf_i+0xbe>
 800311c:	b2b6      	uxth	r6, r6
 800311e:	6019      	str	r1, [r3, #0]
 8003120:	4b53      	ldr	r3, [pc, #332]	@ (8003270 <_printf_i+0x210>)
 8003122:	270a      	movs	r7, #10
 8003124:	9304      	str	r3, [sp, #16]
 8003126:	2a6f      	cmp	r2, #111	@ 0x6f
 8003128:	d100      	bne.n	800312c <_printf_i+0xcc>
 800312a:	3f02      	subs	r7, #2
 800312c:	0023      	movs	r3, r4
 800312e:	2200      	movs	r2, #0
 8003130:	3343      	adds	r3, #67	@ 0x43
 8003132:	701a      	strb	r2, [r3, #0]
 8003134:	6863      	ldr	r3, [r4, #4]
 8003136:	60a3      	str	r3, [r4, #8]
 8003138:	2b00      	cmp	r3, #0
 800313a:	db06      	blt.n	800314a <_printf_i+0xea>
 800313c:	2104      	movs	r1, #4
 800313e:	6822      	ldr	r2, [r4, #0]
 8003140:	9d03      	ldr	r5, [sp, #12]
 8003142:	438a      	bics	r2, r1
 8003144:	6022      	str	r2, [r4, #0]
 8003146:	4333      	orrs	r3, r6
 8003148:	d00c      	beq.n	8003164 <_printf_i+0x104>
 800314a:	9d03      	ldr	r5, [sp, #12]
 800314c:	0030      	movs	r0, r6
 800314e:	0039      	movs	r1, r7
 8003150:	f7fd f84e 	bl	80001f0 <__aeabi_uidivmod>
 8003154:	9b04      	ldr	r3, [sp, #16]
 8003156:	3d01      	subs	r5, #1
 8003158:	5c5b      	ldrb	r3, [r3, r1]
 800315a:	702b      	strb	r3, [r5, #0]
 800315c:	0033      	movs	r3, r6
 800315e:	0006      	movs	r6, r0
 8003160:	429f      	cmp	r7, r3
 8003162:	d9f3      	bls.n	800314c <_printf_i+0xec>
 8003164:	2f08      	cmp	r7, #8
 8003166:	d109      	bne.n	800317c <_printf_i+0x11c>
 8003168:	6823      	ldr	r3, [r4, #0]
 800316a:	07db      	lsls	r3, r3, #31
 800316c:	d506      	bpl.n	800317c <_printf_i+0x11c>
 800316e:	6862      	ldr	r2, [r4, #4]
 8003170:	6923      	ldr	r3, [r4, #16]
 8003172:	429a      	cmp	r2, r3
 8003174:	dc02      	bgt.n	800317c <_printf_i+0x11c>
 8003176:	2330      	movs	r3, #48	@ 0x30
 8003178:	3d01      	subs	r5, #1
 800317a:	702b      	strb	r3, [r5, #0]
 800317c:	9b03      	ldr	r3, [sp, #12]
 800317e:	1b5b      	subs	r3, r3, r5
 8003180:	6123      	str	r3, [r4, #16]
 8003182:	9b07      	ldr	r3, [sp, #28]
 8003184:	0021      	movs	r1, r4
 8003186:	9300      	str	r3, [sp, #0]
 8003188:	9805      	ldr	r0, [sp, #20]
 800318a:	9b06      	ldr	r3, [sp, #24]
 800318c:	aa09      	add	r2, sp, #36	@ 0x24
 800318e:	f7ff fef7 	bl	8002f80 <_printf_common>
 8003192:	3001      	adds	r0, #1
 8003194:	d148      	bne.n	8003228 <_printf_i+0x1c8>
 8003196:	2001      	movs	r0, #1
 8003198:	4240      	negs	r0, r0
 800319a:	b00b      	add	sp, #44	@ 0x2c
 800319c:	bdf0      	pop	{r4, r5, r6, r7, pc}
 800319e:	2220      	movs	r2, #32
 80031a0:	6809      	ldr	r1, [r1, #0]
 80031a2:	430a      	orrs	r2, r1
 80031a4:	6022      	str	r2, [r4, #0]
 80031a6:	2278      	movs	r2, #120	@ 0x78
 80031a8:	4932      	ldr	r1, [pc, #200]	@ (8003274 <_printf_i+0x214>)
 80031aa:	9104      	str	r1, [sp, #16]
 80031ac:	0021      	movs	r1, r4
 80031ae:	3145      	adds	r1, #69	@ 0x45
 80031b0:	700a      	strb	r2, [r1, #0]
 80031b2:	6819      	ldr	r1, [r3, #0]
 80031b4:	6822      	ldr	r2, [r4, #0]
 80031b6:	c940      	ldmia	r1!, {r6}
 80031b8:	0610      	lsls	r0, r2, #24
 80031ba:	d402      	bmi.n	80031c2 <_printf_i+0x162>
 80031bc:	0650      	lsls	r0, r2, #25
 80031be:	d500      	bpl.n	80031c2 <_printf_i+0x162>
 80031c0:	b2b6      	uxth	r6, r6
 80031c2:	6019      	str	r1, [r3, #0]
 80031c4:	07d3      	lsls	r3, r2, #31
 80031c6:	d502      	bpl.n	80031ce <_printf_i+0x16e>
 80031c8:	2320      	movs	r3, #32
 80031ca:	4313      	orrs	r3, r2
 80031cc:	6023      	str	r3, [r4, #0]
 80031ce:	2e00      	cmp	r6, #0
 80031d0:	d001      	beq.n	80031d6 <_printf_i+0x176>
 80031d2:	2710      	movs	r7, #16
 80031d4:	e7aa      	b.n	800312c <_printf_i+0xcc>
 80031d6:	2220      	movs	r2, #32
 80031d8:	6823      	ldr	r3, [r4, #0]
 80031da:	4393      	bics	r3, r2
 80031dc:	6023      	str	r3, [r4, #0]
 80031de:	e7f8      	b.n	80031d2 <_printf_i+0x172>
 80031e0:	681a      	ldr	r2, [r3, #0]
 80031e2:	680d      	ldr	r5, [r1, #0]
 80031e4:	1d10      	adds	r0, r2, #4
 80031e6:	6949      	ldr	r1, [r1, #20]
 80031e8:	6018      	str	r0, [r3, #0]
 80031ea:	6813      	ldr	r3, [r2, #0]
 80031ec:	062e      	lsls	r6, r5, #24
 80031ee:	d501      	bpl.n	80031f4 <_printf_i+0x194>
 80031f0:	6019      	str	r1, [r3, #0]
 80031f2:	e002      	b.n	80031fa <_printf_i+0x19a>
 80031f4:	066d      	lsls	r5, r5, #25
 80031f6:	d5fb      	bpl.n	80031f0 <_printf_i+0x190>
 80031f8:	8019      	strh	r1, [r3, #0]
 80031fa:	2300      	movs	r3, #0
 80031fc:	9d03      	ldr	r5, [sp, #12]
 80031fe:	6123      	str	r3, [r4, #16]
 8003200:	e7bf      	b.n	8003182 <_printf_i+0x122>
 8003202:	681a      	ldr	r2, [r3, #0]
 8003204:	1d11      	adds	r1, r2, #4
 8003206:	6019      	str	r1, [r3, #0]
 8003208:	6815      	ldr	r5, [r2, #0]
 800320a:	2100      	movs	r1, #0
 800320c:	0028      	movs	r0, r5
 800320e:	6862      	ldr	r2, [r4, #4]
 8003210:	f000 f91c 	bl	800344c <memchr>
 8003214:	2800      	cmp	r0, #0
 8003216:	d001      	beq.n	800321c <_printf_i+0x1bc>
 8003218:	1b40      	subs	r0, r0, r5
 800321a:	6060      	str	r0, [r4, #4]
 800321c:	6863      	ldr	r3, [r4, #4]
 800321e:	6123      	str	r3, [r4, #16]
 8003220:	2300      	movs	r3, #0
 8003222:	9a03      	ldr	r2, [sp, #12]
 8003224:	7013      	strb	r3, [r2, #0]
 8003226:	e7ac      	b.n	8003182 <_printf_i+0x122>
 8003228:	002a      	movs	r2, r5
 800322a:	6923      	ldr	r3, [r4, #16]
 800322c:	9906      	ldr	r1, [sp, #24]
 800322e:	9805      	ldr	r0, [sp, #20]
 8003230:	9d07      	ldr	r5, [sp, #28]
 8003232:	47a8      	blx	r5
 8003234:	3001      	adds	r0, #1
 8003236:	d0ae      	beq.n	8003196 <_printf_i+0x136>
 8003238:	6823      	ldr	r3, [r4, #0]
 800323a:	079b      	lsls	r3, r3, #30
 800323c:	d415      	bmi.n	800326a <_printf_i+0x20a>
 800323e:	9b09      	ldr	r3, [sp, #36]	@ 0x24
 8003240:	68e0      	ldr	r0, [r4, #12]
 8003242:	4298      	cmp	r0, r3
 8003244:	daa9      	bge.n	800319a <_printf_i+0x13a>
 8003246:	0018      	movs	r0, r3
 8003248:	e7a7      	b.n	800319a <_printf_i+0x13a>
 800324a:	0022      	movs	r2, r4
 800324c:	2301      	movs	r3, #1
 800324e:	9906      	ldr	r1, [sp, #24]
 8003250:	9805      	ldr	r0, [sp, #20]
 8003252:	9e07      	ldr	r6, [sp, #28]
 8003254:	3219      	adds	r2, #25
 8003256:	47b0      	blx	r6
 8003258:	3001      	adds	r0, #1
 800325a:	d09c      	beq.n	8003196 <_printf_i+0x136>
 800325c:	3501      	adds	r5, #1
 800325e:	68e3      	ldr	r3, [r4, #12]
 8003260:	9a09      	ldr	r2, [sp, #36]	@ 0x24
 8003262:	1a9b      	subs	r3, r3, r2
 8003264:	42ab      	cmp	r3, r5
 8003266:	dcf0      	bgt.n	800324a <_printf_i+0x1ea>
 8003268:	e7e9      	b.n	800323e <_printf_i+0x1de>
 800326a:	2500      	movs	r5, #0
 800326c:	e7f7      	b.n	800325e <_printf_i+0x1fe>
 800326e:	46c0      	nop			@ (mov r8, r8)
 8003270:	08003e42 	.word	0x08003e42
 8003274:	08003e53 	.word	0x08003e53

08003278 <__sflush_r>:
 8003278:	b5f7      	push	{r0, r1, r2, r4, r5, r6, r7, lr}
 800327a:	220c      	movs	r2, #12
 800327c:	5e8b      	ldrsh	r3, [r1, r2]
 800327e:	0005      	movs	r5, r0
 8003280:	000c      	movs	r4, r1
 8003282:	071a      	lsls	r2, r3, #28
 8003284:	d45a      	bmi.n	800333c <__sflush_r+0xc4>
 8003286:	684a      	ldr	r2, [r1, #4]
 8003288:	2a00      	cmp	r2, #0
 800328a:	dc02      	bgt.n	8003292 <__sflush_r+0x1a>
 800328c:	6c0a      	ldr	r2, [r1, #64]	@ 0x40
 800328e:	2a00      	cmp	r2, #0
 8003290:	dd4f      	ble.n	8003332 <__sflush_r+0xba>
 8003292:	6ae7      	ldr	r7, [r4, #44]	@ 0x2c
 8003294:	2f00      	cmp	r7, #0
 8003296:	d04c      	beq.n	8003332 <__sflush_r+0xba>
 8003298:	2200      	movs	r2, #0
 800329a:	2180      	movs	r1, #128	@ 0x80
 800329c:	682e      	ldr	r6, [r5, #0]
 800329e:	602a      	str	r2, [r5, #0]
 80032a0:	001a      	movs	r2, r3
 80032a2:	0149      	lsls	r1, r1, #5
 80032a4:	400a      	ands	r2, r1
 80032a6:	420b      	tst	r3, r1
 80032a8:	d034      	beq.n	8003314 <__sflush_r+0x9c>
 80032aa:	6d62      	ldr	r2, [r4, #84]	@ 0x54
 80032ac:	89a3      	ldrh	r3, [r4, #12]
 80032ae:	075b      	lsls	r3, r3, #29
 80032b0:	d506      	bpl.n	80032c0 <__sflush_r+0x48>
 80032b2:	6863      	ldr	r3, [r4, #4]
 80032b4:	1ad2      	subs	r2, r2, r3
 80032b6:	6b63      	ldr	r3, [r4, #52]	@ 0x34
 80032b8:	2b00      	cmp	r3, #0
 80032ba:	d001      	beq.n	80032c0 <__sflush_r+0x48>
 80032bc:	6c23      	ldr	r3, [r4, #64]	@ 0x40
 80032be:	1ad2      	subs	r2, r2, r3
 80032c0:	2300      	movs	r3, #0
 80032c2:	0028      	movs	r0, r5
 80032c4:	6ae7      	ldr	r7, [r4, #44]	@ 0x2c
 80032c6:	6a21      	ldr	r1, [r4, #32]
 80032c8:	47b8      	blx	r7
 80032ca:	230c      	movs	r3, #12
 80032cc:	5ee2      	ldrsh	r2, [r4, r3]
 80032ce:	1c43      	adds	r3, r0, #1
 80032d0:	d106      	bne.n	80032e0 <__sflush_r+0x68>
 80032d2:	6829      	ldr	r1, [r5, #0]
 80032d4:	291d      	cmp	r1, #29
 80032d6:	d82e      	bhi.n	8003336 <__sflush_r+0xbe>
 80032d8:	4b2b      	ldr	r3, [pc, #172]	@ (8003388 <__sflush_r+0x110>)
 80032da:	40cb      	lsrs	r3, r1
 80032dc:	07db      	lsls	r3, r3, #31
 80032de:	d52a      	bpl.n	8003336 <__sflush_r+0xbe>
 80032e0:	2300      	movs	r3, #0
 80032e2:	6063      	str	r3, [r4, #4]
 80032e4:	6923      	ldr	r3, [r4, #16]
 80032e6:	6023      	str	r3, [r4, #0]
 80032e8:	04d2      	lsls	r2, r2, #19
 80032ea:	d505      	bpl.n	80032f8 <__sflush_r+0x80>
 80032ec:	1c43      	adds	r3, r0, #1
 80032ee:	d102      	bne.n	80032f6 <__sflush_r+0x7e>
 80032f0:	682b      	ldr	r3, [r5, #0]
 80032f2:	2b00      	cmp	r3, #0
 80032f4:	d100      	bne.n	80032f8 <__sflush_r+0x80>
 80032f6:	6560      	str	r0, [r4, #84]	@ 0x54
 80032f8:	6b61      	ldr	r1, [r4, #52]	@ 0x34
 80032fa:	602e      	str	r6, [r5, #0]
 80032fc:	2900      	cmp	r1, #0
 80032fe:	d018      	beq.n	8003332 <__sflush_r+0xba>
 8003300:	0023      	movs	r3, r4
 8003302:	3344      	adds	r3, #68	@ 0x44
 8003304:	4299      	cmp	r1, r3
 8003306:	d002      	beq.n	800330e <__sflush_r+0x96>
 8003308:	0028      	movs	r0, r5
 800330a:	f7ff fbcb 	bl	8002aa4 <_free_r>
 800330e:	2300      	movs	r3, #0
 8003310:	6363      	str	r3, [r4, #52]	@ 0x34
 8003312:	e00e      	b.n	8003332 <__sflush_r+0xba>
 8003314:	2301      	movs	r3, #1
 8003316:	0028      	movs	r0, r5
 8003318:	6a21      	ldr	r1, [r4, #32]
 800331a:	47b8      	blx	r7
 800331c:	0002      	movs	r2, r0
 800331e:	1c43      	adds	r3, r0, #1
 8003320:	d1c4      	bne.n	80032ac <__sflush_r+0x34>
 8003322:	682b      	ldr	r3, [r5, #0]
 8003324:	2b00      	cmp	r3, #0
 8003326:	d0c1      	beq.n	80032ac <__sflush_r+0x34>
 8003328:	2b1d      	cmp	r3, #29
 800332a:	d001      	beq.n	8003330 <__sflush_r+0xb8>
 800332c:	2b16      	cmp	r3, #22
 800332e:	d11d      	bne.n	800336c <__sflush_r+0xf4>
 8003330:	602e      	str	r6, [r5, #0]
 8003332:	2000      	movs	r0, #0
 8003334:	e021      	b.n	800337a <__sflush_r+0x102>
 8003336:	2340      	movs	r3, #64	@ 0x40
 8003338:	4313      	orrs	r3, r2
 800333a:	e01b      	b.n	8003374 <__sflush_r+0xfc>
 800333c:	690e      	ldr	r6, [r1, #16]
 800333e:	2e00      	cmp	r6, #0
 8003340:	d0f7      	beq.n	8003332 <__sflush_r+0xba>
 8003342:	680f      	ldr	r7, [r1, #0]
 8003344:	600e      	str	r6, [r1, #0]
 8003346:	1bba      	subs	r2, r7, r6
 8003348:	9201      	str	r2, [sp, #4]
 800334a:	2200      	movs	r2, #0
 800334c:	079b      	lsls	r3, r3, #30
 800334e:	d100      	bne.n	8003352 <__sflush_r+0xda>
 8003350:	694a      	ldr	r2, [r1, #20]
 8003352:	60a2      	str	r2, [r4, #8]
 8003354:	9b01      	ldr	r3, [sp, #4]
 8003356:	2b00      	cmp	r3, #0
 8003358:	ddeb      	ble.n	8003332 <__sflush_r+0xba>
 800335a:	6aa3      	ldr	r3, [r4, #40]	@ 0x28
 800335c:	0032      	movs	r2, r6
 800335e:	001f      	movs	r7, r3
 8003360:	0028      	movs	r0, r5
 8003362:	9b01      	ldr	r3, [sp, #4]
 8003364:	6a21      	ldr	r1, [r4, #32]
 8003366:	47b8      	blx	r7
 8003368:	2800      	cmp	r0, #0
 800336a:	dc07      	bgt.n	800337c <__sflush_r+0x104>
 800336c:	2340      	movs	r3, #64	@ 0x40
 800336e:	89a2      	ldrh	r2, [r4, #12]
 8003370:	4313      	orrs	r3, r2
 8003372:	b21b      	sxth	r3, r3
 8003374:	2001      	movs	r0, #1
 8003376:	81a3      	strh	r3, [r4, #12]
 8003378:	4240      	negs	r0, r0
 800337a:	bdfe      	pop	{r1, r2, r3, r4, r5, r6, r7, pc}
 800337c:	9b01      	ldr	r3, [sp, #4]
 800337e:	1836      	adds	r6, r6, r0
 8003380:	1a1b      	subs	r3, r3, r0
 8003382:	9301      	str	r3, [sp, #4]
 8003384:	e7e6      	b.n	8003354 <__sflush_r+0xdc>
 8003386:	46c0      	nop			@ (mov r8, r8)
 8003388:	20400001 	.word	0x20400001

0800338c <_fflush_r>:
 800338c:	690b      	ldr	r3, [r1, #16]
 800338e:	b570      	push	{r4, r5, r6, lr}
 8003390:	0005      	movs	r5, r0
 8003392:	000c      	movs	r4, r1
 8003394:	2b00      	cmp	r3, #0
 8003396:	d102      	bne.n	800339e <_fflush_r+0x12>
 8003398:	2500      	movs	r5, #0
 800339a:	0028      	movs	r0, r5
 800339c:	bd70      	pop	{r4, r5, r6, pc}
 800339e:	2800      	cmp	r0, #0
 80033a0:	d004      	beq.n	80033ac <_fflush_r+0x20>
 80033a2:	6a03      	ldr	r3, [r0, #32]
 80033a4:	2b00      	cmp	r3, #0
 80033a6:	d101      	bne.n	80033ac <_fflush_r+0x20>
 80033a8:	f7ff fa38 	bl	800281c <__sinit>
 80033ac:	220c      	movs	r2, #12
 80033ae:	5ea3      	ldrsh	r3, [r4, r2]
 80033b0:	2b00      	cmp	r3, #0
 80033b2:	d0f1      	beq.n	8003398 <_fflush_r+0xc>
 80033b4:	6e62      	ldr	r2, [r4, #100]	@ 0x64
 80033b6:	07d2      	lsls	r2, r2, #31
 80033b8:	d404      	bmi.n	80033c4 <_fflush_r+0x38>
 80033ba:	059b      	lsls	r3, r3, #22
 80033bc:	d402      	bmi.n	80033c4 <_fflush_r+0x38>
 80033be:	6da0      	ldr	r0, [r4, #88]	@ 0x58
 80033c0:	f7ff fb4f 	bl	8002a62 <__retarget_lock_acquire_recursive>
 80033c4:	0028      	movs	r0, r5
 80033c6:	0021      	movs	r1, r4
 80033c8:	f7ff ff56 	bl	8003278 <__sflush_r>
 80033cc:	6e63      	ldr	r3, [r4, #100]	@ 0x64
 80033ce:	0005      	movs	r5, r0
 80033d0:	07db      	lsls	r3, r3, #31
 80033d2:	d4e2      	bmi.n	800339a <_fflush_r+0xe>
 80033d4:	89a3      	ldrh	r3, [r4, #12]
 80033d6:	059b      	lsls	r3, r3, #22
 80033d8:	d4df      	bmi.n	800339a <_fflush_r+0xe>
 80033da:	6da0      	ldr	r0, [r4, #88]	@ 0x58
 80033dc:	f7ff fb42 	bl	8002a64 <__retarget_lock_release_recursive>
 80033e0:	e7db      	b.n	800339a <_fflush_r+0xe>
	...

080033e4 <fiprintf>:
 80033e4:	b40e      	push	{r1, r2, r3}
 80033e6:	b517      	push	{r0, r1, r2, r4, lr}
 80033e8:	4c05      	ldr	r4, [pc, #20]	@ (8003400 <fiprintf+0x1c>)
 80033ea:	ab05      	add	r3, sp, #20
 80033ec:	cb04      	ldmia	r3!, {r2}
 80033ee:	0001      	movs	r1, r0
 80033f0:	6820      	ldr	r0, [r4, #0]
 80033f2:	9301      	str	r3, [sp, #4]
 80033f4:	f000 f89c 	bl	8003530 <_vfiprintf_r>
 80033f8:	bc1e      	pop	{r1, r2, r3, r4}
 80033fa:	bc08      	pop	{r3}
 80033fc:	b003      	add	sp, #12
 80033fe:	4718      	bx	r3
 8003400:	20000018 	.word	0x20000018

08003404 <memmove>:
 8003404:	b510      	push	{r4, lr}
 8003406:	4288      	cmp	r0, r1
 8003408:	d902      	bls.n	8003410 <memmove+0xc>
 800340a:	188b      	adds	r3, r1, r2
 800340c:	4298      	cmp	r0, r3
 800340e:	d308      	bcc.n	8003422 <memmove+0x1e>
 8003410:	2300      	movs	r3, #0
 8003412:	429a      	cmp	r2, r3
 8003414:	d007      	beq.n	8003426 <memmove+0x22>
 8003416:	5ccc      	ldrb	r4, [r1, r3]
 8003418:	54c4      	strb	r4, [r0, r3]
 800341a:	3301      	adds	r3, #1
 800341c:	e7f9      	b.n	8003412 <memmove+0xe>
 800341e:	5c8b      	ldrb	r3, [r1, r2]
 8003420:	5483      	strb	r3, [r0, r2]
 8003422:	3a01      	subs	r2, #1
 8003424:	d2fb      	bcs.n	800341e <memmove+0x1a>
 8003426:	bd10      	pop	{r4, pc}

08003428 <_sbrk_r>:
 8003428:	2300      	movs	r3, #0
 800342a:	b570      	push	{r4, r5, r6, lr}
 800342c:	4d06      	ldr	r5, [pc, #24]	@ (8003448 <_sbrk_r+0x20>)
 800342e:	0004      	movs	r4, r0
 8003430:	0008      	movs	r0, r1
 8003432:	602b      	str	r3, [r5, #0]
 8003434:	f7ff f8ce 	bl	80025d4 <_sbrk>
 8003438:	1c43      	adds	r3, r0, #1
 800343a:	d103      	bne.n	8003444 <_sbrk_r+0x1c>
 800343c:	682b      	ldr	r3, [r5, #0]
 800343e:	2b00      	cmp	r3, #0
 8003440:	d000      	beq.n	8003444 <_sbrk_r+0x1c>
 8003442:	6023      	str	r3, [r4, #0]
 8003444:	bd70      	pop	{r4, r5, r6, pc}
 8003446:	46c0      	nop			@ (mov r8, r8)
 8003448:	20000584 	.word	0x20000584

0800344c <memchr>:
 800344c:	b2c9      	uxtb	r1, r1
 800344e:	1882      	adds	r2, r0, r2
 8003450:	4290      	cmp	r0, r2
 8003452:	d101      	bne.n	8003458 <memchr+0xc>
 8003454:	2000      	movs	r0, #0
 8003456:	4770      	bx	lr
 8003458:	7803      	ldrb	r3, [r0, #0]
 800345a:	428b      	cmp	r3, r1
 800345c:	d0fb      	beq.n	8003456 <memchr+0xa>
 800345e:	3001      	adds	r0, #1
 8003460:	e7f6      	b.n	8003450 <memchr+0x4>

08003462 <memcpy>:
 8003462:	2300      	movs	r3, #0
 8003464:	b510      	push	{r4, lr}
 8003466:	429a      	cmp	r2, r3
 8003468:	d100      	bne.n	800346c <memcpy+0xa>
 800346a:	bd10      	pop	{r4, pc}
 800346c:	5ccc      	ldrb	r4, [r1, r3]
 800346e:	54c4      	strb	r4, [r0, r3]
 8003470:	3301      	adds	r3, #1
 8003472:	e7f8      	b.n	8003466 <memcpy+0x4>

08003474 <abort>:
 8003474:	2006      	movs	r0, #6
 8003476:	b510      	push	{r4, lr}
 8003478:	f000 fa40 	bl	80038fc <raise>
 800347c:	2001      	movs	r0, #1
 800347e:	f7ff f87a 	bl	8002576 <_exit>

08003482 <_realloc_r>:
 8003482:	b5f7      	push	{r0, r1, r2, r4, r5, r6, r7, lr}
 8003484:	0006      	movs	r6, r0
 8003486:	000c      	movs	r4, r1
 8003488:	0015      	movs	r5, r2
 800348a:	2900      	cmp	r1, #0
 800348c:	d105      	bne.n	800349a <_realloc_r+0x18>
 800348e:	0011      	movs	r1, r2
 8003490:	f7ff fb7e 	bl	8002b90 <_malloc_r>
 8003494:	0004      	movs	r4, r0
 8003496:	0020      	movs	r0, r4
 8003498:	bdfe      	pop	{r1, r2, r3, r4, r5, r6, r7, pc}
 800349a:	2a00      	cmp	r2, #0
 800349c:	d103      	bne.n	80034a6 <_realloc_r+0x24>
 800349e:	f7ff fb01 	bl	8002aa4 <_free_r>
 80034a2:	002c      	movs	r4, r5
 80034a4:	e7f7      	b.n	8003496 <_realloc_r+0x14>
 80034a6:	f000 fa49 	bl	800393c <_malloc_usable_size_r>
 80034aa:	0007      	movs	r7, r0
 80034ac:	4285      	cmp	r5, r0
 80034ae:	d802      	bhi.n	80034b6 <_realloc_r+0x34>
 80034b0:	0843      	lsrs	r3, r0, #1
 80034b2:	42ab      	cmp	r3, r5
 80034b4:	d3ef      	bcc.n	8003496 <_realloc_r+0x14>
 80034b6:	0029      	movs	r1, r5
 80034b8:	0030      	movs	r0, r6
 80034ba:	f7ff fb69 	bl	8002b90 <_malloc_r>
 80034be:	9001      	str	r0, [sp, #4]
 80034c0:	2800      	cmp	r0, #0
 80034c2:	d101      	bne.n	80034c8 <_realloc_r+0x46>
 80034c4:	9c01      	ldr	r4, [sp, #4]
 80034c6:	e7e6      	b.n	8003496 <_realloc_r+0x14>
 80034c8:	002a      	movs	r2, r5
 80034ca:	42bd      	cmp	r5, r7
 80034cc:	d900      	bls.n	80034d0 <_realloc_r+0x4e>
 80034ce:	003a      	movs	r2, r7
 80034d0:	0021      	movs	r1, r4
 80034d2:	9801      	ldr	r0, [sp, #4]
 80034d4:	f7ff ffc5 	bl	8003462 <memcpy>
 80034d8:	0021      	movs	r1, r4
 80034da:	0030      	movs	r0, r6
 80034dc:	f7ff fae2 	bl	8002aa4 <_free_r>
 80034e0:	e7f0      	b.n	80034c4 <_realloc_r+0x42>

080034e2 <__sfputc_r>:
 80034e2:	6893      	ldr	r3, [r2, #8]
 80034e4:	b510      	push	{r4, lr}
 80034e6:	3b01      	subs	r3, #1
 80034e8:	6093      	str	r3, [r2, #8]
 80034ea:	2b00      	cmp	r3, #0
 80034ec:	da04      	bge.n	80034f8 <__sfputc_r+0x16>
 80034ee:	6994      	ldr	r4, [r2, #24]
 80034f0:	42a3      	cmp	r3, r4
 80034f2:	db07      	blt.n	8003504 <__sfputc_r+0x22>
 80034f4:	290a      	cmp	r1, #10
 80034f6:	d005      	beq.n	8003504 <__sfputc_r+0x22>
 80034f8:	6813      	ldr	r3, [r2, #0]
 80034fa:	1c58      	adds	r0, r3, #1
 80034fc:	6010      	str	r0, [r2, #0]
 80034fe:	7019      	strb	r1, [r3, #0]
 8003500:	0008      	movs	r0, r1
 8003502:	bd10      	pop	{r4, pc}
 8003504:	f000 f934 	bl	8003770 <__swbuf_r>
 8003508:	0001      	movs	r1, r0
 800350a:	e7f9      	b.n	8003500 <__sfputc_r+0x1e>

0800350c <__sfputs_r>:
 800350c:	b5f8      	push	{r3, r4, r5, r6, r7, lr}
 800350e:	0006      	movs	r6, r0
 8003510:	000f      	movs	r7, r1
 8003512:	0014      	movs	r4, r2
 8003514:	18d5      	adds	r5, r2, r3
 8003516:	42ac      	cmp	r4, r5
 8003518:	d101      	bne.n	800351e <__sfputs_r+0x12>
 800351a:	2000      	movs	r0, #0
 800351c:	e007      	b.n	800352e <__sfputs_r+0x22>
 800351e:	7821      	ldrb	r1, [r4, #0]
 8003520:	003a      	movs	r2, r7
 8003522:	0030      	movs	r0, r6
 8003524:	f7ff ffdd 	bl	80034e2 <__sfputc_r>
 8003528:	3401      	adds	r4, #1
 800352a:	1c43      	adds	r3, r0, #1
 800352c:	d1f3      	bne.n	8003516 <__sfputs_r+0xa>
 800352e:	bdf8      	pop	{r3, r4, r5, r6, r7, pc}

08003530 <_vfiprintf_r>:
 8003530:	b5f0      	push	{r4, r5, r6, r7, lr}
 8003532:	b09f      	sub	sp, #124	@ 0x7c
 8003534:	000d      	movs	r5, r1
 8003536:	0016      	movs	r6, r2
 8003538:	001c      	movs	r4, r3
 800353a:	9002      	str	r0, [sp, #8]
 800353c:	2800      	cmp	r0, #0
 800353e:	d004      	beq.n	800354a <_vfiprintf_r+0x1a>
 8003540:	6a03      	ldr	r3, [r0, #32]
 8003542:	2b00      	cmp	r3, #0
 8003544:	d101      	bne.n	800354a <_vfiprintf_r+0x1a>
 8003546:	f7ff f969 	bl	800281c <__sinit>
 800354a:	6e6b      	ldr	r3, [r5, #100]	@ 0x64
 800354c:	07db      	lsls	r3, r3, #31
 800354e:	d405      	bmi.n	800355c <_vfiprintf_r+0x2c>
 8003550:	89ab      	ldrh	r3, [r5, #12]
 8003552:	059b      	lsls	r3, r3, #22
 8003554:	d402      	bmi.n	800355c <_vfiprintf_r+0x2c>
 8003556:	6da8      	ldr	r0, [r5, #88]	@ 0x58
 8003558:	f7ff fa83 	bl	8002a62 <__retarget_lock_acquire_recursive>
 800355c:	89ab      	ldrh	r3, [r5, #12]
 800355e:	071b      	lsls	r3, r3, #28
 8003560:	d502      	bpl.n	8003568 <_vfiprintf_r+0x38>
 8003562:	692b      	ldr	r3, [r5, #16]
 8003564:	2b00      	cmp	r3, #0
 8003566:	d113      	bne.n	8003590 <_vfiprintf_r+0x60>
 8003568:	0029      	movs	r1, r5
 800356a:	9802      	ldr	r0, [sp, #8]
 800356c:	f000 f942 	bl	80037f4 <__swsetup_r>
 8003570:	2800      	cmp	r0, #0
 8003572:	d00d      	beq.n	8003590 <_vfiprintf_r+0x60>
 8003574:	6e6b      	ldr	r3, [r5, #100]	@ 0x64
 8003576:	07db      	lsls	r3, r3, #31
 8003578:	d503      	bpl.n	8003582 <_vfiprintf_r+0x52>
 800357a:	2001      	movs	r0, #1
 800357c:	4240      	negs	r0, r0
 800357e:	b01f      	add	sp, #124	@ 0x7c
 8003580:	bdf0      	pop	{r4, r5, r6, r7, pc}
 8003582:	89ab      	ldrh	r3, [r5, #12]
 8003584:	059b      	lsls	r3, r3, #22
 8003586:	d4f8      	bmi.n	800357a <_vfiprintf_r+0x4a>
 8003588:	6da8      	ldr	r0, [r5, #88]	@ 0x58
 800358a:	f7ff fa6b 	bl	8002a64 <__retarget_lock_release_recursive>
 800358e:	e7f4      	b.n	800357a <_vfiprintf_r+0x4a>
 8003590:	2300      	movs	r3, #0
 8003592:	2129      	movs	r1, #41	@ 0x29
 8003594:	aa02      	add	r2, sp, #8
 8003596:	1852      	adds	r2, r2, r1
 8003598:	930b      	str	r3, [sp, #44]	@ 0x2c
 800359a:	3320      	adds	r3, #32
 800359c:	7013      	strb	r3, [r2, #0]
 800359e:	3101      	adds	r1, #1
 80035a0:	aa02      	add	r2, sp, #8
 80035a2:	3310      	adds	r3, #16
 80035a4:	1852      	adds	r2, r2, r1
 80035a6:	7013      	strb	r3, [r2, #0]
 80035a8:	9405      	str	r4, [sp, #20]
 80035aa:	0034      	movs	r4, r6
 80035ac:	7823      	ldrb	r3, [r4, #0]
 80035ae:	2b00      	cmp	r3, #0
 80035b0:	d001      	beq.n	80035b6 <_vfiprintf_r+0x86>
 80035b2:	2b25      	cmp	r3, #37	@ 0x25
 80035b4:	d148      	bne.n	8003648 <_vfiprintf_r+0x118>
 80035b6:	1ba7      	subs	r7, r4, r6
 80035b8:	42b4      	cmp	r4, r6
 80035ba:	d00b      	beq.n	80035d4 <_vfiprintf_r+0xa4>
 80035bc:	003b      	movs	r3, r7
 80035be:	0032      	movs	r2, r6
 80035c0:	0029      	movs	r1, r5
 80035c2:	9802      	ldr	r0, [sp, #8]
 80035c4:	f7ff ffa2 	bl	800350c <__sfputs_r>
 80035c8:	3001      	adds	r0, #1
 80035ca:	d100      	bne.n	80035ce <_vfiprintf_r+0x9e>
 80035cc:	e0ae      	b.n	800372c <_vfiprintf_r+0x1fc>
 80035ce:	9b0b      	ldr	r3, [sp, #44]	@ 0x2c
 80035d0:	19db      	adds	r3, r3, r7
 80035d2:	930b      	str	r3, [sp, #44]	@ 0x2c
 80035d4:	7823      	ldrb	r3, [r4, #0]
 80035d6:	2b00      	cmp	r3, #0
 80035d8:	d100      	bne.n	80035dc <_vfiprintf_r+0xac>
 80035da:	e0a7      	b.n	800372c <_vfiprintf_r+0x1fc>
 80035dc:	2201      	movs	r2, #1
 80035de:	2153      	movs	r1, #83	@ 0x53
 80035e0:	2300      	movs	r3, #0
 80035e2:	4252      	negs	r2, r2
 80035e4:	9207      	str	r2, [sp, #28]
 80035e6:	aa02      	add	r2, sp, #8
 80035e8:	1852      	adds	r2, r2, r1
 80035ea:	1c66      	adds	r6, r4, #1
 80035ec:	9306      	str	r3, [sp, #24]
 80035ee:	9309      	str	r3, [sp, #36]	@ 0x24
 80035f0:	9308      	str	r3, [sp, #32]
 80035f2:	7013      	strb	r3, [r2, #0]
 80035f4:	931c      	str	r3, [sp, #112]	@ 0x70
 80035f6:	4f59      	ldr	r7, [pc, #356]	@ (800375c <_vfiprintf_r+0x22c>)
 80035f8:	7831      	ldrb	r1, [r6, #0]
 80035fa:	2205      	movs	r2, #5
 80035fc:	0038      	movs	r0, r7
 80035fe:	f7ff ff25 	bl	800344c <memchr>
 8003602:	1c74      	adds	r4, r6, #1
 8003604:	9906      	ldr	r1, [sp, #24]
 8003606:	ab06      	add	r3, sp, #24
 8003608:	2800      	cmp	r0, #0
 800360a:	d11f      	bne.n	800364c <_vfiprintf_r+0x11c>
 800360c:	06ca      	lsls	r2, r1, #27
 800360e:	d504      	bpl.n	800361a <_vfiprintf_r+0xea>
 8003610:	2753      	movs	r7, #83	@ 0x53
 8003612:	2220      	movs	r2, #32
 8003614:	a802      	add	r0, sp, #8
 8003616:	19c0      	adds	r0, r0, r7
 8003618:	7002      	strb	r2, [r0, #0]
 800361a:	070a      	lsls	r2, r1, #28
 800361c:	d504      	bpl.n	8003628 <_vfiprintf_r+0xf8>
 800361e:	2753      	movs	r7, #83	@ 0x53
 8003620:	222b      	movs	r2, #43	@ 0x2b
 8003622:	a802      	add	r0, sp, #8
 8003624:	19c0      	adds	r0, r0, r7
 8003626:	7002      	strb	r2, [r0, #0]
 8003628:	7832      	ldrb	r2, [r6, #0]
 800362a:	2a2a      	cmp	r2, #42	@ 0x2a
 800362c:	d015      	beq.n	800365a <_vfiprintf_r+0x12a>
 800362e:	0034      	movs	r4, r6
 8003630:	2000      	movs	r0, #0
 8003632:	270a      	movs	r7, #10
 8003634:	68da      	ldr	r2, [r3, #12]
 8003636:	7821      	ldrb	r1, [r4, #0]
 8003638:	1c66      	adds	r6, r4, #1
 800363a:	3930      	subs	r1, #48	@ 0x30
 800363c:	2909      	cmp	r1, #9
 800363e:	d950      	bls.n	80036e2 <_vfiprintf_r+0x1b2>
 8003640:	2800      	cmp	r0, #0
 8003642:	d011      	beq.n	8003668 <_vfiprintf_r+0x138>
 8003644:	9209      	str	r2, [sp, #36]	@ 0x24
 8003646:	e00f      	b.n	8003668 <_vfiprintf_r+0x138>
 8003648:	3401      	adds	r4, #1
 800364a:	e7af      	b.n	80035ac <_vfiprintf_r+0x7c>
 800364c:	2301      	movs	r3, #1
 800364e:	1bc0      	subs	r0, r0, r7
 8003650:	4083      	lsls	r3, r0
 8003652:	430b      	orrs	r3, r1
 8003654:	0026      	movs	r6, r4
 8003656:	9306      	str	r3, [sp, #24]
 8003658:	e7cd      	b.n	80035f6 <_vfiprintf_r+0xc6>
 800365a:	9a05      	ldr	r2, [sp, #20]
 800365c:	1d10      	adds	r0, r2, #4
 800365e:	6812      	ldr	r2, [r2, #0]
 8003660:	9005      	str	r0, [sp, #20]
 8003662:	2a00      	cmp	r2, #0
 8003664:	db37      	blt.n	80036d6 <_vfiprintf_r+0x1a6>
 8003666:	60da      	str	r2, [r3, #12]
 8003668:	7822      	ldrb	r2, [r4, #0]
 800366a:	2a2e      	cmp	r2, #46	@ 0x2e
 800366c:	d10c      	bne.n	8003688 <_vfiprintf_r+0x158>
 800366e:	7862      	ldrb	r2, [r4, #1]
 8003670:	2a2a      	cmp	r2, #42	@ 0x2a
 8003672:	d13b      	bne.n	80036ec <_vfiprintf_r+0x1bc>
 8003674:	9a05      	ldr	r2, [sp, #20]
 8003676:	3402      	adds	r4, #2
 8003678:	1d11      	adds	r1, r2, #4
 800367a:	6812      	ldr	r2, [r2, #0]
 800367c:	9105      	str	r1, [sp, #20]
 800367e:	2a00      	cmp	r2, #0
 8003680:	da01      	bge.n	8003686 <_vfiprintf_r+0x156>
 8003682:	2201      	movs	r2, #1
 8003684:	4252      	negs	r2, r2
 8003686:	605a      	str	r2, [r3, #4]
 8003688:	4e35      	ldr	r6, [pc, #212]	@ (8003760 <_vfiprintf_r+0x230>)
 800368a:	2203      	movs	r2, #3
 800368c:	0030      	movs	r0, r6
 800368e:	7821      	ldrb	r1, [r4, #0]
 8003690:	f7ff fedc 	bl	800344c <memchr>
 8003694:	af06      	add	r7, sp, #24
 8003696:	2800      	cmp	r0, #0
 8003698:	d006      	beq.n	80036a8 <_vfiprintf_r+0x178>
 800369a:	2340      	movs	r3, #64	@ 0x40
 800369c:	1b80      	subs	r0, r0, r6
 800369e:	4083      	lsls	r3, r0
 80036a0:	9a06      	ldr	r2, [sp, #24]
 80036a2:	3401      	adds	r4, #1
 80036a4:	4313      	orrs	r3, r2
 80036a6:	9306      	str	r3, [sp, #24]
 80036a8:	7821      	ldrb	r1, [r4, #0]
 80036aa:	2206      	movs	r2, #6
 80036ac:	482d      	ldr	r0, [pc, #180]	@ (8003764 <_vfiprintf_r+0x234>)
 80036ae:	1c66      	adds	r6, r4, #1
 80036b0:	7639      	strb	r1, [r7, #24]
 80036b2:	f7ff fecb 	bl	800344c <memchr>
 80036b6:	2800      	cmp	r0, #0
 80036b8:	d047      	beq.n	800374a <_vfiprintf_r+0x21a>
 80036ba:	4b2b      	ldr	r3, [pc, #172]	@ (8003768 <_vfiprintf_r+0x238>)
 80036bc:	2b00      	cmp	r3, #0
 80036be:	d129      	bne.n	8003714 <_vfiprintf_r+0x1e4>
 80036c0:	2207      	movs	r2, #7
 80036c2:	9b05      	ldr	r3, [sp, #20]
 80036c4:	3307      	adds	r3, #7
 80036c6:	4393      	bics	r3, r2
 80036c8:	3308      	adds	r3, #8
 80036ca:	9305      	str	r3, [sp, #20]
 80036cc:	9b0b      	ldr	r3, [sp, #44]	@ 0x2c
 80036ce:	9903      	ldr	r1, [sp, #12]
 80036d0:	185b      	adds	r3, r3, r1
 80036d2:	930b      	str	r3, [sp, #44]	@ 0x2c
 80036d4:	e769      	b.n	80035aa <_vfiprintf_r+0x7a>
 80036d6:	4252      	negs	r2, r2
 80036d8:	60da      	str	r2, [r3, #12]
 80036da:	2202      	movs	r2, #2
 80036dc:	430a      	orrs	r2, r1
 80036de:	9206      	str	r2, [sp, #24]
 80036e0:	e7c2      	b.n	8003668 <_vfiprintf_r+0x138>
 80036e2:	437a      	muls	r2, r7
 80036e4:	0034      	movs	r4, r6
 80036e6:	2001      	movs	r0, #1
 80036e8:	1852      	adds	r2, r2, r1
 80036ea:	e7a4      	b.n	8003636 <_vfiprintf_r+0x106>
 80036ec:	2200      	movs	r2, #0
 80036ee:	200a      	movs	r0, #10
 80036f0:	605a      	str	r2, [r3, #4]
 80036f2:	0011      	movs	r1, r2
 80036f4:	0013      	movs	r3, r2
 80036f6:	3401      	adds	r4, #1
 80036f8:	7822      	ldrb	r2, [r4, #0]
 80036fa:	1c66      	adds	r6, r4, #1
 80036fc:	3a30      	subs	r2, #48	@ 0x30
 80036fe:	2a09      	cmp	r2, #9
 8003700:	d903      	bls.n	800370a <_vfiprintf_r+0x1da>
 8003702:	2b00      	cmp	r3, #0
 8003704:	d0c0      	beq.n	8003688 <_vfiprintf_r+0x158>
 8003706:	9107      	str	r1, [sp, #28]
 8003708:	e7be      	b.n	8003688 <_vfiprintf_r+0x158>
 800370a:	4341      	muls	r1, r0
 800370c:	0034      	movs	r4, r6
 800370e:	2301      	movs	r3, #1
 8003710:	1889      	adds	r1, r1, r2
 8003712:	e7f1      	b.n	80036f8 <_vfiprintf_r+0x1c8>
 8003714:	aa05      	add	r2, sp, #20
 8003716:	9200      	str	r2, [sp, #0]
 8003718:	0039      	movs	r1, r7
 800371a:	002a      	movs	r2, r5
 800371c:	4b13      	ldr	r3, [pc, #76]	@ (800376c <_vfiprintf_r+0x23c>)
 800371e:	9802      	ldr	r0, [sp, #8]
 8003720:	e000      	b.n	8003724 <_vfiprintf_r+0x1f4>
 8003722:	bf00      	nop
 8003724:	9003      	str	r0, [sp, #12]
 8003726:	9b03      	ldr	r3, [sp, #12]
 8003728:	3301      	adds	r3, #1
 800372a:	d1cf      	bne.n	80036cc <_vfiprintf_r+0x19c>
 800372c:	6e6b      	ldr	r3, [r5, #100]	@ 0x64
 800372e:	07db      	lsls	r3, r3, #31
 8003730:	d405      	bmi.n	800373e <_vfiprintf_r+0x20e>
 8003732:	89ab      	ldrh	r3, [r5, #12]
 8003734:	059b      	lsls	r3, r3, #22
 8003736:	d402      	bmi.n	800373e <_vfiprintf_r+0x20e>
 8003738:	6da8      	ldr	r0, [r5, #88]	@ 0x58
 800373a:	f7ff f993 	bl	8002a64 <__retarget_lock_release_recursive>
 800373e:	89ab      	ldrh	r3, [r5, #12]
 8003740:	065b      	lsls	r3, r3, #25
 8003742:	d500      	bpl.n	8003746 <_vfiprintf_r+0x216>
 8003744:	e719      	b.n	800357a <_vfiprintf_r+0x4a>
 8003746:	980b      	ldr	r0, [sp, #44]	@ 0x2c
 8003748:	e719      	b.n	800357e <_vfiprintf_r+0x4e>
 800374a:	aa05      	add	r2, sp, #20
 800374c:	9200      	str	r2, [sp, #0]
 800374e:	0039      	movs	r1, r7
 8003750:	002a      	movs	r2, r5
 8003752:	4b06      	ldr	r3, [pc, #24]	@ (800376c <_vfiprintf_r+0x23c>)
 8003754:	9802      	ldr	r0, [sp, #8]
 8003756:	f7ff fc83 	bl	8003060 <_printf_i>
 800375a:	e7e3      	b.n	8003724 <_vfiprintf_r+0x1f4>
 800375c:	08003e31 	.word	0x08003e31
 8003760:	08003e37 	.word	0x08003e37
 8003764:	08003e3b 	.word	0x08003e3b
 8003768:	00000000 	.word	0x00000000
 800376c:	0800350d 	.word	0x0800350d

08003770 <__swbuf_r>:
 8003770:	b5f8      	push	{r3, r4, r5, r6, r7, lr}
 8003772:	0006      	movs	r6, r0
 8003774:	000d      	movs	r5, r1
 8003776:	0014      	movs	r4, r2
 8003778:	2800      	cmp	r0, #0
 800377a:	d004      	beq.n	8003786 <__swbuf_r+0x16>
 800377c:	6a03      	ldr	r3, [r0, #32]
 800377e:	2b00      	cmp	r3, #0
 8003780:	d101      	bne.n	8003786 <__swbuf_r+0x16>
 8003782:	f7ff f84b 	bl	800281c <__sinit>
 8003786:	69a3      	ldr	r3, [r4, #24]
 8003788:	60a3      	str	r3, [r4, #8]
 800378a:	89a3      	ldrh	r3, [r4, #12]
 800378c:	071b      	lsls	r3, r3, #28
 800378e:	d502      	bpl.n	8003796 <__swbuf_r+0x26>
 8003790:	6923      	ldr	r3, [r4, #16]
 8003792:	2b00      	cmp	r3, #0
 8003794:	d109      	bne.n	80037aa <__swbuf_r+0x3a>
 8003796:	0021      	movs	r1, r4
 8003798:	0030      	movs	r0, r6
 800379a:	f000 f82b 	bl	80037f4 <__swsetup_r>
 800379e:	2800      	cmp	r0, #0
 80037a0:	d003      	beq.n	80037aa <__swbuf_r+0x3a>
 80037a2:	2501      	movs	r5, #1
 80037a4:	426d      	negs	r5, r5
 80037a6:	0028      	movs	r0, r5
 80037a8:	bdf8      	pop	{r3, r4, r5, r6, r7, pc}
 80037aa:	6923      	ldr	r3, [r4, #16]
 80037ac:	6820      	ldr	r0, [r4, #0]
 80037ae:	b2ef      	uxtb	r7, r5
 80037b0:	1ac0      	subs	r0, r0, r3
 80037b2:	6963      	ldr	r3, [r4, #20]
 80037b4:	b2ed      	uxtb	r5, r5
 80037b6:	4283      	cmp	r3, r0
 80037b8:	dc05      	bgt.n	80037c6 <__swbuf_r+0x56>
 80037ba:	0021      	movs	r1, r4
 80037bc:	0030      	movs	r0, r6
 80037be:	f7ff fde5 	bl	800338c <_fflush_r>
 80037c2:	2800      	cmp	r0, #0
 80037c4:	d1ed      	bne.n	80037a2 <__swbuf_r+0x32>
 80037c6:	68a3      	ldr	r3, [r4, #8]
 80037c8:	3001      	adds	r0, #1
 80037ca:	3b01      	subs	r3, #1
 80037cc:	60a3      	str	r3, [r4, #8]
 80037ce:	6823      	ldr	r3, [r4, #0]
 80037d0:	1c5a      	adds	r2, r3, #1
 80037d2:	6022      	str	r2, [r4, #0]
 80037d4:	701f      	strb	r7, [r3, #0]
 80037d6:	6963      	ldr	r3, [r4, #20]
 80037d8:	4283      	cmp	r3, r0
 80037da:	d004      	beq.n	80037e6 <__swbuf_r+0x76>
 80037dc:	89a3      	ldrh	r3, [r4, #12]
 80037de:	07db      	lsls	r3, r3, #31
 80037e0:	d5e1      	bpl.n	80037a6 <__swbuf_r+0x36>
 80037e2:	2d0a      	cmp	r5, #10
 80037e4:	d1df      	bne.n	80037a6 <__swbuf_r+0x36>
 80037e6:	0021      	movs	r1, r4
 80037e8:	0030      	movs	r0, r6
 80037ea:	f7ff fdcf 	bl	800338c <_fflush_r>
 80037ee:	2800      	cmp	r0, #0
 80037f0:	d0d9      	beq.n	80037a6 <__swbuf_r+0x36>
 80037f2:	e7d6      	b.n	80037a2 <__swbuf_r+0x32>

080037f4 <__swsetup_r>:
 80037f4:	4b2b      	ldr	r3, [pc, #172]	@ (80038a4 <__swsetup_r+0xb0>)
 80037f6:	b570      	push	{r4, r5, r6, lr}
 80037f8:	0005      	movs	r5, r0
 80037fa:	6818      	ldr	r0, [r3, #0]
 80037fc:	000c      	movs	r4, r1
 80037fe:	2800      	cmp	r0, #0
 8003800:	d004      	beq.n	800380c <__swsetup_r+0x18>
 8003802:	6a03      	ldr	r3, [r0, #32]
 8003804:	2b00      	cmp	r3, #0
 8003806:	d101      	bne.n	800380c <__swsetup_r+0x18>
 8003808:	f7ff f808 	bl	800281c <__sinit>
 800380c:	220c      	movs	r2, #12
 800380e:	5ea3      	ldrsh	r3, [r4, r2]
 8003810:	071a      	lsls	r2, r3, #28
 8003812:	d422      	bmi.n	800385a <__swsetup_r+0x66>
 8003814:	06da      	lsls	r2, r3, #27
 8003816:	d407      	bmi.n	8003828 <__swsetup_r+0x34>
 8003818:	2209      	movs	r2, #9
 800381a:	602a      	str	r2, [r5, #0]
 800381c:	3237      	adds	r2, #55	@ 0x37
 800381e:	2001      	movs	r0, #1
 8003820:	4313      	orrs	r3, r2
 8003822:	81a3      	strh	r3, [r4, #12]
 8003824:	4240      	negs	r0, r0
 8003826:	bd70      	pop	{r4, r5, r6, pc}
 8003828:	075a      	lsls	r2, r3, #29
 800382a:	d513      	bpl.n	8003854 <__swsetup_r+0x60>
 800382c:	6b61      	ldr	r1, [r4, #52]	@ 0x34
 800382e:	2900      	cmp	r1, #0
 8003830:	d008      	beq.n	8003844 <__swsetup_r+0x50>
 8003832:	0023      	movs	r3, r4
 8003834:	3344      	adds	r3, #68	@ 0x44
 8003836:	4299      	cmp	r1, r3
 8003838:	d002      	beq.n	8003840 <__swsetup_r+0x4c>
 800383a:	0028      	movs	r0, r5
 800383c:	f7ff f932 	bl	8002aa4 <_free_r>
 8003840:	2300      	movs	r3, #0
 8003842:	6363      	str	r3, [r4, #52]	@ 0x34
 8003844:	2224      	movs	r2, #36	@ 0x24
 8003846:	89a3      	ldrh	r3, [r4, #12]
 8003848:	4393      	bics	r3, r2
 800384a:	2200      	movs	r2, #0
 800384c:	6062      	str	r2, [r4, #4]
 800384e:	6922      	ldr	r2, [r4, #16]
 8003850:	b21b      	sxth	r3, r3
 8003852:	6022      	str	r2, [r4, #0]
 8003854:	2208      	movs	r2, #8
 8003856:	4313      	orrs	r3, r2
 8003858:	81a3      	strh	r3, [r4, #12]
 800385a:	6922      	ldr	r2, [r4, #16]
 800385c:	2a00      	cmp	r2, #0
 800385e:	d107      	bne.n	8003870 <__swsetup_r+0x7c>
 8003860:	059a      	lsls	r2, r3, #22
 8003862:	d501      	bpl.n	8003868 <__swsetup_r+0x74>
 8003864:	061b      	lsls	r3, r3, #24
 8003866:	d503      	bpl.n	8003870 <__swsetup_r+0x7c>
 8003868:	0021      	movs	r1, r4
 800386a:	0028      	movs	r0, r5
 800386c:	f000 f898 	bl	80039a0 <__smakebuf_r>
 8003870:	230c      	movs	r3, #12
 8003872:	5ee2      	ldrsh	r2, [r4, r3]
 8003874:	2101      	movs	r1, #1
 8003876:	0013      	movs	r3, r2
 8003878:	400b      	ands	r3, r1
 800387a:	420a      	tst	r2, r1
 800387c:	d00c      	beq.n	8003898 <__swsetup_r+0xa4>
 800387e:	2300      	movs	r3, #0
 8003880:	60a3      	str	r3, [r4, #8]
 8003882:	6963      	ldr	r3, [r4, #20]
 8003884:	425b      	negs	r3, r3
 8003886:	61a3      	str	r3, [r4, #24]
 8003888:	2000      	movs	r0, #0
 800388a:	6923      	ldr	r3, [r4, #16]
 800388c:	4283      	cmp	r3, r0
 800388e:	d1ca      	bne.n	8003826 <__swsetup_r+0x32>
 8003890:	0613      	lsls	r3, r2, #24
 8003892:	d5c8      	bpl.n	8003826 <__swsetup_r+0x32>
 8003894:	2340      	movs	r3, #64	@ 0x40
 8003896:	e7c2      	b.n	800381e <__swsetup_r+0x2a>
 8003898:	0791      	lsls	r1, r2, #30
 800389a:	d400      	bmi.n	800389e <__swsetup_r+0xaa>
 800389c:	6963      	ldr	r3, [r4, #20]
 800389e:	60a3      	str	r3, [r4, #8]
 80038a0:	e7f2      	b.n	8003888 <__swsetup_r+0x94>
 80038a2:	46c0      	nop			@ (mov r8, r8)
 80038a4:	20000018 	.word	0x20000018

080038a8 <_raise_r>:
 80038a8:	b570      	push	{r4, r5, r6, lr}
 80038aa:	0004      	movs	r4, r0
 80038ac:	000d      	movs	r5, r1
 80038ae:	291f      	cmp	r1, #31
 80038b0:	d904      	bls.n	80038bc <_raise_r+0x14>
 80038b2:	2316      	movs	r3, #22
 80038b4:	6003      	str	r3, [r0, #0]
 80038b6:	2001      	movs	r0, #1
 80038b8:	4240      	negs	r0, r0
 80038ba:	bd70      	pop	{r4, r5, r6, pc}
 80038bc:	6bc3      	ldr	r3, [r0, #60]	@ 0x3c
 80038be:	2b00      	cmp	r3, #0
 80038c0:	d004      	beq.n	80038cc <_raise_r+0x24>
 80038c2:	008a      	lsls	r2, r1, #2
 80038c4:	189b      	adds	r3, r3, r2
 80038c6:	681a      	ldr	r2, [r3, #0]
 80038c8:	2a00      	cmp	r2, #0
 80038ca:	d108      	bne.n	80038de <_raise_r+0x36>
 80038cc:	0020      	movs	r0, r4
 80038ce:	f000 f831 	bl	8003934 <_getpid_r>
 80038d2:	002a      	movs	r2, r5
 80038d4:	0001      	movs	r1, r0
 80038d6:	0020      	movs	r0, r4
 80038d8:	f000 f81a 	bl	8003910 <_kill_r>
 80038dc:	e7ed      	b.n	80038ba <_raise_r+0x12>
 80038de:	2a01      	cmp	r2, #1
 80038e0:	d009      	beq.n	80038f6 <_raise_r+0x4e>
 80038e2:	1c51      	adds	r1, r2, #1
 80038e4:	d103      	bne.n	80038ee <_raise_r+0x46>
 80038e6:	2316      	movs	r3, #22
 80038e8:	6003      	str	r3, [r0, #0]
 80038ea:	2001      	movs	r0, #1
 80038ec:	e7e5      	b.n	80038ba <_raise_r+0x12>
 80038ee:	2100      	movs	r1, #0
 80038f0:	0028      	movs	r0, r5
 80038f2:	6019      	str	r1, [r3, #0]
 80038f4:	4790      	blx	r2
 80038f6:	2000      	movs	r0, #0
 80038f8:	e7df      	b.n	80038ba <_raise_r+0x12>
	...

080038fc <raise>:
 80038fc:	b510      	push	{r4, lr}
 80038fe:	4b03      	ldr	r3, [pc, #12]	@ (800390c <raise+0x10>)
 8003900:	0001      	movs	r1, r0
 8003902:	6818      	ldr	r0, [r3, #0]
 8003904:	f7ff ffd0 	bl	80038a8 <_raise_r>
 8003908:	bd10      	pop	{r4, pc}
 800390a:	46c0      	nop			@ (mov r8, r8)
 800390c:	20000018 	.word	0x20000018

08003910 <_kill_r>:
 8003910:	2300      	movs	r3, #0
 8003912:	b570      	push	{r4, r5, r6, lr}
 8003914:	4d06      	ldr	r5, [pc, #24]	@ (8003930 <_kill_r+0x20>)
 8003916:	0004      	movs	r4, r0
 8003918:	0008      	movs	r0, r1
 800391a:	0011      	movs	r1, r2
 800391c:	602b      	str	r3, [r5, #0]
 800391e:	f7fe fe22 	bl	8002566 <_kill>
 8003922:	1c43      	adds	r3, r0, #1
 8003924:	d103      	bne.n	800392e <_kill_r+0x1e>
 8003926:	682b      	ldr	r3, [r5, #0]
 8003928:	2b00      	cmp	r3, #0
 800392a:	d000      	beq.n	800392e <_kill_r+0x1e>
 800392c:	6023      	str	r3, [r4, #0]
 800392e:	bd70      	pop	{r4, r5, r6, pc}
 8003930:	20000584 	.word	0x20000584

08003934 <_getpid_r>:
 8003934:	b510      	push	{r4, lr}
 8003936:	f7fe fe14 	bl	8002562 <_getpid>
 800393a:	bd10      	pop	{r4, pc}

0800393c <_malloc_usable_size_r>:
 800393c:	1f0b      	subs	r3, r1, #4
 800393e:	681b      	ldr	r3, [r3, #0]
 8003940:	1f18      	subs	r0, r3, #4
 8003942:	2b00      	cmp	r3, #0
 8003944:	da01      	bge.n	800394a <_malloc_usable_size_r+0xe>
 8003946:	580b      	ldr	r3, [r1, r0]
 8003948:	18c0      	adds	r0, r0, r3
 800394a:	4770      	bx	lr

0800394c <__swhatbuf_r>:
 800394c:	b5f0      	push	{r4, r5, r6, r7, lr}
 800394e:	000e      	movs	r6, r1
 8003950:	001d      	movs	r5, r3
 8003952:	230e      	movs	r3, #14
 8003954:	5ec9      	ldrsh	r1, [r1, r3]
 8003956:	0014      	movs	r4, r2
 8003958:	b097      	sub	sp, #92	@ 0x5c
 800395a:	2900      	cmp	r1, #0
 800395c:	da0c      	bge.n	8003978 <__swhatbuf_r+0x2c>
 800395e:	89b2      	ldrh	r2, [r6, #12]
 8003960:	2380      	movs	r3, #128	@ 0x80
 8003962:	0011      	movs	r1, r2
 8003964:	4019      	ands	r1, r3
 8003966:	421a      	tst	r2, r3
 8003968:	d114      	bne.n	8003994 <__swhatbuf_r+0x48>
 800396a:	2380      	movs	r3, #128	@ 0x80
 800396c:	00db      	lsls	r3, r3, #3
 800396e:	2000      	movs	r0, #0
 8003970:	6029      	str	r1, [r5, #0]
 8003972:	6023      	str	r3, [r4, #0]
 8003974:	b017      	add	sp, #92	@ 0x5c
 8003976:	bdf0      	pop	{r4, r5, r6, r7, pc}
 8003978:	466a      	mov	r2, sp
 800397a:	f000 f84b 	bl	8003a14 <_fstat_r>
 800397e:	2800      	cmp	r0, #0
 8003980:	dbed      	blt.n	800395e <__swhatbuf_r+0x12>
 8003982:	23f0      	movs	r3, #240	@ 0xf0
 8003984:	9901      	ldr	r1, [sp, #4]
 8003986:	021b      	lsls	r3, r3, #8
 8003988:	4019      	ands	r1, r3
 800398a:	4b04      	ldr	r3, [pc, #16]	@ (800399c <__swhatbuf_r+0x50>)
 800398c:	18c9      	adds	r1, r1, r3
 800398e:	424b      	negs	r3, r1
 8003990:	4159      	adcs	r1, r3
 8003992:	e7ea      	b.n	800396a <__swhatbuf_r+0x1e>
 8003994:	2100      	movs	r1, #0
 8003996:	2340      	movs	r3, #64	@ 0x40
 8003998:	e7e9      	b.n	800396e <__swhatbuf_r+0x22>
 800399a:	46c0      	nop			@ (mov r8, r8)
 800399c:	ffffe000 	.word	0xffffe000

080039a0 <__smakebuf_r>:
 80039a0:	b5f7      	push	{r0, r1, r2, r4, r5, r6, r7, lr}
 80039a2:	2602      	movs	r6, #2
 80039a4:	898b      	ldrh	r3, [r1, #12]
 80039a6:	0005      	movs	r5, r0
 80039a8:	000c      	movs	r4, r1
 80039aa:	4233      	tst	r3, r6
 80039ac:	d006      	beq.n	80039bc <__smakebuf_r+0x1c>
 80039ae:	0023      	movs	r3, r4
 80039b0:	3347      	adds	r3, #71	@ 0x47
 80039b2:	6023      	str	r3, [r4, #0]
 80039b4:	6123      	str	r3, [r4, #16]
 80039b6:	2301      	movs	r3, #1
 80039b8:	6163      	str	r3, [r4, #20]
 80039ba:	bdf7      	pop	{r0, r1, r2, r4, r5, r6, r7, pc}
 80039bc:	466a      	mov	r2, sp
 80039be:	ab01      	add	r3, sp, #4
 80039c0:	f7ff ffc4 	bl	800394c <__swhatbuf_r>
 80039c4:	9f00      	ldr	r7, [sp, #0]
 80039c6:	0028      	movs	r0, r5
 80039c8:	0039      	movs	r1, r7
 80039ca:	f7ff f8e1 	bl	8002b90 <_malloc_r>
 80039ce:	220c      	movs	r2, #12
 80039d0:	5ea3      	ldrsh	r3, [r4, r2]
 80039d2:	2800      	cmp	r0, #0
 80039d4:	d106      	bne.n	80039e4 <__smakebuf_r+0x44>
 80039d6:	059a      	lsls	r2, r3, #22
 80039d8:	d4ef      	bmi.n	80039ba <__smakebuf_r+0x1a>
 80039da:	2203      	movs	r2, #3
 80039dc:	4393      	bics	r3, r2
 80039de:	431e      	orrs	r6, r3
 80039e0:	81a6      	strh	r6, [r4, #12]
 80039e2:	e7e4      	b.n	80039ae <__smakebuf_r+0xe>
 80039e4:	2280      	movs	r2, #128	@ 0x80
 80039e6:	4313      	orrs	r3, r2
 80039e8:	81a3      	strh	r3, [r4, #12]
 80039ea:	9b01      	ldr	r3, [sp, #4]
 80039ec:	6020      	str	r0, [r4, #0]
 80039ee:	6120      	str	r0, [r4, #16]
 80039f0:	6167      	str	r7, [r4, #20]
 80039f2:	2b00      	cmp	r3, #0
 80039f4:	d0e1      	beq.n	80039ba <__smakebuf_r+0x1a>
 80039f6:	0028      	movs	r0, r5
 80039f8:	230e      	movs	r3, #14
 80039fa:	5ee1      	ldrsh	r1, [r4, r3]
 80039fc:	f000 f81c 	bl	8003a38 <_isatty_r>
 8003a00:	2800      	cmp	r0, #0
 8003a02:	d0da      	beq.n	80039ba <__smakebuf_r+0x1a>
 8003a04:	2303      	movs	r3, #3
 8003a06:	89a2      	ldrh	r2, [r4, #12]
 8003a08:	439a      	bics	r2, r3
 8003a0a:	3b02      	subs	r3, #2
 8003a0c:	4313      	orrs	r3, r2
 8003a0e:	81a3      	strh	r3, [r4, #12]
 8003a10:	e7d3      	b.n	80039ba <__smakebuf_r+0x1a>
	...

08003a14 <_fstat_r>:
 8003a14:	2300      	movs	r3, #0
 8003a16:	b570      	push	{r4, r5, r6, lr}
 8003a18:	4d06      	ldr	r5, [pc, #24]	@ (8003a34 <_fstat_r+0x20>)
 8003a1a:	0004      	movs	r4, r0
 8003a1c:	0008      	movs	r0, r1
 8003a1e:	0011      	movs	r1, r2
 8003a20:	602b      	str	r3, [r5, #0]
 8003a22:	f7fe fdcd 	bl	80025c0 <_fstat>
 8003a26:	1c43      	adds	r3, r0, #1
 8003a28:	d103      	bne.n	8003a32 <_fstat_r+0x1e>
 8003a2a:	682b      	ldr	r3, [r5, #0]
 8003a2c:	2b00      	cmp	r3, #0
 8003a2e:	d000      	beq.n	8003a32 <_fstat_r+0x1e>
 8003a30:	6023      	str	r3, [r4, #0]
 8003a32:	bd70      	pop	{r4, r5, r6, pc}
 8003a34:	20000584 	.word	0x20000584

08003a38 <_isatty_r>:
 8003a38:	2300      	movs	r3, #0
 8003a3a:	b570      	push	{r4, r5, r6, lr}
 8003a3c:	4d06      	ldr	r5, [pc, #24]	@ (8003a58 <_isatty_r+0x20>)
 8003a3e:	0004      	movs	r4, r0
 8003a40:	0008      	movs	r0, r1
 8003a42:	602b      	str	r3, [r5, #0]
 8003a44:	f7fe fdc1 	bl	80025ca <_isatty>
 8003a48:	1c43      	adds	r3, r0, #1
 8003a4a:	d103      	bne.n	8003a54 <_isatty_r+0x1c>
 8003a4c:	682b      	ldr	r3, [r5, #0]
 8003a4e:	2b00      	cmp	r3, #0
 8003a50:	d000      	beq.n	8003a54 <_isatty_r+0x1c>
 8003a52:	6023      	str	r3, [r4, #0]
 8003a54:	bd70      	pop	{r4, r5, r6, pc}
 8003a56:	46c0      	nop			@ (mov r8, r8)
 8003a58:	20000584 	.word	0x20000584

08003a5c <__aeabi_lmul>:
 8003a5c:	b5f0      	push	{r4, r5, r6, r7, lr}
 8003a5e:	46ce      	mov	lr, r9
 8003a60:	4699      	mov	r9, r3
 8003a62:	0c03      	lsrs	r3, r0, #16
 8003a64:	469c      	mov	ip, r3
 8003a66:	0413      	lsls	r3, r2, #16
 8003a68:	4647      	mov	r7, r8
 8003a6a:	0c1b      	lsrs	r3, r3, #16
 8003a6c:	001d      	movs	r5, r3
 8003a6e:	000e      	movs	r6, r1
 8003a70:	4661      	mov	r1, ip
 8003a72:	0404      	lsls	r4, r0, #16
 8003a74:	0c24      	lsrs	r4, r4, #16
 8003a76:	b580      	push	{r7, lr}
 8003a78:	0007      	movs	r7, r0
 8003a7a:	0c10      	lsrs	r0, r2, #16
 8003a7c:	434b      	muls	r3, r1
 8003a7e:	4365      	muls	r5, r4
 8003a80:	4341      	muls	r1, r0
 8003a82:	4360      	muls	r0, r4
 8003a84:	0c2c      	lsrs	r4, r5, #16
 8003a86:	18c0      	adds	r0, r0, r3
 8003a88:	1824      	adds	r4, r4, r0
 8003a8a:	468c      	mov	ip, r1
 8003a8c:	42a3      	cmp	r3, r4
 8003a8e:	d903      	bls.n	8003a98 <__aeabi_lmul+0x3c>
 8003a90:	2380      	movs	r3, #128	@ 0x80
 8003a92:	025b      	lsls	r3, r3, #9
 8003a94:	4698      	mov	r8, r3
 8003a96:	44c4      	add	ip, r8
 8003a98:	4649      	mov	r1, r9
 8003a9a:	4379      	muls	r1, r7
 8003a9c:	4356      	muls	r6, r2
 8003a9e:	0c23      	lsrs	r3, r4, #16
 8003aa0:	042d      	lsls	r5, r5, #16
 8003aa2:	0c2d      	lsrs	r5, r5, #16
 8003aa4:	1989      	adds	r1, r1, r6
 8003aa6:	4463      	add	r3, ip
 8003aa8:	0424      	lsls	r4, r4, #16
 8003aaa:	1960      	adds	r0, r4, r5
 8003aac:	18c9      	adds	r1, r1, r3
 8003aae:	bcc0      	pop	{r6, r7}
 8003ab0:	46b9      	mov	r9, r7
 8003ab2:	46b0      	mov	r8, r6
 8003ab4:	bdf0      	pop	{r4, r5, r6, r7, pc}
 8003ab6:	46c0      	nop			@ (mov r8, r8)

08003ab8 <__udivmoddi4>:
 8003ab8:	b5f0      	push	{r4, r5, r6, r7, lr}
 8003aba:	4657      	mov	r7, sl
 8003abc:	464e      	mov	r6, r9
 8003abe:	4645      	mov	r5, r8
 8003ac0:	46de      	mov	lr, fp
 8003ac2:	b5e0      	push	{r5, r6, r7, lr}
 8003ac4:	0004      	movs	r4, r0
 8003ac6:	000d      	movs	r5, r1
 8003ac8:	4692      	mov	sl, r2
 8003aca:	4699      	mov	r9, r3
 8003acc:	b083      	sub	sp, #12
 8003ace:	428b      	cmp	r3, r1
 8003ad0:	d830      	bhi.n	8003b34 <__udivmoddi4+0x7c>
 8003ad2:	d02d      	beq.n	8003b30 <__udivmoddi4+0x78>
 8003ad4:	4649      	mov	r1, r9
 8003ad6:	4650      	mov	r0, sl
 8003ad8:	f7fc fc9a 	bl	8000410 <__clzdi2>
 8003adc:	0029      	movs	r1, r5
 8003ade:	0006      	movs	r6, r0
 8003ae0:	0020      	movs	r0, r4
 8003ae2:	f7fc fc95 	bl	8000410 <__clzdi2>
 8003ae6:	1a33      	subs	r3, r6, r0
 8003ae8:	4698      	mov	r8, r3
 8003aea:	3b20      	subs	r3, #32
 8003aec:	d434      	bmi.n	8003b58 <__udivmoddi4+0xa0>
 8003aee:	469b      	mov	fp, r3
 8003af0:	4653      	mov	r3, sl
 8003af2:	465a      	mov	r2, fp
 8003af4:	4093      	lsls	r3, r2
 8003af6:	4642      	mov	r2, r8
 8003af8:	001f      	movs	r7, r3
 8003afa:	4653      	mov	r3, sl
 8003afc:	4093      	lsls	r3, r2
 8003afe:	001e      	movs	r6, r3
 8003b00:	42af      	cmp	r7, r5
 8003b02:	d83b      	bhi.n	8003b7c <__udivmoddi4+0xc4>
 8003b04:	42af      	cmp	r7, r5
 8003b06:	d100      	bne.n	8003b0a <__udivmoddi4+0x52>
 8003b08:	e079      	b.n	8003bfe <__udivmoddi4+0x146>
 8003b0a:	465b      	mov	r3, fp
 8003b0c:	1ba4      	subs	r4, r4, r6
 8003b0e:	41bd      	sbcs	r5, r7
 8003b10:	2b00      	cmp	r3, #0
 8003b12:	da00      	bge.n	8003b16 <__udivmoddi4+0x5e>
 8003b14:	e076      	b.n	8003c04 <__udivmoddi4+0x14c>
 8003b16:	2200      	movs	r2, #0
 8003b18:	2300      	movs	r3, #0
 8003b1a:	9200      	str	r2, [sp, #0]
 8003b1c:	9301      	str	r3, [sp, #4]
 8003b1e:	2301      	movs	r3, #1
 8003b20:	465a      	mov	r2, fp
 8003b22:	4093      	lsls	r3, r2
 8003b24:	9301      	str	r3, [sp, #4]
 8003b26:	2301      	movs	r3, #1
 8003b28:	4642      	mov	r2, r8
 8003b2a:	4093      	lsls	r3, r2
 8003b2c:	9300      	str	r3, [sp, #0]
 8003b2e:	e029      	b.n	8003b84 <__udivmoddi4+0xcc>
 8003b30:	4282      	cmp	r2, r0
 8003b32:	d9cf      	bls.n	8003ad4 <__udivmoddi4+0x1c>
 8003b34:	2200      	movs	r2, #0
 8003b36:	2300      	movs	r3, #0
 8003b38:	9200      	str	r2, [sp, #0]
 8003b3a:	9301      	str	r3, [sp, #4]
 8003b3c:	9b0c      	ldr	r3, [sp, #48]	@ 0x30
 8003b3e:	2b00      	cmp	r3, #0
 8003b40:	d001      	beq.n	8003b46 <__udivmoddi4+0x8e>
 8003b42:	601c      	str	r4, [r3, #0]
 8003b44:	605d      	str	r5, [r3, #4]
 8003b46:	9800      	ldr	r0, [sp, #0]
 8003b48:	9901      	ldr	r1, [sp, #4]
 8003b4a:	b003      	add	sp, #12
 8003b4c:	bcf0      	pop	{r4, r5, r6, r7}
 8003b4e:	46bb      	mov	fp, r7
 8003b50:	46b2      	mov	sl, r6
 8003b52:	46a9      	mov	r9, r5
 8003b54:	46a0      	mov	r8, r4
 8003b56:	bdf0      	pop	{r4, r5, r6, r7, pc}
 8003b58:	4642      	mov	r2, r8
 8003b5a:	469b      	mov	fp, r3
 8003b5c:	2320      	movs	r3, #32
 8003b5e:	1a9b      	subs	r3, r3, r2
 8003b60:	4652      	mov	r2, sl
 8003b62:	40da      	lsrs	r2, r3
 8003b64:	4641      	mov	r1, r8
 8003b66:	0013      	movs	r3, r2
 8003b68:	464a      	mov	r2, r9
 8003b6a:	408a      	lsls	r2, r1
 8003b6c:	0017      	movs	r7, r2
 8003b6e:	4642      	mov	r2, r8
 8003b70:	431f      	orrs	r7, r3
 8003b72:	4653      	mov	r3, sl
 8003b74:	4093      	lsls	r3, r2
 8003b76:	001e      	movs	r6, r3
 8003b78:	42af      	cmp	r7, r5
 8003b7a:	d9c3      	bls.n	8003b04 <__udivmoddi4+0x4c>
 8003b7c:	2200      	movs	r2, #0
 8003b7e:	2300      	movs	r3, #0
 8003b80:	9200      	str	r2, [sp, #0]
 8003b82:	9301      	str	r3, [sp, #4]
 8003b84:	4643      	mov	r3, r8
 8003b86:	2b00      	cmp	r3, #0
 8003b88:	d0d8      	beq.n	8003b3c <__udivmoddi4+0x84>
 8003b8a:	07fb      	lsls	r3, r7, #31
 8003b8c:	0872      	lsrs	r2, r6, #1
 8003b8e:	431a      	orrs	r2, r3
 8003b90:	4646      	mov	r6, r8
 8003b92:	087b      	lsrs	r3, r7, #1
 8003b94:	e00e      	b.n	8003bb4 <__udivmoddi4+0xfc>
 8003b96:	42ab      	cmp	r3, r5
 8003b98:	d101      	bne.n	8003b9e <__udivmoddi4+0xe6>
 8003b9a:	42a2      	cmp	r2, r4
 8003b9c:	d80c      	bhi.n	8003bb8 <__udivmoddi4+0x100>
 8003b9e:	1aa4      	subs	r4, r4, r2
 8003ba0:	419d      	sbcs	r5, r3
 8003ba2:	2001      	movs	r0, #1
 8003ba4:	1924      	adds	r4, r4, r4
 8003ba6:	416d      	adcs	r5, r5
 8003ba8:	2100      	movs	r1, #0
 8003baa:	3e01      	subs	r6, #1
 8003bac:	1824      	adds	r4, r4, r0
 8003bae:	414d      	adcs	r5, r1
 8003bb0:	2e00      	cmp	r6, #0
 8003bb2:	d006      	beq.n	8003bc2 <__udivmoddi4+0x10a>
 8003bb4:	42ab      	cmp	r3, r5
 8003bb6:	d9ee      	bls.n	8003b96 <__udivmoddi4+0xde>
 8003bb8:	3e01      	subs	r6, #1
 8003bba:	1924      	adds	r4, r4, r4
 8003bbc:	416d      	adcs	r5, r5
 8003bbe:	2e00      	cmp	r6, #0
 8003bc0:	d1f8      	bne.n	8003bb4 <__udivmoddi4+0xfc>
 8003bc2:	9800      	ldr	r0, [sp, #0]
 8003bc4:	9901      	ldr	r1, [sp, #4]
 8003bc6:	465b      	mov	r3, fp
 8003bc8:	1900      	adds	r0, r0, r4
 8003bca:	4169      	adcs	r1, r5
 8003bcc:	2b00      	cmp	r3, #0
 8003bce:	db24      	blt.n	8003c1a <__udivmoddi4+0x162>
 8003bd0:	002b      	movs	r3, r5
 8003bd2:	465a      	mov	r2, fp
 8003bd4:	4646      	mov	r6, r8
 8003bd6:	40d3      	lsrs	r3, r2
 8003bd8:	002a      	movs	r2, r5
 8003bda:	001c      	movs	r4, r3
 8003bdc:	40f2      	lsrs	r2, r6
 8003bde:	465b      	mov	r3, fp
 8003be0:	0015      	movs	r5, r2
 8003be2:	2b00      	cmp	r3, #0
 8003be4:	db2a      	blt.n	8003c3c <__udivmoddi4+0x184>
 8003be6:	0026      	movs	r6, r4
 8003be8:	409e      	lsls	r6, r3
 8003bea:	0033      	movs	r3, r6
 8003bec:	0026      	movs	r6, r4
 8003bee:	4647      	mov	r7, r8
 8003bf0:	40be      	lsls	r6, r7
 8003bf2:	0032      	movs	r2, r6
 8003bf4:	1a80      	subs	r0, r0, r2
 8003bf6:	4199      	sbcs	r1, r3
 8003bf8:	9000      	str	r0, [sp, #0]
 8003bfa:	9101      	str	r1, [sp, #4]
 8003bfc:	e79e      	b.n	8003b3c <__udivmoddi4+0x84>
 8003bfe:	42a3      	cmp	r3, r4
 8003c00:	d8bc      	bhi.n	8003b7c <__udivmoddi4+0xc4>
 8003c02:	e782      	b.n	8003b0a <__udivmoddi4+0x52>
 8003c04:	4642      	mov	r2, r8
 8003c06:	2320      	movs	r3, #32
 8003c08:	2100      	movs	r1, #0
 8003c0a:	1a9b      	subs	r3, r3, r2
 8003c0c:	2200      	movs	r2, #0
 8003c0e:	9100      	str	r1, [sp, #0]
 8003c10:	9201      	str	r2, [sp, #4]
 8003c12:	2201      	movs	r2, #1
 8003c14:	40da      	lsrs	r2, r3
 8003c16:	9201      	str	r2, [sp, #4]
 8003c18:	e785      	b.n	8003b26 <__udivmoddi4+0x6e>
 8003c1a:	4642      	mov	r2, r8
 8003c1c:	2320      	movs	r3, #32
 8003c1e:	1a9b      	subs	r3, r3, r2
 8003c20:	002a      	movs	r2, r5
 8003c22:	4646      	mov	r6, r8
 8003c24:	409a      	lsls	r2, r3
 8003c26:	0023      	movs	r3, r4
 8003c28:	40f3      	lsrs	r3, r6
 8003c2a:	4646      	mov	r6, r8
 8003c2c:	4313      	orrs	r3, r2
 8003c2e:	002a      	movs	r2, r5
 8003c30:	001c      	movs	r4, r3
 8003c32:	40f2      	lsrs	r2, r6
 8003c34:	465b      	mov	r3, fp
 8003c36:	0015      	movs	r5, r2
 8003c38:	2b00      	cmp	r3, #0
 8003c3a:	dad4      	bge.n	8003be6 <__udivmoddi4+0x12e>
 8003c3c:	2320      	movs	r3, #32
 8003c3e:	4642      	mov	r2, r8
 8003c40:	002f      	movs	r7, r5
 8003c42:	1b9b      	subs	r3, r3, r6
 8003c44:	4097      	lsls	r7, r2
 8003c46:	0026      	movs	r6, r4
 8003c48:	40de      	lsrs	r6, r3
 8003c4a:	003b      	movs	r3, r7
 8003c4c:	4333      	orrs	r3, r6
 8003c4e:	e7cd      	b.n	8003bec <__udivmoddi4+0x134>

08003c50 <_init>:
 8003c50:	b5f8      	push	{r3, r4, r5, r6, r7, lr}
 8003c52:	46c0      	nop			@ (mov r8, r8)
 8003c54:	bcf8      	pop	{r3, r4, r5, r6, r7}
 8003c56:	bc08      	pop	{r3}
 8003c58:	469e      	mov	lr, r3
 8003c5a:	4770      	bx	lr

08003c5c <_fini>:
 8003c5c:	b5f8      	push	{r3, r4, r5, r6, r7, lr}
 8003c5e:	46c0      	nop			@ (mov r8, r8)
 8003c60:	bcf8      	pop	{r3, r4, r5, r6, r7}
 8003c62:	bc08      	pop	{r3}
 8003c64:	469e      	mov	lr, r3
 8003c66:	4770      	bx	lr
